0	7819	  00046A   CALL    Test3
		Test3:
1	7823	  000C1C   ST      -Y,R17
2	7825	  000C1E   ST      -Y,R16
3	7827	  000C20   LDI     R17,0x00
4	7828	  000C22   LDI     R16,0x02
		??qpQLuPnEUlJCOQbkVsgBFJkeFRkBB:
5	7829	  000C24   ST      -Y,R18
6	7831	  000C26   IN      R18,SREG
7	7832	  000C28   ST      -Y,R18
8	7834	  000C2A   CALL    avmp_handler
		avmp_handler:
9	7838	  00047A   ST      -Y,R19
10	7840	  00047C   POP     R19
11	7842	  00047E   POP     R18
12	7844	  000480   PUSH    R31
13	7846	  000482   PUSH    R30
14	7848	  000484   MOV     R31,R19
15	7849	  000486   MOV     R30,R18
16	7850	  000488   ADD     R30,R16
17	7851	  00048A   ADC     R31,R17
18	7852	  00048C   LSL     R30
19	7853	  00048E   ROL     R31
20	7854	  000490   LSL     R18
21	7855	  000492   ROL     R19
22	7856	  000494   LPM      R16,Z+
23	7859	  000496   LPM      R17,Z
24	7862	  000498   ADD     R18,R16
25	7863	  00049A   ADC     R19,R17
26	7864	  00049C   LSR     R19
27	7865	  00049E   ROR     R18
28	7866	  0004A0   POP     R30
29	7868	  0004A2   POP     R31
30	7870	  0004A4   PUSH    R18
31	7872	  0004A6   PUSH    R19
32	7874	  0004A8   LD      R19,Y+
33	7876	  0004AA   LD      R18,Y+
34	7878	  0004AC   OUT     SREG,R18
35	7879	  0004AE   LD      R18,Y+
36	7881	  0004B0   LD      R16,Y+
37	7883	  0004B2   LD      R17,Y+
38	7885	  0004B4   RET
		??cPbKZoqtfTeDeSYiiXkulaszZALEO:
39	7889	  000D4A   CALL    ?PROLOGUE4_L09
		?PROLOGUE4_L09:
40	7893	  001C50   ST      -Y,R27
		?PROLOGUE3_L09:
41	7895	  001C52   ST      -Y,R26
		?PROLOGUE2_L09:
42	7897	  001C54   ST      -Y,R25
		?PROLOGUE1_L09:
43	7899	  001C56   ST      -Y,R24
44	7901	  001C58   RET
45	7905	  000D4E   SBIW    R28,7
46	7907	  000D50   ST      -Y,R17
47	7909	  000D52   ST      -Y,R16
48	7911	  000D54   LDI     R17,0x00
49	7912	  000D56   LDI     R16,0x03
50	7913	  000D58   JMP     ??qpQLuPnEUlJCOQbkVsgBFJkeFRkBB
		??qpQLuPnEUlJCOQbkVsgBFJkeFRkBB:
51	7916	  000C24   ST      -Y,R18
52	7918	  000C26   IN      R18,SREG
53	7919	  000C28   ST      -Y,R18
54	7921	  000C2A   CALL    avmp_handler
		avmp_handler:
55	7925	  00047A   ST      -Y,R19
56	7927	  00047C   POP     R19
57	7929	  00047E   POP     R18
58	7931	  000480   PUSH    R31
59	7933	  000482   PUSH    R30
60	7935	  000484   MOV     R31,R19
61	7936	  000486   MOV     R30,R18
62	7937	  000488   ADD     R30,R16
63	7938	  00048A   ADC     R31,R17
64	7939	  00048C   LSL     R30
65	7940	  00048E   ROL     R31
66	7941	  000490   LSL     R18
67	7942	  000492   ROL     R19
68	7943	  000494   LPM      R16,Z+
69	7946	  000496   LPM      R17,Z
70	7949	  000498   ADD     R18,R16
71	7950	  00049A   ADC     R19,R17
72	7951	  00049C   LSR     R19
73	7952	  00049E   ROR     R18
74	7953	  0004A0   POP     R30
75	7955	  0004A2   POP     R31
76	7957	  0004A4   PUSH    R18
77	7959	  0004A6   PUSH    R19
78	7961	  0004A8   LD      R19,Y+
79	7963	  0004AA   LD      R18,Y+
80	7965	  0004AC   OUT     SREG,R18
81	7966	  0004AE   LD      R18,Y+
82	7968	  0004B0   LD      R16,Y+
83	7970	  0004B2   LD      R17,Y+
84	7972	  0004B4   RET
		??ltmqdRvKNWOztlVbqsjGpPpGUMFfj:
85	7976	  000D5C   LDI     R24,0x06
86	7977	  000D5E   LDI     R25,0x00
87	7978	  000D60   ST      -Y,R17
88	7980	  000D62   ST      -Y,R16
89	7982	  000D64   LDI     R17,0x00
90	7983	  000D66   LDI     R16,0x04
91	7984	  000D68   JMP     ??qpQLuPnEUlJCOQbkVsgBFJkeFRkBB
		??qpQLuPnEUlJCOQbkVsgBFJkeFRkBB:
92	7987	  000C24   ST      -Y,R18
93	7989	  000C26   IN      R18,SREG
94	7990	  000C28   ST      -Y,R18
95	7992	  000C2A   CALL    avmp_handler
		avmp_handler:
96	7996	  00047A   ST      -Y,R19
97	7998	  00047C   POP     R19
98	8000	  00047E   POP     R18
99	8002	  000480   PUSH    R31
100	8004	  000482   PUSH    R30
101	8006	  000484   MOV     R31,R19
102	8007	  000486   MOV     R30,R18
103	8008	  000488   ADD     R30,R16
104	8009	  00048A   ADC     R31,R17
105	8010	  00048C   LSL     R30
106	8011	  00048E   ROL     R31
107	8012	  000490   LSL     R18
108	8013	  000492   ROL     R19
109	8014	  000494   LPM      R16,Z+
110	8017	  000496   LPM      R17,Z
111	8020	  000498   ADD     R18,R16
112	8021	  00049A   ADC     R19,R17
113	8022	  00049C   LSR     R19
114	8023	  00049E   ROR     R18
115	8024	  0004A0   POP     R30
116	8026	  0004A2   POP     R31
117	8028	  0004A4   PUSH    R18
118	8030	  0004A6   PUSH    R19
119	8032	  0004A8   LD      R19,Y+
120	8034	  0004AA   LD      R18,Y+
121	8036	  0004AC   OUT     SREG,R18
122	8037	  0004AE   LD      R18,Y+
123	8039	  0004B0   LD      R16,Y+
124	8041	  0004B2   LD      R17,Y+
125	8043	  0004B4   RET
		??zSIqeOHQMUNndvUSDkcAFwWevLZux:
126	8047	  000D6C   LDI     R16,0x03
127	8048	  000D6E   LDI     R17,0x00
128	8049	  000D70   ST      -Y,R17
129	8051	  000D72   ST      -Y,R16
130	8053	  000D74   LDI     R17,0x00
131	8054	  000D76   LDI     R16,0x05
132	8055	  000D78   JMP     ??qpQLuPnEUlJCOQbkVsgBFJkeFRkBB
		??qpQLuPnEUlJCOQbkVsgBFJkeFRkBB:
133	8058	  000C24   ST      -Y,R18
134	8060	  000C26   IN      R18,SREG
135	8061	  000C28   ST      -Y,R18
136	8063	  000C2A   CALL    avmp_handler
		avmp_handler:
137	8067	  00047A   ST      -Y,R19
138	8069	  00047C   POP     R19
139	8071	  00047E   POP     R18
140	8073	  000480   PUSH    R31
141	8075	  000482   PUSH    R30
142	8077	  000484   MOV     R31,R19
143	8078	  000486   MOV     R30,R18
144	8079	  000488   ADD     R30,R16
145	8080	  00048A   ADC     R31,R17
146	8081	  00048C   LSL     R30
147	8082	  00048E   ROL     R31
148	8083	  000490   LSL     R18
149	8084	  000492   ROL     R19
150	8085	  000494   LPM      R16,Z+
151	8088	  000496   LPM      R17,Z
152	8091	  000498   ADD     R18,R16
153	8092	  00049A   ADC     R19,R17
154	8093	  00049C   LSR     R19
155	8094	  00049E   ROR     R18
156	8095	  0004A0   POP     R30
157	8097	  0004A2   POP     R31
158	8099	  0004A4   PUSH    R18
159	8101	  0004A6   PUSH    R19
160	8103	  0004A8   LD      R19,Y+
161	8105	  0004AA   LD      R18,Y+
162	8107	  0004AC   OUT     SREG,R18
163	8108	  0004AE   LD      R18,Y+
164	8110	  0004B0   LD      R16,Y+
165	8112	  0004B2   LD      R17,Y+
166	8114	  0004B4   RET
		??grgnStkwyluppkKqzLkXybAofFkvj:
167	8118	  000D7C   CALL    TestSwitch
		TestSwitch:
168	8122	  0004F2   ST      -Y,R17
169	8124	  0004F4   ST      -Y,R16
170	8126	  0004F6   LDI     R17,0x00
171	8127	  0004F8   LDI     R16,0x01
		??CLbcAawueommKzBIHBhZNiRFSjinB:
172	8128	  0004FA   ST      -Y,R18
173	8130	  0004FC   IN      R18,SREG
174	8131	  0004FE   ST      -Y,R18
175	8133	  000500   CALL    avmp_handler
		avmp_handler:
176	8137	  00047A   ST      -Y,R19
177	8139	  00047C   POP     R19
178	8141	  00047E   POP     R18
179	8143	  000480   PUSH    R31
180	8145	  000482   PUSH    R30
181	8147	  000484   MOV     R31,R19
182	8148	  000486   MOV     R30,R18
183	8149	  000488   ADD     R30,R16
184	8150	  00048A   ADC     R31,R17
185	8151	  00048C   LSL     R30
186	8152	  00048E   ROL     R31
187	8153	  000490   LSL     R18
188	8154	  000492   ROL     R19
189	8155	  000494   LPM      R16,Z+
190	8158	  000496   LPM      R17,Z
191	8161	  000498   ADD     R18,R16
192	8162	  00049A   ADC     R19,R17
193	8163	  00049C   LSR     R19
194	8164	  00049E   ROR     R18
195	8165	  0004A0   POP     R30
196	8167	  0004A2   POP     R31
197	8169	  0004A4   PUSH    R18
198	8171	  0004A6   PUSH    R19
199	8173	  0004A8   LD      R19,Y+
200	8175	  0004AA   LD      R18,Y+
201	8177	  0004AC   OUT     SREG,R18
202	8178	  0004AE   LD      R18,Y+
203	8180	  0004B0   LD      R16,Y+
204	8182	  0004B2   LD      R17,Y+
205	8184	  0004B4   RET
		??pPccdZDuFPMDQqqDyootmZUuUTpLm:
206	8188	  00052A   LDI     R30,0x9C
207	8189	  00052C   LDI     R31,0x00
208	8190	  00052E   ST      -Y,R17
209	8192	  000530   ST      -Y,R16
210	8194	  000532   LDI     R17,0x00
211	8195	  000534   LDI     R16,0x02
212	8196	  000536   JMP     ??CLbcAawueommKzBIHBhZNiRFSjinB
		??CLbcAawueommKzBIHBhZNiRFSjinB:
213	8199	  0004FA   ST      -Y,R18
214	8201	  0004FC   IN      R18,SREG
215	8202	  0004FE   ST      -Y,R18
216	8204	  000500   CALL    avmp_handler
		avmp_handler:
217	8208	  00047A   ST      -Y,R19
218	8210	  00047C   POP     R19
219	8212	  00047E   POP     R18
220	8214	  000480   PUSH    R31
221	8216	  000482   PUSH    R30
222	8218	  000484   MOV     R31,R19
223	8219	  000486   MOV     R30,R18
224	8220	  000488   ADD     R30,R16
225	8221	  00048A   ADC     R31,R17
226	8222	  00048C   LSL     R30
227	8223	  00048E   ROL     R31
228	8224	  000490   LSL     R18
229	8225	  000492   ROL     R19
230	8226	  000494   LPM      R16,Z+
231	8229	  000496   LPM      R17,Z
232	8232	  000498   ADD     R18,R16
233	8233	  00049A   ADC     R19,R17
234	8234	  00049C   LSR     R19
235	8235	  00049E   ROR     R18
236	8236	  0004A0   POP     R30
237	8238	  0004A2   POP     R31
238	8240	  0004A4   PUSH    R18
239	8242	  0004A6   PUSH    R19
240	8244	  0004A8   LD      R19,Y+
241	8246	  0004AA   LD      R18,Y+
242	8248	  0004AC   OUT     SREG,R18
243	8249	  0004AE   LD      R18,Y+
244	8251	  0004B0   LD      R16,Y+
245	8253	  0004B2   LD      R17,Y+
246	8255	  0004B4   RET
		??tcJzpxWTWwxzqKdFmbAZBcjNbgwaz:
247	8259	  00053A   OUT     RAMPZ,R31
248	8260	  00053C   LDI     R31,0x00
249	8261	  00053E   ST      -Y,R17
250	8263	  000540   ST      -Y,R16
251	8265	  000542   LDI     R17,0x00
252	8266	  000544   LDI     R16,0x03
253	8267	  000546   JMP     ??CLbcAawueommKzBIHBhZNiRFSjinB
		??CLbcAawueommKzBIHBhZNiRFSjinB:
254	8270	  0004FA   ST      -Y,R18
255	8272	  0004FC   IN      R18,SREG
256	8273	  0004FE   ST      -Y,R18
257	8275	  000500   CALL    avmp_handler
		avmp_handler:
258	8279	  00047A   ST      -Y,R19
259	8281	  00047C   POP     R19
260	8283	  00047E   POP     R18
261	8285	  000480   PUSH    R31
262	8287	  000482   PUSH    R30
263	8289	  000484   MOV     R31,R19
264	8290	  000486   MOV     R30,R18
265	8291	  000488   ADD     R30,R16
266	8292	  00048A   ADC     R31,R17
267	8293	  00048C   LSL     R30
268	8294	  00048E   ROL     R31
269	8295	  000490   LSL     R18
270	8296	  000492   ROL     R19
271	8297	  000494   LPM      R16,Z+
272	8300	  000496   LPM      R17,Z
273	8303	  000498   ADD     R18,R16
274	8304	  00049A   ADC     R19,R17
275	8305	  00049C   LSR     R19
276	8306	  00049E   ROR     R18
277	8307	  0004A0   POP     R30
278	8309	  0004A2   POP     R31
279	8311	  0004A4   PUSH    R18
280	8313	  0004A6   PUSH    R19
281	8315	  0004A8   LD      R19,Y+
282	8317	  0004AA   LD      R18,Y+
283	8319	  0004AC   OUT     SREG,R18
284	8320	  0004AE   LD      R18,Y+
285	8322	  0004B0   LD      R16,Y+
286	8324	  0004B2   LD      R17,Y+
287	8326	  0004B4   RET
		??mXLIQHSKkwCTRnxMFVaTxXFOdCayM:
288	8330	  00054A   JMP     ?SV_SWITCH_L06
		?SV_SWITCH_L06:
289	8333	  001B92   RCALL   GET_INFO_S
		GET_INFO_S:
290	8336	  001B7C   ELPM      R21,Z+
		GET_INFO_C:
291	8339	  001B7E   ELPM      R20,Z+
292	8342	  001B80   ELPM      R1,Z+
293	8345	  001B82   BST     R1,1
294	8346	  001B84   ELPM      R2,Z+
295	8349	  001B86   ELPM      R3,Z+
296	8352	  001B88   RET
297	8356	  001B94   SUB     R16,R20
298	8357	  001B96   SBC     R17,R21
		P_0_S:
299	8358	  001B98   LDI     R18,0x00
300	8359	  001B9A   LDI     R19,0x00
301	8360	  001B9C   RJMP    CHECK_LOW_LIMIT
		CHECK_LOW_LIMIT:
302	8362	  001B9E   BRCS    0x1BCE
303	8363	  001BA0   SBRC    R1,0
304	8365	  001BA4   ELPM      R20,Z+
305	8368	  001BA6   ELPM      R0,Z+
306	8371	  001BA8   ADD     R30,R16
307	8372	  001BAA   ADC     R31,R17
308	8373	  001BAC   CP      R16,R20
309	8374	  001BAE   CPC     R17,R0
310	8375	  001BB0   LDI     R20,0x00
311	8376	  001BB2   CPC     R18,R20
312	8377	  001BB4   CPC     R19,R20
313	8378	  001BB6   BRCC    0x1BCE
314	8379	  001BB8   BRTC    0x1BC6
315	8381	  001BC6   ADD     R30,R16
316	8382	  001BC8   ADC     R31,R17
317	8383	  001BCA   ELPM      R2,Z+
318	8386	  001BCC   ELPM      R3,Z+
319	8389	  001BCE   MOVW    R30,R2
320	8390	  001BD0   IJMP
		??TestSwitch_2:
321	8392	  00057E   LDI     R16,0x03
322	8393	  000580   ST      -Y,R17
323	8395	  000582   ST      -Y,R16
324	8397	  000584   LDI     R17,0x00
325	8398	  000586   LDI     R16,0x07
326	8399	  000588   JMP     ??CLbcAawueommKzBIHBhZNiRFSjinB
		??CLbcAawueommKzBIHBhZNiRFSjinB:
327	8402	  0004FA   ST      -Y,R18
328	8404	  0004FC   IN      R18,SREG
329	8405	  0004FE   ST      -Y,R18
330	8407	  000500   CALL    avmp_handler
		avmp_handler:
331	8411	  00047A   ST      -Y,R19
332	8413	  00047C   POP     R19
333	8415	  00047E   POP     R18
334	8417	  000480   PUSH    R31
335	8419	  000482   PUSH    R30
336	8421	  000484   MOV     R31,R19
337	8422	  000486   MOV     R30,R18
338	8423	  000488   ADD     R30,R16
339	8424	  00048A   ADC     R31,R17
340	8425	  00048C   LSL     R30
341	8426	  00048E   ROL     R31
342	8427	  000490   LSL     R18
343	8428	  000492   ROL     R19
344	8429	  000494   LPM      R16,Z+
345	8432	  000496   LPM      R17,Z
346	8435	  000498   ADD     R18,R16
347	8436	  00049A   ADC     R19,R17
348	8437	  00049C   LSR     R19
349	8438	  00049E   ROR     R18
350	8439	  0004A0   POP     R30
351	8441	  0004A2   POP     R31
352	8443	  0004A4   PUSH    R18
353	8445	  0004A6   PUSH    R19
354	8447	  0004A8   LD      R19,Y+
355	8449	  0004AA   LD      R18,Y+
356	8451	  0004AC   OUT     SREG,R18
357	8452	  0004AE   LD      R18,Y+
358	8454	  0004B0   LD      R16,Y+
359	8456	  0004B2   LD      R17,Y+
360	8458	  0004B4   RET
		??GlZjsfEUxutfcoWtGSmvtVZeWTnyv:
361	8462	  00058C   LDI     R17,0x00
362	8463	  00058E   RET
363	8467	  000D80   LDI     R16,0x00
364	8468	  000D82   ST      -Y,R17
365	8470	  000D84   ST      -Y,R16
366	8472	  000D86   LDI     R17,0x00
367	8473	  000D88   LDI     R16,0x06
368	8474	  000D8A   JMP     ??qpQLuPnEUlJCOQbkVsgBFJkeFRkBB
		??qpQLuPnEUlJCOQbkVsgBFJkeFRkBB:
369	8477	  000C24   ST      -Y,R18
370	8479	  000C26   IN      R18,SREG
371	8480	  000C28   ST      -Y,R18
372	8482	  000C2A   CALL    avmp_handler
		avmp_handler:
373	8486	  00047A   ST      -Y,R19
374	8488	  00047C   POP     R19
375	8490	  00047E   POP     R18
376	8492	  000480   PUSH    R31
377	8494	  000482   PUSH    R30
378	8496	  000484   MOV     R31,R19
379	8497	  000486   MOV     R30,R18
380	8498	  000488   ADD     R30,R16
381	8499	  00048A   ADC     R31,R17
382	8500	  00048C   LSL     R30
383	8501	  00048E   ROL     R31
384	8502	  000490   LSL     R18
385	8503	  000492   ROL     R19
386	8504	  000494   LPM      R16,Z+
387	8507	  000496   LPM      R17,Z
388	8510	  000498   ADD     R18,R16
389	8511	  00049A   ADC     R19,R17
390	8512	  00049C   LSR     R19
391	8513	  00049E   ROR     R18
392	8514	  0004A0   POP     R30
393	8516	  0004A2   POP     R31
394	8518	  0004A4   PUSH    R18
395	8520	  0004A6   PUSH    R19
396	8522	  0004A8   LD      R19,Y+
397	8524	  0004AA   LD      R18,Y+
398	8526	  0004AC   OUT     SREG,R18
399	8527	  0004AE   LD      R18,Y+
400	8529	  0004B0   LD      R16,Y+
401	8531	  0004B2   LD      R17,Y+
402	8533	  0004B4   RET
		??CuqGrUwgRKyEFUikEFhfTuhPXaFqR:
403	8537	  000D8E   ST      Y,R16
404	8539	  000D90   LDI     R16,0x00
405	8540	  000D92   ST      -Y,R17
406	8542	  000D94   ST      -Y,R16
407	8544	  000D96   LDI     R17,0x00
408	8545	  000D98   LDI     R16,0x07
409	8546	  000D9A   JMP     ??qpQLuPnEUlJCOQbkVsgBFJkeFRkBB
		??qpQLuPnEUlJCOQbkVsgBFJkeFRkBB:
410	8549	  000C24   ST      -Y,R18
411	8551	  000C26   IN      R18,SREG
412	8552	  000C28   ST      -Y,R18
413	8554	  000C2A   CALL    avmp_handler
		avmp_handler:
414	8558	  00047A   ST      -Y,R19
415	8560	  00047C   POP     R19
416	8562	  00047E   POP     R18
417	8564	  000480   PUSH    R31
418	8566	  000482   PUSH    R30
419	8568	  000484   MOV     R31,R19
420	8569	  000486   MOV     R30,R18
421	8570	  000488   ADD     R30,R16
422	8571	  00048A   ADC     R31,R17
423	8572	  00048C   LSL     R30
424	8573	  00048E   ROL     R31
425	8574	  000490   LSL     R18
426	8575	  000492   ROL     R19
427	8576	  000494   LPM      R16,Z+
428	8579	  000496   LPM      R17,Z
429	8582	  000498   ADD     R18,R16
430	8583	  00049A   ADC     R19,R17
431	8584	  00049C   LSR     R19
432	8585	  00049E   ROR     R18
433	8586	  0004A0   POP     R30
434	8588	  0004A2   POP     R31
435	8590	  0004A4   PUSH    R18
436	8592	  0004A6   PUSH    R19
437	8594	  0004A8   LD      R19,Y+
438	8596	  0004AA   LD      R18,Y+
439	8598	  0004AC   OUT     SREG,R18
440	8599	  0004AE   LD      R18,Y+
441	8601	  0004B0   LD      R16,Y+
442	8603	  0004B2   LD      R17,Y+
443	8605	  0004B4   RET
		??UZeyIHTewGrAhwMSFnpcwAYjPnsRs:
444	8609	  000D9E   STD     Y+1,R16
445	8611	  000DA0   LDI     R16,0x01
446	8612	  000DA2   ST      -Y,R17
447	8614	  000DA4   ST      -Y,R16
448	8616	  000DA6   LDI     R17,0x00
449	8617	  000DA8   LDI     R16,0x08
450	8618	  000DAA   JMP     ??qpQLuPnEUlJCOQbkVsgBFJkeFRkBB
		??qpQLuPnEUlJCOQbkVsgBFJkeFRkBB:
451	8621	  000C24   ST      -Y,R18
452	8623	  000C26   IN      R18,SREG
453	8624	  000C28   ST      -Y,R18
454	8626	  000C2A   CALL    avmp_handler
		avmp_handler:
455	8630	  00047A   ST      -Y,R19
456	8632	  00047C   POP     R19
457	8634	  00047E   POP     R18
458	8636	  000480   PUSH    R31
459	8638	  000482   PUSH    R30
460	8640	  000484   MOV     R31,R19
461	8641	  000486   MOV     R30,R18
462	8642	  000488   ADD     R30,R16
463	8643	  00048A   ADC     R31,R17
464	8644	  00048C   LSL     R30
465	8645	  00048E   ROL     R31
466	8646	  000490   LSL     R18
467	8647	  000492   ROL     R19
468	8648	  000494   LPM      R16,Z+
469	8651	  000496   LPM      R17,Z
470	8654	  000498   ADD     R18,R16
471	8655	  00049A   ADC     R19,R17
472	8656	  00049C   LSR     R19
473	8657	  00049E   ROR     R18
474	8658	  0004A0   POP     R30
475	8660	  0004A2   POP     R31
476	8662	  0004A4   PUSH    R18
477	8664	  0004A6   PUSH    R19
478	8666	  0004A8   LD      R19,Y+
479	8668	  0004AA   LD      R18,Y+
480	8670	  0004AC   OUT     SREG,R18
481	8671	  0004AE   LD      R18,Y+
482	8673	  0004B0   LD      R16,Y+
483	8675	  0004B2   LD      R17,Y+
484	8677	  0004B4   RET
		??mERvxIXNQlHtiPEmDArXRplVPPhqC:
485	8681	  000DAE   LDI     R17,0x00
486	8682	  000DB0   CALL    TestParam1
		TestParam1:
487	8686	  00063E   RET
488	8690	  000DB4   ST      -Y,R17
489	8692	  000DB6   ST      -Y,R16
490	8694	  000DB8   LDI     R17,0x00
491	8695	  000DBA   LDI     R16,0x09
492	8696	  000DBC   JMP     ??qpQLuPnEUlJCOQbkVsgBFJkeFRkBB
		??qpQLuPnEUlJCOQbkVsgBFJkeFRkBB:
493	8699	  000C24   ST      -Y,R18
494	8701	  000C26   IN      R18,SREG
495	8702	  000C28   ST      -Y,R18
496	8704	  000C2A   CALL    avmp_handler
		avmp_handler:
497	8708	  00047A   ST      -Y,R19
498	8710	  00047C   POP     R19
499	8712	  00047E   POP     R18
500	8714	  000480   PUSH    R31
501	8716	  000482   PUSH    R30
502	8718	  000484   MOV     R31,R19
503	8719	  000486   MOV     R30,R18
504	8720	  000488   ADD     R30,R16
505	8721	  00048A   ADC     R31,R17
506	8722	  00048C   LSL     R30
507	8723	  00048E   ROL     R31
508	8724	  000490   LSL     R18
509	8725	  000492   ROL     R19
510	8726	  000494   LPM      R16,Z+
511	8729	  000496   LPM      R17,Z
512	8732	  000498   ADD     R18,R16
513	8733	  00049A   ADC     R19,R17
514	8734	  00049C   LSR     R19
515	8735	  00049E   ROR     R18
516	8736	  0004A0   POP     R30
517	8738	  0004A2   POP     R31
518	8740	  0004A4   PUSH    R18
519	8742	  0004A6   PUSH    R19
520	8744	  0004A8   LD      R19,Y+
521	8746	  0004AA   LD      R18,Y+
522	8748	  0004AC   OUT     SREG,R18
523	8749	  0004AE   LD      R18,Y+
524	8751	  0004B0   LD      R16,Y+
525	8753	  0004B2   LD      R17,Y+
526	8755	  0004B4   RET
		??ltKKShWivzdoftzbsokTKOcIkGZsR:
527	8759	  000DC0   LD      R18,Y
528	8761	  000DC2   LDD     R19,Y+1
529	8763	  000DC4   ST      -Y,R17
530	8765	  000DC6   ST      -Y,R16
531	8767	  000DC8   LDI     R17,0x00
532	8768	  000DCA   LDI     R16,0x0A
533	8769	  000DCC   JMP     ??qpQLuPnEUlJCOQbkVsgBFJkeFRkBB
		??qpQLuPnEUlJCOQbkVsgBFJkeFRkBB:
534	8772	  000C24   ST      -Y,R18
535	8774	  000C26   IN      R18,SREG
536	8775	  000C28   ST      -Y,R18
537	8777	  000C2A   CALL    avmp_handler
		avmp_handler:
538	8781	  00047A   ST      -Y,R19
539	8783	  00047C   POP     R19
540	8785	  00047E   POP     R18
541	8787	  000480   PUSH    R31
542	8789	  000482   PUSH    R30
543	8791	  000484   MOV     R31,R19
544	8792	  000486   MOV     R30,R18
545	8793	  000488   ADD     R30,R16
546	8794	  00048A   ADC     R31,R17
547	8795	  00048C   LSL     R30
548	8796	  00048E   ROL     R31
549	8797	  000490   LSL     R18
550	8798	  000492   ROL     R19
551	8799	  000494   LPM      R16,Z+
552	8802	  000496   LPM      R17,Z
553	8805	  000498   ADD     R18,R16
554	8806	  00049A   ADC     R19,R17
555	8807	  00049C   LSR     R19
556	8808	  00049E   ROR     R18
557	8809	  0004A0   POP     R30
558	8811	  0004A2   POP     R31
559	8813	  0004A4   PUSH    R18
560	8815	  0004A6   PUSH    R19
561	8817	  0004A8   LD      R19,Y+
562	8819	  0004AA   LD      R18,Y+
563	8821	  0004AC   OUT     SREG,R18
564	8822	  0004AE   LD      R18,Y+
565	8824	  0004B0   LD      R16,Y+
566	8826	  0004B2   LD      R17,Y+
567	8828	  0004B4   RET
		??MKVGIpncnBessSQKiEaYMRCUFQvfd:
568	8832	  000DD0   ADD     R18,R16
569	8833	  000DD2   ADC     R19,R17
570	8834	  000DD4   ST      -Y,R17
571	8836	  000DD6   ST      -Y,R16
572	8838	  000DD8   LDI     R17,0x00
573	8839	  000DDA   LDI     R16,0x0B
574	8840	  000DDC   JMP     ??qpQLuPnEUlJCOQbkVsgBFJkeFRkBB
		??qpQLuPnEUlJCOQbkVsgBFJkeFRkBB:
575	8843	  000C24   ST      -Y,R18
576	8845	  000C26   IN      R18,SREG
577	8846	  000C28   ST      -Y,R18
578	8848	  000C2A   CALL    avmp_handler
		avmp_handler:
579	8852	  00047A   ST      -Y,R19
580	8854	  00047C   POP     R19
581	8856	  00047E   POP     R18
582	8858	  000480   PUSH    R31
583	8860	  000482   PUSH    R30
584	8862	  000484   MOV     R31,R19
585	8863	  000486   MOV     R30,R18
586	8864	  000488   ADD     R30,R16
587	8865	  00048A   ADC     R31,R17
588	8866	  00048C   LSL     R30
589	8867	  00048E   ROL     R31
590	8868	  000490   LSL     R18
591	8869	  000492   ROL     R19
592	8870	  000494   LPM      R16,Z+
593	8873	  000496   LPM      R17,Z
594	8876	  000498   ADD     R18,R16
595	8877	  00049A   ADC     R19,R17
596	8878	  00049C   LSR     R19
597	8879	  00049E   ROR     R18
598	8880	  0004A0   POP     R30
599	8882	  0004A2   POP     R31
600	8884	  0004A4   PUSH    R18
601	8886	  0004A6   PUSH    R19
602	8888	  0004A8   LD      R19,Y+
603	8890	  0004AA   LD      R18,Y+
604	8892	  0004AC   OUT     SREG,R18
605	8893	  0004AE   LD      R18,Y+
606	8895	  0004B0   LD      R16,Y+
607	8897	  0004B2   LD      R17,Y+
608	8899	  0004B4   RET
		??fFOLawrfHFshWHPVUGLqKASheeLIo:
609	8903	  000DE0   ST      Y,R18
610	8905	  000DE2   STD     Y+1,R19
611	8907	  000DE4   ST      -Y,R17
612	8909	  000DE6   ST      -Y,R16
613	8911	  000DE8   LDI     R17,0x00
614	8912	  000DEA   LDI     R16,0x0C
615	8913	  000DEC   JMP     ??qpQLuPnEUlJCOQbkVsgBFJkeFRkBB
		??qpQLuPnEUlJCOQbkVsgBFJkeFRkBB:
616	8916	  000C24   ST      -Y,R18
617	8918	  000C26   IN      R18,SREG
618	8919	  000C28   ST      -Y,R18
619	8921	  000C2A   CALL    avmp_handler
		avmp_handler:
620	8925	  00047A   ST      -Y,R19
621	8927	  00047C   POP     R19
622	8929	  00047E   POP     R18
623	8931	  000480   PUSH    R31
624	8933	  000482   PUSH    R30
625	8935	  000484   MOV     R31,R19
626	8936	  000486   MOV     R30,R18
627	8937	  000488   ADD     R30,R16
628	8938	  00048A   ADC     R31,R17
629	8939	  00048C   LSL     R30
630	8940	  00048E   ROL     R31
631	8941	  000490   LSL     R18
632	8942	  000492   ROL     R19
633	8943	  000494   LPM      R16,Z+
634	8946	  000496   LPM      R17,Z
635	8949	  000498   ADD     R18,R16
636	8950	  00049A   ADC     R19,R17
637	8951	  00049C   LSR     R19
638	8952	  00049E   ROR     R18
639	8953	  0004A0   POP     R30
640	8955	  0004A2   POP     R31
641	8957	  0004A4   PUSH    R18
642	8959	  0004A6   PUSH    R19
643	8961	  0004A8   LD      R19,Y+
644	8963	  0004AA   LD      R18,Y+
645	8965	  0004AC   OUT     SREG,R18
646	8966	  0004AE   LD      R18,Y+
647	8968	  0004B0   LD      R16,Y+
648	8970	  0004B2   LD      R17,Y+
649	8972	  0004B4   RET
		??KFthIHMnnRBIALYGDwiegDkcvrqRI:
650	8976	  000DF0   LDI     R18,0x02
651	8977	  000DF2   LDI     R19,0x00
652	8978	  000DF4   ST      -Y,R17
653	8980	  000DF6   ST      -Y,R16
654	8982	  000DF8   LDI     R17,0x00
655	8983	  000DFA   LDI     R16,0x0D
656	8984	  000DFC   JMP     ??qpQLuPnEUlJCOQbkVsgBFJkeFRkBB
		??qpQLuPnEUlJCOQbkVsgBFJkeFRkBB:
657	8987	  000C24   ST      -Y,R18
658	8989	  000C26   IN      R18,SREG
659	8990	  000C28   ST      -Y,R18
660	8992	  000C2A   CALL    avmp_handler
		avmp_handler:
661	8996	  00047A   ST      -Y,R19
662	8998	  00047C   POP     R19
663	9000	  00047E   POP     R18
664	9002	  000480   PUSH    R31
665	9004	  000482   PUSH    R30
666	9006	  000484   MOV     R31,R19
667	9007	  000486   MOV     R30,R18
668	9008	  000488   ADD     R30,R16
669	9009	  00048A   ADC     R31,R17
670	9010	  00048C   LSL     R30
671	9011	  00048E   ROL     R31
672	9012	  000490   LSL     R18
673	9013	  000492   ROL     R19
674	9014	  000494   LPM      R16,Z+
675	9017	  000496   LPM      R17,Z
676	9020	  000498   ADD     R18,R16
677	9021	  00049A   ADC     R19,R17
678	9022	  00049C   LSR     R19
679	9023	  00049E   ROR     R18
680	9024	  0004A0   POP     R30
681	9026	  0004A2   POP     R31
682	9028	  0004A4   PUSH    R18
683	9030	  0004A6   PUSH    R19
684	9032	  0004A8   LD      R19,Y+
685	9034	  0004AA   LD      R18,Y+
686	9036	  0004AC   OUT     SREG,R18
687	9037	  0004AE   LD      R18,Y+
688	9039	  0004B0   LD      R16,Y+
689	9041	  0004B2   LD      R17,Y+
690	9043	  0004B4   RET
		??KLbpGkEkMtofdagkdOwiXgEXJDqEg:
691	9047	  000E00   LDI     R16,0x01
692	9048	  000E02   LDI     R17,0x00
693	9049	  000E04   ST      -Y,R17
694	9051	  000E06   ST      -Y,R16
695	9053	  000E08   LDI     R17,0x00
696	9054	  000E0A   LDI     R16,0x0E
697	9055	  000E0C   JMP     ??qpQLuPnEUlJCOQbkVsgBFJkeFRkBB
		??qpQLuPnEUlJCOQbkVsgBFJkeFRkBB:
698	9058	  000C24   ST      -Y,R18
699	9060	  000C26   IN      R18,SREG
700	9061	  000C28   ST      -Y,R18
701	9063	  000C2A   CALL    avmp_handler
		avmp_handler:
702	9067	  00047A   ST      -Y,R19
703	9069	  00047C   POP     R19
704	9071	  00047E   POP     R18
705	9073	  000480   PUSH    R31
706	9075	  000482   PUSH    R30
707	9077	  000484   MOV     R31,R19
708	9078	  000486   MOV     R30,R18
709	9079	  000488   ADD     R30,R16
710	9080	  00048A   ADC     R31,R17
711	9081	  00048C   LSL     R30
712	9082	  00048E   ROL     R31
713	9083	  000490   LSL     R18
714	9084	  000492   ROL     R19
715	9085	  000494   LPM      R16,Z+
716	9088	  000496   LPM      R17,Z
717	9091	  000498   ADD     R18,R16
718	9092	  00049A   ADC     R19,R17
719	9093	  00049C   LSR     R19
720	9094	  00049E   ROR     R18
721	9095	  0004A0   POP     R30
722	9097	  0004A2   POP     R31
723	9099	  0004A4   PUSH    R18
724	9101	  0004A6   PUSH    R19
725	9103	  0004A8   LD      R19,Y+
726	9105	  0004AA   LD      R18,Y+
727	9107	  0004AC   OUT     SREG,R18
728	9108	  0004AE   LD      R18,Y+
729	9110	  0004B0   LD      R16,Y+
730	9112	  0004B2   LD      R17,Y+
731	9114	  0004B4   RET
		??pxPFRdqLVnOQcImwEGzVChvArupdQ:
732	9118	  000E10   CALL    TestParam2
		TestParam2:
733	9122	  000640   ST      -Y,R17
734	9124	  000642   ST      -Y,R16
735	9126	  000644   LDI     R17,0x00
736	9127	  000646   LDI     R16,0x01
		??crTydNqLzTpETTZgpmOTOJxlRVvIO:
737	9128	  000648   ST      -Y,R18
738	9130	  00064A   IN      R18,SREG
739	9131	  00064C   ST      -Y,R18
740	9133	  00064E   CALL    avmp_handler
		avmp_handler:
741	9137	  00047A   ST      -Y,R19
742	9139	  00047C   POP     R19
743	9141	  00047E   POP     R18
744	9143	  000480   PUSH    R31
745	9145	  000482   PUSH    R30
746	9147	  000484   MOV     R31,R19
747	9148	  000486   MOV     R30,R18
748	9149	  000488   ADD     R30,R16
749	9150	  00048A   ADC     R31,R17
750	9151	  00048C   LSL     R30
751	9152	  00048E   ROL     R31
752	9153	  000490   LSL     R18
753	9154	  000492   ROL     R19
754	9155	  000494   LPM      R16,Z+
755	9158	  000496   LPM      R17,Z
756	9161	  000498   ADD     R18,R16
757	9162	  00049A   ADC     R19,R17
758	9163	  00049C   LSR     R19
759	9164	  00049E   ROR     R18
760	9165	  0004A0   POP     R30
761	9167	  0004A2   POP     R31
762	9169	  0004A4   PUSH    R18
763	9171	  0004A6   PUSH    R19
764	9173	  0004A8   LD      R19,Y+
765	9175	  0004AA   LD      R18,Y+
766	9177	  0004AC   OUT     SREG,R18
767	9178	  0004AE   LD      R18,Y+
768	9180	  0004B0   LD      R16,Y+
769	9182	  0004B2   LD      R17,Y+
770	9184	  0004B4   RET
		??fyLyXhAjkTsTjjsqAnAuBhYOmCKae:
771	9188	  000658   ADD     R16,R18
772	9189	  00065A   ADC     R17,R19
773	9190	  00065C   ST      -Y,R17
774	9192	  00065E   ST      -Y,R16
775	9194	  000660   LDI     R17,0x00
776	9195	  000662   LDI     R16,0x02
777	9196	  000664   JMP     ??crTydNqLzTpETTZgpmOTOJxlRVvIO
		??crTydNqLzTpETTZgpmOTOJxlRVvIO:
778	9199	  000648   ST      -Y,R18
779	9201	  00064A   IN      R18,SREG
780	9202	  00064C   ST      -Y,R18
781	9204	  00064E   CALL    avmp_handler
		avmp_handler:
782	9208	  00047A   ST      -Y,R19
783	9210	  00047C   POP     R19
784	9212	  00047E   POP     R18
785	9214	  000480   PUSH    R31
786	9216	  000482   PUSH    R30
787	9218	  000484   MOV     R31,R19
788	9219	  000486   MOV     R30,R18
789	9220	  000488   ADD     R30,R16
790	9221	  00048A   ADC     R31,R17
791	9222	  00048C   LSL     R30
792	9223	  00048E   ROL     R31
793	9224	  000490   LSL     R18
794	9225	  000492   ROL     R19
795	9226	  000494   LPM      R16,Z+
796	9229	  000496   LPM      R17,Z
797	9232	  000498   ADD     R18,R16
798	9233	  00049A   ADC     R19,R17
799	9234	  00049C   LSR     R19
800	9235	  00049E   ROR     R18
801	9236	  0004A0   POP     R30
802	9238	  0004A2   POP     R31
803	9240	  0004A4   PUSH    R18
804	9242	  0004A6   PUSH    R19
805	9244	  0004A8   LD      R19,Y+
806	9246	  0004AA   LD      R18,Y+
807	9248	  0004AC   OUT     SREG,R18
808	9249	  0004AE   LD      R18,Y+
809	9251	  0004B0   LD      R16,Y+
810	9253	  0004B2   LD      R17,Y+
811	9255	  0004B4   RET
		??mWNsXGXFxPAtLSbtHmqFNpbOYzDDc:
812	9259	  000668   RET
813	9263	  000E14   LD      R18,Y
814	9265	  000E16   ST      -Y,R17
815	9267	  000E18   ST      -Y,R16
816	9269	  000E1A   LDI     R17,0x00
817	9270	  000E1C   LDI     R16,0x0F
818	9271	  000E1E   JMP     ??qpQLuPnEUlJCOQbkVsgBFJkeFRkBB
		??qpQLuPnEUlJCOQbkVsgBFJkeFRkBB:
819	9274	  000C24   ST      -Y,R18
820	9276	  000C26   IN      R18,SREG
821	9277	  000C28   ST      -Y,R18
822	9279	  000C2A   CALL    avmp_handler
		avmp_handler:
823	9283	  00047A   ST      -Y,R19
824	9285	  00047C   POP     R19
825	9287	  00047E   POP     R18
826	9289	  000480   PUSH    R31
827	9291	  000482   PUSH    R30
828	9293	  000484   MOV     R31,R19
829	9294	  000486   MOV     R30,R18
830	9295	  000488   ADD     R30,R16
831	9296	  00048A   ADC     R31,R17
832	9297	  00048C   LSL     R30
833	9298	  00048E   ROL     R31
834	9299	  000490   LSL     R18
835	9300	  000492   ROL     R19
836	9301	  000494   LPM      R16,Z+
837	9304	  000496   LPM      R17,Z
838	9307	  000498   ADD     R18,R16
839	9308	  00049A   ADC     R19,R17
840	9309	  00049C   LSR     R19
841	9310	  00049E   ROR     R18
842	9311	  0004A0   POP     R30
843	9313	  0004A2   POP     R31
844	9315	  0004A4   PUSH    R18
845	9317	  0004A6   PUSH    R19
846	9319	  0004A8   LD      R19,Y+
847	9321	  0004AA   LD      R18,Y+
848	9323	  0004AC   OUT     SREG,R18
849	9324	  0004AE   LD      R18,Y+
850	9326	  0004B0   LD      R16,Y+
851	9328	  0004B2   LD      R17,Y+
852	9330	  0004B4   RET
		??JaizgRHPWJhaSWOYbuhkRxAnNZCiR:
853	9334	  000E22   LDD     R19,Y+1
854	9336	  000E24   ADD     R18,R16
855	9337	  000E26   ST      -Y,R17
856	9339	  000E28   ST      -Y,R16
857	9341	  000E2A   LDI     R17,0x00
858	9342	  000E2C   LDI     R16,0x10
859	9343	  000E2E   JMP     ??qpQLuPnEUlJCOQbkVsgBFJkeFRkBB
		??qpQLuPnEUlJCOQbkVsgBFJkeFRkBB:
860	9346	  000C24   ST      -Y,R18
861	9348	  000C26   IN      R18,SREG
862	9349	  000C28   ST      -Y,R18
863	9351	  000C2A   CALL    avmp_handler
		avmp_handler:
864	9355	  00047A   ST      -Y,R19
865	9357	  00047C   POP     R19
866	9359	  00047E   POP     R18
867	9361	  000480   PUSH    R31
868	9363	  000482   PUSH    R30
869	9365	  000484   MOV     R31,R19
870	9366	  000486   MOV     R30,R18
871	9367	  000488   ADD     R30,R16
872	9368	  00048A   ADC     R31,R17
873	9369	  00048C   LSL     R30
874	9370	  00048E   ROL     R31
875	9371	  000490   LSL     R18
876	9372	  000492   ROL     R19
877	9373	  000494   LPM      R16,Z+
878	9376	  000496   LPM      R17,Z
879	9379	  000498   ADD     R18,R16
880	9380	  00049A   ADC     R19,R17
881	9381	  00049C   LSR     R19
882	9382	  00049E   ROR     R18
883	9383	  0004A0   POP     R30
884	9385	  0004A2   POP     R31
885	9387	  0004A4   PUSH    R18
886	9389	  0004A6   PUSH    R19
887	9391	  0004A8   LD      R19,Y+
888	9393	  0004AA   LD      R18,Y+
889	9395	  0004AC   OUT     SREG,R18
890	9396	  0004AE   LD      R18,Y+
891	9398	  0004B0   LD      R16,Y+
892	9400	  0004B2   LD      R17,Y+
893	9402	  0004B4   RET
		??uuinDxBUXSDSFHMyuNBssYvWnniNi:
894	9406	  000E32   ADC     R19,R17
895	9407	  000E34   ST      Y,R18
896	9409	  000E36   ST      -Y,R17
897	9411	  000E38   ST      -Y,R16
898	9413	  000E3A   LDI     R17,0x00
899	9414	  000E3C   LDI     R16,0x11
900	9415	  000E3E   JMP     ??qpQLuPnEUlJCOQbkVsgBFJkeFRkBB
		??qpQLuPnEUlJCOQbkVsgBFJkeFRkBB:
901	9418	  000C24   ST      -Y,R18
902	9420	  000C26   IN      R18,SREG
903	9421	  000C28   ST      -Y,R18
904	9423	  000C2A   CALL    avmp_handler
		avmp_handler:
905	9427	  00047A   ST      -Y,R19
906	9429	  00047C   POP     R19
907	9431	  00047E   POP     R18
908	9433	  000480   PUSH    R31
909	9435	  000482   PUSH    R30
910	9437	  000484   MOV     R31,R19
911	9438	  000486   MOV     R30,R18
912	9439	  000488   ADD     R30,R16
913	9440	  00048A   ADC     R31,R17
914	9441	  00048C   LSL     R30
915	9442	  00048E   ROL     R31
916	9443	  000490   LSL     R18
917	9444	  000492   ROL     R19
918	9445	  000494   LPM      R16,Z+
919	9448	  000496   LPM      R17,Z
920	9451	  000498   ADD     R18,R16
921	9452	  00049A   ADC     R19,R17
922	9453	  00049C   LSR     R19
923	9454	  00049E   ROR     R18
924	9455	  0004A0   POP     R30
925	9457	  0004A2   POP     R31
926	9459	  0004A4   PUSH    R18
927	9461	  0004A6   PUSH    R19
928	9463	  0004A8   LD      R19,Y+
929	9465	  0004AA   LD      R18,Y+
930	9467	  0004AC   OUT     SREG,R18
931	9468	  0004AE   LD      R18,Y+
932	9470	  0004B0   LD      R16,Y+
933	9472	  0004B2   LD      R17,Y+
934	9474	  0004B4   RET
		??uhRfbkKbhOLCMbNNGPEqTTQHmUTVb:
935	9478	  000E42   STD     Y+1,R19
936	9480	  000E44   LDI     R20,0x03
937	9481	  000E46   ST      -Y,R17
938	9483	  000E48   ST      -Y,R16
939	9485	  000E4A   LDI     R17,0x00
940	9486	  000E4C   LDI     R16,0x12
941	9487	  000E4E   JMP     ??qpQLuPnEUlJCOQbkVsgBFJkeFRkBB
		??qpQLuPnEUlJCOQbkVsgBFJkeFRkBB:
942	9490	  000C24   ST      -Y,R18
943	9492	  000C26   IN      R18,SREG
944	9493	  000C28   ST      -Y,R18
945	9495	  000C2A   CALL    avmp_handler
		avmp_handler:
946	9499	  00047A   ST      -Y,R19
947	9501	  00047C   POP     R19
948	9503	  00047E   POP     R18
949	9505	  000480   PUSH    R31
950	9507	  000482   PUSH    R30
951	9509	  000484   MOV     R31,R19
952	9510	  000486   MOV     R30,R18
953	9511	  000488   ADD     R30,R16
954	9512	  00048A   ADC     R31,R17
955	9513	  00048C   LSL     R30
956	9514	  00048E   ROL     R31
957	9515	  000490   LSL     R18
958	9516	  000492   ROL     R19
959	9517	  000494   LPM      R16,Z+
960	9520	  000496   LPM      R17,Z
961	9523	  000498   ADD     R18,R16
962	9524	  00049A   ADC     R19,R17
963	9525	  00049C   LSR     R19
964	9526	  00049E   ROR     R18
965	9527	  0004A0   POP     R30
966	9529	  0004A2   POP     R31
967	9531	  0004A4   PUSH    R18
968	9533	  0004A6   PUSH    R19
969	9535	  0004A8   LD      R19,Y+
970	9537	  0004AA   LD      R18,Y+
971	9539	  0004AC   OUT     SREG,R18
972	9540	  0004AE   LD      R18,Y+
973	9542	  0004B0   LD      R16,Y+
974	9544	  0004B2   LD      R17,Y+
975	9546	  0004B4   RET
		??XESBuiFfyKuwzWIqKAotfVophQPGg:
976	9550	  000E52   LDI     R21,0x00
977	9551	  000E54   LDI     R18,0x02
978	9552	  000E56   ST      -Y,R17
979	9554	  000E58   ST      -Y,R16
980	9556	  000E5A   LDI     R17,0x00
981	9557	  000E5C   LDI     R16,0x13
982	9558	  000E5E   JMP     ??qpQLuPnEUlJCOQbkVsgBFJkeFRkBB
		??qpQLuPnEUlJCOQbkVsgBFJkeFRkBB:
983	9561	  000C24   ST      -Y,R18
984	9563	  000C26   IN      R18,SREG
985	9564	  000C28   ST      -Y,R18
986	9566	  000C2A   CALL    avmp_handler
		avmp_handler:
987	9570	  00047A   ST      -Y,R19
988	9572	  00047C   POP     R19
989	9574	  00047E   POP     R18
990	9576	  000480   PUSH    R31
991	9578	  000482   PUSH    R30
992	9580	  000484   MOV     R31,R19
993	9581	  000486   MOV     R30,R18
994	9582	  000488   ADD     R30,R16
995	9583	  00048A   ADC     R31,R17
996	9584	  00048C   LSL     R30
997	9585	  00048E   ROL     R31
998	9586	  000490   LSL     R18
999	9587	  000492   ROL     R19
1000	9588	  000494   LPM      R16,Z+
1001	9591	  000496   LPM      R17,Z
1002	9594	  000498   ADD     R18,R16
1003	9595	  00049A   ADC     R19,R17
1004	9596	  00049C   LSR     R19
1005	9597	  00049E   ROR     R18
1006	9598	  0004A0   POP     R30
1007	9600	  0004A2   POP     R31
1008	9602	  0004A4   PUSH    R18
1009	9604	  0004A6   PUSH    R19
1010	9606	  0004A8   LD      R19,Y+
1011	9608	  0004AA   LD      R18,Y+
1012	9610	  0004AC   OUT     SREG,R18
1013	9611	  0004AE   LD      R18,Y+
1014	9613	  0004B0   LD      R16,Y+
1015	9615	  0004B2   LD      R17,Y+
1016	9617	  0004B4   RET
		??AGWMKHqHpNWUqNtPKZvyHeOwkUmZZ:
1017	9621	  000E62   LDI     R19,0x00
1018	9622	  000E64   LDI     R16,0x01
1019	9623	  000E66   ST      -Y,R17
1020	9625	  000E68   ST      -Y,R16
1021	9627	  000E6A   LDI     R17,0x00
1022	9628	  000E6C   LDI     R16,0x14
1023	9629	  000E6E   JMP     ??qpQLuPnEUlJCOQbkVsgBFJkeFRkBB
		??qpQLuPnEUlJCOQbkVsgBFJkeFRkBB:
1024	9632	  000C24   ST      -Y,R18
1025	9634	  000C26   IN      R18,SREG
1026	9635	  000C28   ST      -Y,R18
1027	9637	  000C2A   CALL    avmp_handler
		avmp_handler:
1028	9641	  00047A   ST      -Y,R19
1029	9643	  00047C   POP     R19
1030	9645	  00047E   POP     R18
1031	9647	  000480   PUSH    R31
1032	9649	  000482   PUSH    R30
1033	9651	  000484   MOV     R31,R19
1034	9652	  000486   MOV     R30,R18
1035	9653	  000488   ADD     R30,R16
1036	9654	  00048A   ADC     R31,R17
1037	9655	  00048C   LSL     R30
1038	9656	  00048E   ROL     R31
1039	9657	  000490   LSL     R18
1040	9658	  000492   ROL     R19
1041	9659	  000494   LPM      R16,Z+
1042	9662	  000496   LPM      R17,Z
1043	9665	  000498   ADD     R18,R16
1044	9666	  00049A   ADC     R19,R17
1045	9667	  00049C   LSR     R19
1046	9668	  00049E   ROR     R18
1047	9669	  0004A0   POP     R30
1048	9671	  0004A2   POP     R31
1049	9673	  0004A4   PUSH    R18
1050	9675	  0004A6   PUSH    R19
1051	9677	  0004A8   LD      R19,Y+
1052	9679	  0004AA   LD      R18,Y+
1053	9681	  0004AC   OUT     SREG,R18
1054	9682	  0004AE   LD      R18,Y+
1055	9684	  0004B0   LD      R16,Y+
1056	9686	  0004B2   LD      R17,Y+
1057	9688	  0004B4   RET
		??hTLsKTyyvThMqzwSGlgLjqCtTjKQj:
1058	9692	  000E72   LDI     R17,0x00
1059	9693	  000E74   CALL    TestParam3
		TestParam3:
1060	9697	  00066A   ST      -Y,R17
1061	9699	  00066C   ST      -Y,R16
1062	9701	  00066E   LDI     R17,0x00
1063	9702	  000670   LDI     R16,0x01
		??OReDUWjEtPGAPLncpnGVutRLZojta:
1064	9703	  000672   ST      -Y,R18
1065	9705	  000674   IN      R18,SREG
1066	9706	  000676   ST      -Y,R18
1067	9708	  000678   CALL    avmp_handler
		avmp_handler:
1068	9712	  00047A   ST      -Y,R19
1069	9714	  00047C   POP     R19
1070	9716	  00047E   POP     R18
1071	9718	  000480   PUSH    R31
1072	9720	  000482   PUSH    R30
1073	9722	  000484   MOV     R31,R19
1074	9723	  000486   MOV     R30,R18
1075	9724	  000488   ADD     R30,R16
1076	9725	  00048A   ADC     R31,R17
1077	9726	  00048C   LSL     R30
1078	9727	  00048E   ROL     R31
1079	9728	  000490   LSL     R18
1080	9729	  000492   ROL     R19
1081	9730	  000494   LPM      R16,Z+
1082	9733	  000496   LPM      R17,Z
1083	9736	  000498   ADD     R18,R16
1084	9737	  00049A   ADC     R19,R17
1085	9738	  00049C   LSR     R19
1086	9739	  00049E   ROR     R18
1087	9740	  0004A0   POP     R30
1088	9742	  0004A2   POP     R31
1089	9744	  0004A4   PUSH    R18
1090	9746	  0004A6   PUSH    R19
1091	9748	  0004A8   LD      R19,Y+
1092	9750	  0004AA   LD      R18,Y+
1093	9752	  0004AC   OUT     SREG,R18
1094	9753	  0004AE   LD      R18,Y+
1095	9755	  0004B0   LD      R16,Y+
1096	9757	  0004B2   LD      R17,Y+
1097	9759	  0004B4   RET
		??fpjIGLsyzpIqxQCnDWAbknmrmQJSH:
1098	9763	  000684   ADD     R16,R18
1099	9764	  000686   ADC     R17,R19
1100	9765	  000688   ST      -Y,R17
1101	9767	  00068A   ST      -Y,R16
1102	9769	  00068C   LDI     R17,0x00
1103	9770	  00068E   LDI     R16,0x02
1104	9771	  000690   JMP     ??OReDUWjEtPGAPLncpnGVutRLZojta
		??OReDUWjEtPGAPLncpnGVutRLZojta:
1105	9774	  000672   ST      -Y,R18
1106	9776	  000674   IN      R18,SREG
1107	9777	  000676   ST      -Y,R18
1108	9779	  000678   CALL    avmp_handler
		avmp_handler:
1109	9783	  00047A   ST      -Y,R19
1110	9785	  00047C   POP     R19
1111	9787	  00047E   POP     R18
1112	9789	  000480   PUSH    R31
1113	9791	  000482   PUSH    R30
1114	9793	  000484   MOV     R31,R19
1115	9794	  000486   MOV     R30,R18
1116	9795	  000488   ADD     R30,R16
1117	9796	  00048A   ADC     R31,R17
1118	9797	  00048C   LSL     R30
1119	9798	  00048E   ROL     R31
1120	9799	  000490   LSL     R18
1121	9800	  000492   ROL     R19
1122	9801	  000494   LPM      R16,Z+
1123	9804	  000496   LPM      R17,Z
1124	9807	  000498   ADD     R18,R16
1125	9808	  00049A   ADC     R19,R17
1126	9809	  00049C   LSR     R19
1127	9810	  00049E   ROR     R18
1128	9811	  0004A0   POP     R30
1129	9813	  0004A2   POP     R31
1130	9815	  0004A4   PUSH    R18
1131	9817	  0004A6   PUSH    R19
1132	9819	  0004A8   LD      R19,Y+
1133	9821	  0004AA   LD      R18,Y+
1134	9823	  0004AC   OUT     SREG,R18
1135	9824	  0004AE   LD      R18,Y+
1136	9826	  0004B0   LD      R16,Y+
1137	9828	  0004B2   LD      R17,Y+
1138	9830	  0004B4   RET
		??FYLcbyiQaJlnKIwJQggQxBJoaksWu:
1139	9834	  000694   ADD     R16,R20
1140	9835	  000696   ADC     R17,R21
1141	9836	  000698   ST      -Y,R17
1142	9838	  00069A   ST      -Y,R16
1143	9840	  00069C   LDI     R17,0x00
1144	9841	  00069E   LDI     R16,0x03
1145	9842	  0006A0   JMP     ??OReDUWjEtPGAPLncpnGVutRLZojta
		??OReDUWjEtPGAPLncpnGVutRLZojta:
1146	9845	  000672   ST      -Y,R18
1147	9847	  000674   IN      R18,SREG
1148	9848	  000676   ST      -Y,R18
1149	9850	  000678   CALL    avmp_handler
		avmp_handler:
1150	9854	  00047A   ST      -Y,R19
1151	9856	  00047C   POP     R19
1152	9858	  00047E   POP     R18
1153	9860	  000480   PUSH    R31
1154	9862	  000482   PUSH    R30
1155	9864	  000484   MOV     R31,R19
1156	9865	  000486   MOV     R30,R18
1157	9866	  000488   ADD     R30,R16
1158	9867	  00048A   ADC     R31,R17
1159	9868	  00048C   LSL     R30
1160	9869	  00048E   ROL     R31
1161	9870	  000490   LSL     R18
1162	9871	  000492   ROL     R19
1163	9872	  000494   LPM      R16,Z+
1164	9875	  000496   LPM      R17,Z
1165	9878	  000498   ADD     R18,R16
1166	9879	  00049A   ADC     R19,R17
1167	9880	  00049C   LSR     R19
1168	9881	  00049E   ROR     R18
1169	9882	  0004A0   POP     R30
1170	9884	  0004A2   POP     R31
1171	9886	  0004A4   PUSH    R18
1172	9888	  0004A6   PUSH    R19
1173	9890	  0004A8   LD      R19,Y+
1174	9892	  0004AA   LD      R18,Y+
1175	9894	  0004AC   OUT     SREG,R18
1176	9895	  0004AE   LD      R18,Y+
1177	9897	  0004B0   LD      R16,Y+
1178	9899	  0004B2   LD      R17,Y+
1179	9901	  0004B4   RET
		??DuxlsvTcNIVQSuZJxYaCSCetvQhzo:
1180	9905	  0006A4   RET
1181	9909	  000E78   ST      -Y,R17
1182	9911	  000E7A   ST      -Y,R16
1183	9913	  000E7C   LDI     R17,0x00
1184	9914	  000E7E   LDI     R16,0x15
1185	9915	  000E80   JMP     ??qpQLuPnEUlJCOQbkVsgBFJkeFRkBB
		??qpQLuPnEUlJCOQbkVsgBFJkeFRkBB:
1186	9918	  000C24   ST      -Y,R18
1187	9920	  000C26   IN      R18,SREG
1188	9921	  000C28   ST      -Y,R18
1189	9923	  000C2A   CALL    avmp_handler
		avmp_handler:
1190	9927	  00047A   ST      -Y,R19
1191	9929	  00047C   POP     R19
1192	9931	  00047E   POP     R18
1193	9933	  000480   PUSH    R31
1194	9935	  000482   PUSH    R30
1195	9937	  000484   MOV     R31,R19
1196	9938	  000486   MOV     R30,R18
1197	9939	  000488   ADD     R30,R16
1198	9940	  00048A   ADC     R31,R17
1199	9941	  00048C   LSL     R30
1200	9942	  00048E   ROL     R31
1201	9943	  000490   LSL     R18
1202	9944	  000492   ROL     R19
1203	9945	  000494   LPM      R16,Z+
1204	9948	  000496   LPM      R17,Z
1205	9951	  000498   ADD     R18,R16
1206	9952	  00049A   ADC     R19,R17
1207	9953	  00049C   LSR     R19
1208	9954	  00049E   ROR     R18
1209	9955	  0004A0   POP     R30
1210	9957	  0004A2   POP     R31
1211	9959	  0004A4   PUSH    R18
1212	9961	  0004A6   PUSH    R19
1213	9963	  0004A8   LD      R19,Y+
1214	9965	  0004AA   LD      R18,Y+
1215	9967	  0004AC   OUT     SREG,R18
1216	9968	  0004AE   LD      R18,Y+
1217	9970	  0004B0   LD      R16,Y+
1218	9972	  0004B2   LD      R17,Y+
1219	9974	  0004B4   RET
		??bvfGDbwJxAuCWcWqDgAmAGEPDttdl:
1220	9978	  000E84   LD      R18,Y
1221	9980	  000E86   LDD     R19,Y+1
1222	9982	  000E88   ST      -Y,R17
1223	9984	  000E8A   ST      -Y,R16
1224	9986	  000E8C   LDI     R17,0x00
1225	9987	  000E8E   LDI     R16,0x16
1226	9988	  000E90   JMP     ??qpQLuPnEUlJCOQbkVsgBFJkeFRkBB
		??qpQLuPnEUlJCOQbkVsgBFJkeFRkBB:
1227	9991	  000C24   ST      -Y,R18
1228	9993	  000C26   IN      R18,SREG
1229	9994	  000C28   ST      -Y,R18
1230	9996	  000C2A   CALL    avmp_handler
		avmp_handler:
1231	10000	  00047A   ST      -Y,R19
1232	10002	  00047C   POP     R19
1233	10004	  00047E   POP     R18
1234	10006	  000480   PUSH    R31
1235	10008	  000482   PUSH    R30
1236	10010	  000484   MOV     R31,R19
1237	10011	  000486   MOV     R30,R18
1238	10012	  000488   ADD     R30,R16
1239	10013	  00048A   ADC     R31,R17
1240	10014	  00048C   LSL     R30
1241	10015	  00048E   ROL     R31
1242	10016	  000490   LSL     R18
1243	10017	  000492   ROL     R19
1244	10018	  000494   LPM      R16,Z+
1245	10021	  000496   LPM      R17,Z
1246	10024	  000498   ADD     R18,R16
1247	10025	  00049A   ADC     R19,R17
1248	10026	  00049C   LSR     R19
1249	10027	  00049E   ROR     R18
1250	10028	  0004A0   POP     R30
1251	10030	  0004A2   POP     R31
1252	10032	  0004A4   PUSH    R18
1253	10034	  0004A6   PUSH    R19
1254	10036	  0004A8   LD      R19,Y+
1255	10038	  0004AA   LD      R18,Y+
1256	10040	  0004AC   OUT     SREG,R18
1257	10041	  0004AE   LD      R18,Y+
1258	10043	  0004B0   LD      R16,Y+
1259	10045	  0004B2   LD      R17,Y+
1260	10047	  0004B4   RET
		??JDxQkqAGQFypCEmQkTdqgUpiLCOUP:
1261	10051	  000E94   ADD     R18,R16
1262	10052	  000E96   ADC     R19,R17
1263	10053	  000E98   ST      -Y,R17
1264	10055	  000E9A   ST      -Y,R16
1265	10057	  000E9C   LDI     R17,0x00
1266	10058	  000E9E   LDI     R16,0x17
1267	10059	  000EA0   JMP     ??qpQLuPnEUlJCOQbkVsgBFJkeFRkBB
		??qpQLuPnEUlJCOQbkVsgBFJkeFRkBB:
1268	10062	  000C24   ST      -Y,R18
1269	10064	  000C26   IN      R18,SREG
1270	10065	  000C28   ST      -Y,R18
1271	10067	  000C2A   CALL    avmp_handler
		avmp_handler:
1272	10071	  00047A   ST      -Y,R19
1273	10073	  00047C   POP     R19
1274	10075	  00047E   POP     R18
1275	10077	  000480   PUSH    R31
1276	10079	  000482   PUSH    R30
1277	10081	  000484   MOV     R31,R19
1278	10082	  000486   MOV     R30,R18
1279	10083	  000488   ADD     R30,R16
1280	10084	  00048A   ADC     R31,R17
1281	10085	  00048C   LSL     R30
1282	10086	  00048E   ROL     R31
1283	10087	  000490   LSL     R18
1284	10088	  000492   ROL     R19
1285	10089	  000494   LPM      R16,Z+
1286	10092	  000496   LPM      R17,Z
1287	10095	  000498   ADD     R18,R16
1288	10096	  00049A   ADC     R19,R17
1289	10097	  00049C   LSR     R19
1290	10098	  00049E   ROR     R18
1291	10099	  0004A0   POP     R30
1292	10101	  0004A2   POP     R31
1293	10103	  0004A4   PUSH    R18
1294	10105	  0004A6   PUSH    R19
1295	10107	  0004A8   LD      R19,Y+
1296	10109	  0004AA   LD      R18,Y+
1297	10111	  0004AC   OUT     SREG,R18
1298	10112	  0004AE   LD      R18,Y+
1299	10114	  0004B0   LD      R16,Y+
1300	10116	  0004B2   LD      R17,Y+
1301	10118	  0004B4   RET
		??fCdlwMmwvoTBrkwaNslMZiAivvVbi:
1302	10122	  000EA4   ST      Y,R18
1303	10124	  000EA6   STD     Y+1,R19
1304	10126	  000EA8   ST      -Y,R17
1305	10128	  000EAA   ST      -Y,R16
1306	10130	  000EAC   LDI     R17,0x00
1307	10131	  000EAE   LDI     R16,0x18
1308	10132	  000EB0   JMP     ??qpQLuPnEUlJCOQbkVsgBFJkeFRkBB
		??qpQLuPnEUlJCOQbkVsgBFJkeFRkBB:
1309	10135	  000C24   ST      -Y,R18
1310	10137	  000C26   IN      R18,SREG
1311	10138	  000C28   ST      -Y,R18
1312	10140	  000C2A   CALL    avmp_handler
		avmp_handler:
1313	10144	  00047A   ST      -Y,R19
1314	10146	  00047C   POP     R19
1315	10148	  00047E   POP     R18
1316	10150	  000480   PUSH    R31
1317	10152	  000482   PUSH    R30
1318	10154	  000484   MOV     R31,R19
1319	10155	  000486   MOV     R30,R18
1320	10156	  000488   ADD     R30,R16
1321	10157	  00048A   ADC     R31,R17
1322	10158	  00048C   LSL     R30
1323	10159	  00048E   ROL     R31
1324	10160	  000490   LSL     R18
1325	10161	  000492   ROL     R19
1326	10162	  000494   LPM      R16,Z+
1327	10165	  000496   LPM      R17,Z
1328	10168	  000498   ADD     R18,R16
1329	10169	  00049A   ADC     R19,R17
1330	10170	  00049C   LSR     R19
1331	10171	  00049E   ROR     R18
1332	10172	  0004A0   POP     R30
1333	10174	  0004A2   POP     R31
1334	10176	  0004A4   PUSH    R18
1335	10178	  0004A6   PUSH    R19
1336	10180	  0004A8   LD      R19,Y+
1337	10182	  0004AA   LD      R18,Y+
1338	10184	  0004AC   OUT     SREG,R18
1339	10185	  0004AE   LD      R18,Y+
1340	10187	  0004B0   LD      R16,Y+
1341	10189	  0004B2   LD      R17,Y+
1342	10191	  0004B4   RET
		??BIUCeKXTHHfeATkumFQWzsFonayIp:
1343	10195	  000EB4   LDI     R22,0x04
1344	10196	  000EB6   LDI     R23,0x00
1345	10197	  000EB8   ST      -Y,R17
1346	10199	  000EBA   ST      -Y,R16
1347	10201	  000EBC   LDI     R17,0x00
1348	10202	  000EBE   LDI     R16,0x19
1349	10203	  000EC0   JMP     ??qpQLuPnEUlJCOQbkVsgBFJkeFRkBB
		??qpQLuPnEUlJCOQbkVsgBFJkeFRkBB:
1350	10206	  000C24   ST      -Y,R18
1351	10208	  000C26   IN      R18,SREG
1352	10209	  000C28   ST      -Y,R18
1353	10211	  000C2A   CALL    avmp_handler
		avmp_handler:
1354	10215	  00047A   ST      -Y,R19
1355	10217	  00047C   POP     R19
1356	10219	  00047E   POP     R18
1357	10221	  000480   PUSH    R31
1358	10223	  000482   PUSH    R30
1359	10225	  000484   MOV     R31,R19
1360	10226	  000486   MOV     R30,R18
1361	10227	  000488   ADD     R30,R16
1362	10228	  00048A   ADC     R31,R17
1363	10229	  00048C   LSL     R30
1364	10230	  00048E   ROL     R31
1365	10231	  000490   LSL     R18
1366	10232	  000492   ROL     R19
1367	10233	  000494   LPM      R16,Z+
1368	10236	  000496   LPM      R17,Z
1369	10239	  000498   ADD     R18,R16
1370	10240	  00049A   ADC     R19,R17
1371	10241	  00049C   LSR     R19
1372	10242	  00049E   ROR     R18
1373	10243	  0004A0   POP     R30
1374	10245	  0004A2   POP     R31
1375	10247	  0004A4   PUSH    R18
1376	10249	  0004A6   PUSH    R19
1377	10251	  0004A8   LD      R19,Y+
1378	10253	  0004AA   LD      R18,Y+
1379	10255	  0004AC   OUT     SREG,R18
1380	10256	  0004AE   LD      R18,Y+
1381	10258	  0004B0   LD      R16,Y+
1382	10260	  0004B2   LD      R17,Y+
1383	10262	  0004B4   RET
		??vhtMvyiAmaZBARrPEKMKsoFSIeGSw:
1384	10266	  000EC4   LDI     R20,0x03
1385	10267	  000EC6   LDI     R21,0x00
1386	10268	  000EC8   ST      -Y,R17
1387	10270	  000ECA   ST      -Y,R16
1388	10272	  000ECC   LDI     R17,0x00
1389	10273	  000ECE   LDI     R16,0x1A
1390	10274	  000ED0   JMP     ??qpQLuPnEUlJCOQbkVsgBFJkeFRkBB
		??qpQLuPnEUlJCOQbkVsgBFJkeFRkBB:
1391	10277	  000C24   ST      -Y,R18
1392	10279	  000C26   IN      R18,SREG
1393	10280	  000C28   ST      -Y,R18
1394	10282	  000C2A   CALL    avmp_handler
		avmp_handler:
1395	10286	  00047A   ST      -Y,R19
1396	10288	  00047C   POP     R19
1397	10290	  00047E   POP     R18
1398	10292	  000480   PUSH    R31
1399	10294	  000482   PUSH    R30
1400	10296	  000484   MOV     R31,R19
1401	10297	  000486   MOV     R30,R18
1402	10298	  000488   ADD     R30,R16
1403	10299	  00048A   ADC     R31,R17
1404	10300	  00048C   LSL     R30
1405	10301	  00048E   ROL     R31
1406	10302	  000490   LSL     R18
1407	10303	  000492   ROL     R19
1408	10304	  000494   LPM      R16,Z+
1409	10307	  000496   LPM      R17,Z
1410	10310	  000498   ADD     R18,R16
1411	10311	  00049A   ADC     R19,R17
1412	10312	  00049C   LSR     R19
1413	10313	  00049E   ROR     R18
1414	10314	  0004A0   POP     R30
1415	10316	  0004A2   POP     R31
1416	10318	  0004A4   PUSH    R18
1417	10320	  0004A6   PUSH    R19
1418	10322	  0004A8   LD      R19,Y+
1419	10324	  0004AA   LD      R18,Y+
1420	10326	  0004AC   OUT     SREG,R18
1421	10327	  0004AE   LD      R18,Y+
1422	10329	  0004B0   LD      R16,Y+
1423	10331	  0004B2   LD      R17,Y+
1424	10333	  0004B4   RET
		??aqModabtODRZOeAaWFTrycSSNAMpv:
1425	10337	  000ED4   LDI     R18,0x02
1426	10338	  000ED6   LDI     R19,0x00
1427	10339	  000ED8   ST      -Y,R17
1428	10341	  000EDA   ST      -Y,R16
1429	10343	  000EDC   LDI     R17,0x00
1430	10344	  000EDE   LDI     R16,0x1B
1431	10345	  000EE0   JMP     ??qpQLuPnEUlJCOQbkVsgBFJkeFRkBB
		??qpQLuPnEUlJCOQbkVsgBFJkeFRkBB:
1432	10348	  000C24   ST      -Y,R18
1433	10350	  000C26   IN      R18,SREG
1434	10351	  000C28   ST      -Y,R18
1435	10353	  000C2A   CALL    avmp_handler
		avmp_handler:
1436	10357	  00047A   ST      -Y,R19
1437	10359	  00047C   POP     R19
1438	10361	  00047E   POP     R18
1439	10363	  000480   PUSH    R31
1440	10365	  000482   PUSH    R30
1441	10367	  000484   MOV     R31,R19
1442	10368	  000486   MOV     R30,R18
1443	10369	  000488   ADD     R30,R16
1444	10370	  00048A   ADC     R31,R17
1445	10371	  00048C   LSL     R30
1446	10372	  00048E   ROL     R31
1447	10373	  000490   LSL     R18
1448	10374	  000492   ROL     R19
1449	10375	  000494   LPM      R16,Z+
1450	10378	  000496   LPM      R17,Z
1451	10381	  000498   ADD     R18,R16
1452	10382	  00049A   ADC     R19,R17
1453	10383	  00049C   LSR     R19
1454	10384	  00049E   ROR     R18
1455	10385	  0004A0   POP     R30
1456	10387	  0004A2   POP     R31
1457	10389	  0004A4   PUSH    R18
1458	10391	  0004A6   PUSH    R19
1459	10393	  0004A8   LD      R19,Y+
1460	10395	  0004AA   LD      R18,Y+
1461	10397	  0004AC   OUT     SREG,R18
1462	10398	  0004AE   LD      R18,Y+
1463	10400	  0004B0   LD      R16,Y+
1464	10402	  0004B2   LD      R17,Y+
1465	10404	  0004B4   RET
		??puZJbGmcacACvLHtcovVwzmseqoer:
1466	10408	  000EE4   LDI     R16,0x01
1467	10409	  000EE6   LDI     R17,0x00
1468	10410	  000EE8   ST      -Y,R17
1469	10412	  000EEA   ST      -Y,R16
1470	10414	  000EEC   LDI     R17,0x00
1471	10415	  000EEE   LDI     R16,0x1C
1472	10416	  000EF0   JMP     ??qpQLuPnEUlJCOQbkVsgBFJkeFRkBB
		??qpQLuPnEUlJCOQbkVsgBFJkeFRkBB:
1473	10419	  000C24   ST      -Y,R18
1474	10421	  000C26   IN      R18,SREG
1475	10422	  000C28   ST      -Y,R18
1476	10424	  000C2A   CALL    avmp_handler
		avmp_handler:
1477	10428	  00047A   ST      -Y,R19
1478	10430	  00047C   POP     R19
1479	10432	  00047E   POP     R18
1480	10434	  000480   PUSH    R31
1481	10436	  000482   PUSH    R30
1482	10438	  000484   MOV     R31,R19
1483	10439	  000486   MOV     R30,R18
1484	10440	  000488   ADD     R30,R16
1485	10441	  00048A   ADC     R31,R17
1486	10442	  00048C   LSL     R30
1487	10443	  00048E   ROL     R31
1488	10444	  000490   LSL     R18
1489	10445	  000492   ROL     R19
1490	10446	  000494   LPM      R16,Z+
1491	10449	  000496   LPM      R17,Z
1492	10452	  000498   ADD     R18,R16
1493	10453	  00049A   ADC     R19,R17
1494	10454	  00049C   LSR     R19
1495	10455	  00049E   ROR     R18
1496	10456	  0004A0   POP     R30
1497	10458	  0004A2   POP     R31
1498	10460	  0004A4   PUSH    R18
1499	10462	  0004A6   PUSH    R19
1500	10464	  0004A8   LD      R19,Y+
1501	10466	  0004AA   LD      R18,Y+
1502	10468	  0004AC   OUT     SREG,R18
1503	10469	  0004AE   LD      R18,Y+
1504	10471	  0004B0   LD      R16,Y+
1505	10473	  0004B2   LD      R17,Y+
1506	10475	  0004B4   RET
		??JJBftIYFqYxIRLwSWKfFOJgmfuqrq:
1507	10479	  000EF4   CALL    TestParam4
		TestParam4:
1508	10483	  0006A6   ST      -Y,R17
1509	10485	  0006A8   ST      -Y,R16
1510	10487	  0006AA   LDI     R17,0x00
1511	10488	  0006AC   LDI     R16,0x01
		??pPSMNMSIlmXvnhHWvhmijbpsHPtND:
1512	10489	  0006AE   ST      -Y,R18
1513	10491	  0006B0   IN      R18,SREG
1514	10492	  0006B2   ST      -Y,R18
1515	10494	  0006B4   CALL    avmp_handler
		avmp_handler:
1516	10498	  00047A   ST      -Y,R19
1517	10500	  00047C   POP     R19
1518	10502	  00047E   POP     R18
1519	10504	  000480   PUSH    R31
1520	10506	  000482   PUSH    R30
1521	10508	  000484   MOV     R31,R19
1522	10509	  000486   MOV     R30,R18
1523	10510	  000488   ADD     R30,R16
1524	10511	  00048A   ADC     R31,R17
1525	10512	  00048C   LSL     R30
1526	10513	  00048E   ROL     R31
1527	10514	  000490   LSL     R18
1528	10515	  000492   ROL     R19
1529	10516	  000494   LPM      R16,Z+
1530	10519	  000496   LPM      R17,Z
1531	10522	  000498   ADD     R18,R16
1532	10523	  00049A   ADC     R19,R17
1533	10524	  00049C   LSR     R19
1534	10525	  00049E   ROR     R18
1535	10526	  0004A0   POP     R30
1536	10528	  0004A2   POP     R31
1537	10530	  0004A4   PUSH    R18
1538	10532	  0004A6   PUSH    R19
1539	10534	  0004A8   LD      R19,Y+
1540	10536	  0004AA   LD      R18,Y+
1541	10538	  0004AC   OUT     SREG,R18
1542	10539	  0004AE   LD      R18,Y+
1543	10541	  0004B0   LD      R16,Y+
1544	10543	  0004B2   LD      R17,Y+
1545	10545	  0004B4   RET
		??fOhOvejbtJxUrcxotBzRllEgTbrNW:
1546	10549	  0006C2   ADD     R16,R18
1547	10550	  0006C4   ADC     R17,R19
1548	10551	  0006C6   ST      -Y,R17
1549	10553	  0006C8   ST      -Y,R16
1550	10555	  0006CA   LDI     R17,0x00
1551	10556	  0006CC   LDI     R16,0x02
1552	10557	  0006CE   JMP     ??pPSMNMSIlmXvnhHWvhmijbpsHPtND
		??pPSMNMSIlmXvnhHWvhmijbpsHPtND:
1553	10560	  0006AE   ST      -Y,R18
1554	10562	  0006B0   IN      R18,SREG
1555	10563	  0006B2   ST      -Y,R18
1556	10565	  0006B4   CALL    avmp_handler
		avmp_handler:
1557	10569	  00047A   ST      -Y,R19
1558	10571	  00047C   POP     R19
1559	10573	  00047E   POP     R18
1560	10575	  000480   PUSH    R31
1561	10577	  000482   PUSH    R30
1562	10579	  000484   MOV     R31,R19
1563	10580	  000486   MOV     R30,R18
1564	10581	  000488   ADD     R30,R16
1565	10582	  00048A   ADC     R31,R17
1566	10583	  00048C   LSL     R30
1567	10584	  00048E   ROL     R31
1568	10585	  000490   LSL     R18
1569	10586	  000492   ROL     R19
1570	10587	  000494   LPM      R16,Z+
1571	10590	  000496   LPM      R17,Z
1572	10593	  000498   ADD     R18,R16
1573	10594	  00049A   ADC     R19,R17
1574	10595	  00049C   LSR     R19
1575	10596	  00049E   ROR     R18
1576	10597	  0004A0   POP     R30
1577	10599	  0004A2   POP     R31
1578	10601	  0004A4   PUSH    R18
1579	10603	  0004A6   PUSH    R19
1580	10605	  0004A8   LD      R19,Y+
1581	10607	  0004AA   LD      R18,Y+
1582	10609	  0004AC   OUT     SREG,R18
1583	10610	  0004AE   LD      R18,Y+
1584	10612	  0004B0   LD      R16,Y+
1585	10614	  0004B2   LD      R17,Y+
1586	10616	  0004B4   RET
		??IHGKBlnnXnzkBxmolpTyXgFmTKatS:
1587	10620	  0006D2   ADD     R16,R20
1588	10621	  0006D4   ADC     R17,R21
1589	10622	  0006D6   ST      -Y,R17
1590	10624	  0006D8   ST      -Y,R16
1591	10626	  0006DA   LDI     R17,0x00
1592	10627	  0006DC   LDI     R16,0x03
1593	10628	  0006DE   JMP     ??pPSMNMSIlmXvnhHWvhmijbpsHPtND
		??pPSMNMSIlmXvnhHWvhmijbpsHPtND:
1594	10631	  0006AE   ST      -Y,R18
1595	10633	  0006B0   IN      R18,SREG
1596	10634	  0006B2   ST      -Y,R18
1597	10636	  0006B4   CALL    avmp_handler
		avmp_handler:
1598	10640	  00047A   ST      -Y,R19
1599	10642	  00047C   POP     R19
1600	10644	  00047E   POP     R18
1601	10646	  000480   PUSH    R31
1602	10648	  000482   PUSH    R30
1603	10650	  000484   MOV     R31,R19
1604	10651	  000486   MOV     R30,R18
1605	10652	  000488   ADD     R30,R16
1606	10653	  00048A   ADC     R31,R17
1607	10654	  00048C   LSL     R30
1608	10655	  00048E   ROL     R31
1609	10656	  000490   LSL     R18
1610	10657	  000492   ROL     R19
1611	10658	  000494   LPM      R16,Z+
1612	10661	  000496   LPM      R17,Z
1613	10664	  000498   ADD     R18,R16
1614	10665	  00049A   ADC     R19,R17
1615	10666	  00049C   LSR     R19
1616	10667	  00049E   ROR     R18
1617	10668	  0004A0   POP     R30
1618	10670	  0004A2   POP     R31
1619	10672	  0004A4   PUSH    R18
1620	10674	  0004A6   PUSH    R19
1621	10676	  0004A8   LD      R19,Y+
1622	10678	  0004AA   LD      R18,Y+
1623	10680	  0004AC   OUT     SREG,R18
1624	10681	  0004AE   LD      R18,Y+
1625	10683	  0004B0   LD      R16,Y+
1626	10685	  0004B2   LD      R17,Y+
1627	10687	  0004B4   RET
		??ygcLPveAihfRDAMFqhxgGqMOepcVm:
1628	10691	  0006E2   ADD     R16,R22
1629	10692	  0006E4   ADC     R17,R23
1630	10693	  0006E6   ST      -Y,R17
1631	10695	  0006E8   ST      -Y,R16
1632	10697	  0006EA   LDI     R17,0x00
1633	10698	  0006EC   LDI     R16,0x04
1634	10699	  0006EE   JMP     ??pPSMNMSIlmXvnhHWvhmijbpsHPtND
		??pPSMNMSIlmXvnhHWvhmijbpsHPtND:
1635	10702	  0006AE   ST      -Y,R18
1636	10704	  0006B0   IN      R18,SREG
1637	10705	  0006B2   ST      -Y,R18
1638	10707	  0006B4   CALL    avmp_handler
		avmp_handler:
1639	10711	  00047A   ST      -Y,R19
1640	10713	  00047C   POP     R19
1641	10715	  00047E   POP     R18
1642	10717	  000480   PUSH    R31
1643	10719	  000482   PUSH    R30
1644	10721	  000484   MOV     R31,R19
1645	10722	  000486   MOV     R30,R18
1646	10723	  000488   ADD     R30,R16
1647	10724	  00048A   ADC     R31,R17
1648	10725	  00048C   LSL     R30
1649	10726	  00048E   ROL     R31
1650	10727	  000490   LSL     R18
1651	10728	  000492   ROL     R19
1652	10729	  000494   LPM      R16,Z+
1653	10732	  000496   LPM      R17,Z
1654	10735	  000498   ADD     R18,R16
1655	10736	  00049A   ADC     R19,R17
1656	10737	  00049C   LSR     R19
1657	10738	  00049E   ROR     R18
1658	10739	  0004A0   POP     R30
1659	10741	  0004A2   POP     R31
1660	10743	  0004A4   PUSH    R18
1661	10745	  0004A6   PUSH    R19
1662	10747	  0004A8   LD      R19,Y+
1663	10749	  0004AA   LD      R18,Y+
1664	10751	  0004AC   OUT     SREG,R18
1665	10752	  0004AE   LD      R18,Y+
1666	10754	  0004B0   LD      R16,Y+
1667	10756	  0004B2   LD      R17,Y+
1668	10758	  0004B4   RET
		??jYhFWBLSQKBExThkvQagszKOGqwja:
1669	10762	  0006F2   RET
1670	10766	  000EF8   LD      R18,Y
1671	10768	  000EFA   ST      -Y,R17
1672	10770	  000EFC   ST      -Y,R16
1673	10772	  000EFE   LDI     R17,0x00
1674	10773	  000F00   LDI     R16,0x1D
1675	10774	  000F02   JMP     ??qpQLuPnEUlJCOQbkVsgBFJkeFRkBB
		??qpQLuPnEUlJCOQbkVsgBFJkeFRkBB:
1676	10777	  000C24   ST      -Y,R18
1677	10779	  000C26   IN      R18,SREG
1678	10780	  000C28   ST      -Y,R18
1679	10782	  000C2A   CALL    avmp_handler
		avmp_handler:
1680	10786	  00047A   ST      -Y,R19
1681	10788	  00047C   POP     R19
1682	10790	  00047E   POP     R18
1683	10792	  000480   PUSH    R31
1684	10794	  000482   PUSH    R30
1685	10796	  000484   MOV     R31,R19
1686	10797	  000486   MOV     R30,R18
1687	10798	  000488   ADD     R30,R16
1688	10799	  00048A   ADC     R31,R17
1689	10800	  00048C   LSL     R30
1690	10801	  00048E   ROL     R31
1691	10802	  000490   LSL     R18
1692	10803	  000492   ROL     R19
1693	10804	  000494   LPM      R16,Z+
1694	10807	  000496   LPM      R17,Z
1695	10810	  000498   ADD     R18,R16
1696	10811	  00049A   ADC     R19,R17
1697	10812	  00049C   LSR     R19
1698	10813	  00049E   ROR     R18
1699	10814	  0004A0   POP     R30
1700	10816	  0004A2   POP     R31
1701	10818	  0004A4   PUSH    R18
1702	10820	  0004A6   PUSH    R19
1703	10822	  0004A8   LD      R19,Y+
1704	10824	  0004AA   LD      R18,Y+
1705	10826	  0004AC   OUT     SREG,R18
1706	10827	  0004AE   LD      R18,Y+
1707	10829	  0004B0   LD      R16,Y+
1708	10831	  0004B2   LD      R17,Y+
1709	10833	  0004B4   RET
		??wnzfXiMCzrkwjqIYRfgqpzJWVzrSq:
1710	10837	  000F06   LDD     R19,Y+1
1711	10839	  000F08   ADD     R18,R16
1712	10840	  000F0A   ST      -Y,R17
1713	10842	  000F0C   ST      -Y,R16
1714	10844	  000F0E   LDI     R17,0x00
1715	10845	  000F10   LDI     R16,0x1E
1716	10846	  000F12   JMP     ??qpQLuPnEUlJCOQbkVsgBFJkeFRkBB
		??qpQLuPnEUlJCOQbkVsgBFJkeFRkBB:
1717	10849	  000C24   ST      -Y,R18
1718	10851	  000C26   IN      R18,SREG
1719	10852	  000C28   ST      -Y,R18
1720	10854	  000C2A   CALL    avmp_handler
		avmp_handler:
1721	10858	  00047A   ST      -Y,R19
1722	10860	  00047C   POP     R19
1723	10862	  00047E   POP     R18
1724	10864	  000480   PUSH    R31
1725	10866	  000482   PUSH    R30
1726	10868	  000484   MOV     R31,R19
1727	10869	  000486   MOV     R30,R18
1728	10870	  000488   ADD     R30,R16
1729	10871	  00048A   ADC     R31,R17
1730	10872	  00048C   LSL     R30
1731	10873	  00048E   ROL     R31
1732	10874	  000490   LSL     R18
1733	10875	  000492   ROL     R19
1734	10876	  000494   LPM      R16,Z+
1735	10879	  000496   LPM      R17,Z
1736	10882	  000498   ADD     R18,R16
1737	10883	  00049A   ADC     R19,R17
1738	10884	  00049C   LSR     R19
1739	10885	  00049E   ROR     R18
1740	10886	  0004A0   POP     R30
1741	10888	  0004A2   POP     R31
1742	10890	  0004A4   PUSH    R18
1743	10892	  0004A6   PUSH    R19
1744	10894	  0004A8   LD      R19,Y+
1745	10896	  0004AA   LD      R18,Y+
1746	10898	  0004AC   OUT     SREG,R18
1747	10899	  0004AE   LD      R18,Y+
1748	10901	  0004B0   LD      R16,Y+
1749	10903	  0004B2   LD      R17,Y+
1750	10905	  0004B4   RET
		??IFfQKrSRcuthZsqswrssPYPTfySHH:
1751	10909	  000F16   ADC     R19,R17
1752	10910	  000F18   ST      Y,R18
1753	10912	  000F1A   ST      -Y,R17
1754	10914	  000F1C   ST      -Y,R16
1755	10916	  000F1E   LDI     R17,0x00
1756	10917	  000F20   LDI     R16,0x1F
1757	10918	  000F22   JMP     ??qpQLuPnEUlJCOQbkVsgBFJkeFRkBB
		??qpQLuPnEUlJCOQbkVsgBFJkeFRkBB:
1758	10921	  000C24   ST      -Y,R18
1759	10923	  000C26   IN      R18,SREG
1760	10924	  000C28   ST      -Y,R18
1761	10926	  000C2A   CALL    avmp_handler
		avmp_handler:
1762	10930	  00047A   ST      -Y,R19
1763	10932	  00047C   POP     R19
1764	10934	  00047E   POP     R18
1765	10936	  000480   PUSH    R31
1766	10938	  000482   PUSH    R30
1767	10940	  000484   MOV     R31,R19
1768	10941	  000486   MOV     R30,R18
1769	10942	  000488   ADD     R30,R16
1770	10943	  00048A   ADC     R31,R17
1771	10944	  00048C   LSL     R30
1772	10945	  00048E   ROL     R31
1773	10946	  000490   LSL     R18
1774	10947	  000492   ROL     R19
1775	10948	  000494   LPM      R16,Z+
1776	10951	  000496   LPM      R17,Z
1777	10954	  000498   ADD     R18,R16
1778	10955	  00049A   ADC     R19,R17
1779	10956	  00049C   LSR     R19
1780	10957	  00049E   ROR     R18
1781	10958	  0004A0   POP     R30
1782	10960	  0004A2   POP     R31
1783	10962	  0004A4   PUSH    R18
1784	10964	  0004A6   PUSH    R19
1785	10966	  0004A8   LD      R19,Y+
1786	10968	  0004AA   LD      R18,Y+
1787	10970	  0004AC   OUT     SREG,R18
1788	10971	  0004AE   LD      R18,Y+
1789	10973	  0004B0   LD      R16,Y+
1790	10975	  0004B2   LD      R17,Y+
1791	10977	  0004B4   RET
		??QWBOxrSpNgJbvmSQXrBPOQQNdtTMb:
1792	10981	  000F26   STD     Y+1,R19
1793	10983	  000F28   LDI     R16,0x05
1794	10984	  000F2A   ST      -Y,R17
1795	10986	  000F2C   ST      -Y,R16
1796	10988	  000F2E   LDI     R17,0x00
1797	10989	  000F30   LDI     R16,0x20
1798	10990	  000F32   JMP     ??qpQLuPnEUlJCOQbkVsgBFJkeFRkBB
		??qpQLuPnEUlJCOQbkVsgBFJkeFRkBB:
1799	10993	  000C24   ST      -Y,R18
1800	10995	  000C26   IN      R18,SREG
1801	10996	  000C28   ST      -Y,R18
1802	10998	  000C2A   CALL    avmp_handler
		avmp_handler:
1803	11002	  00047A   ST      -Y,R19
1804	11004	  00047C   POP     R19
1805	11006	  00047E   POP     R18
1806	11008	  000480   PUSH    R31
1807	11010	  000482   PUSH    R30
1808	11012	  000484   MOV     R31,R19
1809	11013	  000486   MOV     R30,R18
1810	11014	  000488   ADD     R30,R16
1811	11015	  00048A   ADC     R31,R17
1812	11016	  00048C   LSL     R30
1813	11017	  00048E   ROL     R31
1814	11018	  000490   LSL     R18
1815	11019	  000492   ROL     R19
1816	11020	  000494   LPM      R16,Z+
1817	11023	  000496   LPM      R17,Z
1818	11026	  000498   ADD     R18,R16
1819	11027	  00049A   ADC     R19,R17
1820	11028	  00049C   LSR     R19
1821	11029	  00049E   ROR     R18
1822	11030	  0004A0   POP     R30
1823	11032	  0004A2   POP     R31
1824	11034	  0004A4   PUSH    R18
1825	11036	  0004A6   PUSH    R19
1826	11038	  0004A8   LD      R19,Y+
1827	11040	  0004AA   LD      R18,Y+
1828	11042	  0004AC   OUT     SREG,R18
1829	11043	  0004AE   LD      R18,Y+
1830	11045	  0004B0   LD      R16,Y+
1831	11047	  0004B2   LD      R17,Y+
1832	11049	  0004B4   RET
		??YuhpoudCiFDnSPgSumaIWnXdXeXjQ:
1833	11053	  000F36   LDI     R17,0x00
1834	11054	  000F38   ST      -Y,R17
1835	11056	  000F3A   ST      -Y,R17
1836	11058	  000F3C   ST      -Y,R16
1837	11060	  000F3E   LDI     R17,0x00
1838	11061	  000F40   LDI     R16,0x21
1839	11062	  000F42   JMP     ??qpQLuPnEUlJCOQbkVsgBFJkeFRkBB
		??qpQLuPnEUlJCOQbkVsgBFJkeFRkBB:
1840	11065	  000C24   ST      -Y,R18
1841	11067	  000C26   IN      R18,SREG
1842	11068	  000C28   ST      -Y,R18
1843	11070	  000C2A   CALL    avmp_handler
		avmp_handler:
1844	11074	  00047A   ST      -Y,R19
1845	11076	  00047C   POP     R19
1846	11078	  00047E   POP     R18
1847	11080	  000480   PUSH    R31
1848	11082	  000482   PUSH    R30
1849	11084	  000484   MOV     R31,R19
1850	11085	  000486   MOV     R30,R18
1851	11086	  000488   ADD     R30,R16
1852	11087	  00048A   ADC     R31,R17
1853	11088	  00048C   LSL     R30
1854	11089	  00048E   ROL     R31
1855	11090	  000490   LSL     R18
1856	11091	  000492   ROL     R19
1857	11092	  000494   LPM      R16,Z+
1858	11095	  000496   LPM      R17,Z
1859	11098	  000498   ADD     R18,R16
1860	11099	  00049A   ADC     R19,R17
1861	11100	  00049C   LSR     R19
1862	11101	  00049E   ROR     R18
1863	11102	  0004A0   POP     R30
1864	11104	  0004A2   POP     R31
1865	11106	  0004A4   PUSH    R18
1866	11108	  0004A6   PUSH    R19
1867	11110	  0004A8   LD      R19,Y+
1868	11112	  0004AA   LD      R18,Y+
1869	11114	  0004AC   OUT     SREG,R18
1870	11115	  0004AE   LD      R18,Y+
1871	11117	  0004B0   LD      R16,Y+
1872	11119	  0004B2   LD      R17,Y+
1873	11121	  0004B4   RET
		??xtgFbRRwMhLbFfdqCgAahZtqqrsTV:
1874	11125	  000F46   ST      -Y,R16
1875	11127	  000F48   LDI     R22,0x04
1876	11128	  000F4A   ST      -Y,R17
1877	11130	  000F4C   ST      -Y,R16
1878	11132	  000F4E   LDI     R17,0x00
1879	11133	  000F50   LDI     R16,0x22
1880	11134	  000F52   JMP     ??qpQLuPnEUlJCOQbkVsgBFJkeFRkBB
		??qpQLuPnEUlJCOQbkVsgBFJkeFRkBB:
1881	11137	  000C24   ST      -Y,R18
1882	11139	  000C26   IN      R18,SREG
1883	11140	  000C28   ST      -Y,R18
1884	11142	  000C2A   CALL    avmp_handler
		avmp_handler:
1885	11146	  00047A   ST      -Y,R19
1886	11148	  00047C   POP     R19
1887	11150	  00047E   POP     R18
1888	11152	  000480   PUSH    R31
1889	11154	  000482   PUSH    R30
1890	11156	  000484   MOV     R31,R19
1891	11157	  000486   MOV     R30,R18
1892	11158	  000488   ADD     R30,R16
1893	11159	  00048A   ADC     R31,R17
1894	11160	  00048C   LSL     R30
1895	11161	  00048E   ROL     R31
1896	11162	  000490   LSL     R18
1897	11163	  000492   ROL     R19
1898	11164	  000494   LPM      R16,Z+
1899	11167	  000496   LPM      R17,Z
1900	11170	  000498   ADD     R18,R16
1901	11171	  00049A   ADC     R19,R17
1902	11172	  00049C   LSR     R19
1903	11173	  00049E   ROR     R18
1904	11174	  0004A0   POP     R30
1905	11176	  0004A2   POP     R31
1906	11178	  0004A4   PUSH    R18
1907	11180	  0004A6   PUSH    R19
1908	11182	  0004A8   LD      R19,Y+
1909	11184	  0004AA   LD      R18,Y+
1910	11186	  0004AC   OUT     SREG,R18
1911	11187	  0004AE   LD      R18,Y+
1912	11189	  0004B0   LD      R16,Y+
1913	11191	  0004B2   LD      R17,Y+
1914	11193	  0004B4   RET
		??GkBjPLRUqRFJcqkOJSdhRnYgxcAQy:
1915	11197	  000F56   LDI     R23,0x00
1916	11198	  000F58   LDI     R20,0x03
1917	11199	  000F5A   ST      -Y,R17
1918	11201	  000F5C   ST      -Y,R16
1919	11203	  000F5E   LDI     R17,0x00
1920	11204	  000F60   LDI     R16,0x23
1921	11205	  000F62   JMP     ??qpQLuPnEUlJCOQbkVsgBFJkeFRkBB
		??qpQLuPnEUlJCOQbkVsgBFJkeFRkBB:
1922	11208	  000C24   ST      -Y,R18
1923	11210	  000C26   IN      R18,SREG
1924	11211	  000C28   ST      -Y,R18
1925	11213	  000C2A   CALL    avmp_handler
		avmp_handler:
1926	11217	  00047A   ST      -Y,R19
1927	11219	  00047C   POP     R19
1928	11221	  00047E   POP     R18
1929	11223	  000480   PUSH    R31
1930	11225	  000482   PUSH    R30
1931	11227	  000484   MOV     R31,R19
1932	11228	  000486   MOV     R30,R18
1933	11229	  000488   ADD     R30,R16
1934	11230	  00048A   ADC     R31,R17
1935	11231	  00048C   LSL     R30
1936	11232	  00048E   ROL     R31
1937	11233	  000490   LSL     R18
1938	11234	  000492   ROL     R19
1939	11235	  000494   LPM      R16,Z+
1940	11238	  000496   LPM      R17,Z
1941	11241	  000498   ADD     R18,R16
1942	11242	  00049A   ADC     R19,R17
1943	11243	  00049C   LSR     R19
1944	11244	  00049E   ROR     R18
1945	11245	  0004A0   POP     R30
1946	11247	  0004A2   POP     R31
1947	11249	  0004A4   PUSH    R18
1948	11251	  0004A6   PUSH    R19
1949	11253	  0004A8   LD      R19,Y+
1950	11255	  0004AA   LD      R18,Y+
1951	11257	  0004AC   OUT     SREG,R18
1952	11258	  0004AE   LD      R18,Y+
1953	11260	  0004B0   LD      R16,Y+
1954	11262	  0004B2   LD      R17,Y+
1955	11264	  0004B4   RET
		??zWJunseFAQWwktFYGyEZNUebUrCXo:
1956	11268	  000F66   LDI     R21,0x00
1957	11269	  000F68   LDI     R18,0x02
1958	11270	  000F6A   ST      -Y,R17
1959	11272	  000F6C   ST      -Y,R16
1960	11274	  000F6E   LDI     R17,0x00
1961	11275	  000F70   LDI     R16,0x24
1962	11276	  000F72   JMP     ??qpQLuPnEUlJCOQbkVsgBFJkeFRkBB
		??qpQLuPnEUlJCOQbkVsgBFJkeFRkBB:
1963	11279	  000C24   ST      -Y,R18
1964	11281	  000C26   IN      R18,SREG
1965	11282	  000C28   ST      -Y,R18
1966	11284	  000C2A   CALL    avmp_handler
		avmp_handler:
1967	11288	  00047A   ST      -Y,R19
1968	11290	  00047C   POP     R19
1969	11292	  00047E   POP     R18
1970	11294	  000480   PUSH    R31
1971	11296	  000482   PUSH    R30
1972	11298	  000484   MOV     R31,R19
1973	11299	  000486   MOV     R30,R18
1974	11300	  000488   ADD     R30,R16
1975	11301	  00048A   ADC     R31,R17
1976	11302	  00048C   LSL     R30
1977	11303	  00048E   ROL     R31
1978	11304	  000490   LSL     R18
1979	11305	  000492   ROL     R19
1980	11306	  000494   LPM      R16,Z+
1981	11309	  000496   LPM      R17,Z
1982	11312	  000498   ADD     R18,R16
1983	11313	  00049A   ADC     R19,R17
1984	11314	  00049C   LSR     R19
1985	11315	  00049E   ROR     R18
1986	11316	  0004A0   POP     R30
1987	11318	  0004A2   POP     R31
1988	11320	  0004A4   PUSH    R18
1989	11322	  0004A6   PUSH    R19
1990	11324	  0004A8   LD      R19,Y+
1991	11326	  0004AA   LD      R18,Y+
1992	11328	  0004AC   OUT     SREG,R18
1993	11329	  0004AE   LD      R18,Y+
1994	11331	  0004B0   LD      R16,Y+
1995	11333	  0004B2   LD      R17,Y+
1996	11335	  0004B4   RET
		??wTOvzRlrSipxMDQyqadLNJWAPKjmN:
1997	11339	  000F76   LDI     R19,0x00
1998	11340	  000F78   LDI     R16,0x01
1999	11341	  000F7A   ST      -Y,R17
2000	11343	  000F7C   ST      -Y,R16
2001	11345	  000F7E   LDI     R17,0x00
2002	11346	  000F80   LDI     R16,0x25
2003	11347	  000F82   JMP     ??qpQLuPnEUlJCOQbkVsgBFJkeFRkBB
		??qpQLuPnEUlJCOQbkVsgBFJkeFRkBB:
2004	11350	  000C24   ST      -Y,R18
2005	11352	  000C26   IN      R18,SREG
2006	11353	  000C28   ST      -Y,R18
2007	11355	  000C2A   CALL    avmp_handler
		avmp_handler:
2008	11359	  00047A   ST      -Y,R19
2009	11361	  00047C   POP     R19
2010	11363	  00047E   POP     R18
2011	11365	  000480   PUSH    R31
2012	11367	  000482   PUSH    R30
2013	11369	  000484   MOV     R31,R19
2014	11370	  000486   MOV     R30,R18
2015	11371	  000488   ADD     R30,R16
2016	11372	  00048A   ADC     R31,R17
2017	11373	  00048C   LSL     R30
2018	11374	  00048E   ROL     R31
2019	11375	  000490   LSL     R18
2020	11376	  000492   ROL     R19
2021	11377	  000494   LPM      R16,Z+
2022	11380	  000496   LPM      R17,Z
2023	11383	  000498   ADD     R18,R16
2024	11384	  00049A   ADC     R19,R17
2025	11385	  00049C   LSR     R19
2026	11386	  00049E   ROR     R18
2027	11387	  0004A0   POP     R30
2028	11389	  0004A2   POP     R31
2029	11391	  0004A4   PUSH    R18
2030	11393	  0004A6   PUSH    R19
2031	11395	  0004A8   LD      R19,Y+
2032	11397	  0004AA   LD      R18,Y+
2033	11399	  0004AC   OUT     SREG,R18
2034	11400	  0004AE   LD      R18,Y+
2035	11402	  0004B0   LD      R16,Y+
2036	11404	  0004B2   LD      R17,Y+
2037	11406	  0004B4   RET
		??FvaUApzXQjmfHQOTStEuqMBlDwtPM:
2038	11410	  000F86   LDI     R17,0x00
2039	11411	  000F88   CALL    TestParam5
		TestParam5:
2040	11415	  0006F4   ST      -Y,R17
2041	11417	  0006F6   ST      -Y,R16
2042	11419	  0006F8   LDI     R17,0x00
2043	11420	  0006FA   LDI     R16,0x02
		??NTBslpaNzSNfPlIkUCEonXVgiXOBv:
2044	11421	  0006FC   ST      -Y,R18
2045	11423	  0006FE   IN      R18,SREG
2046	11424	  000700   ST      -Y,R18
2047	11426	  000702   CALL    avmp_handler
		avmp_handler:
2048	11430	  00047A   ST      -Y,R19
2049	11432	  00047C   POP     R19
2050	11434	  00047E   POP     R18
2051	11436	  000480   PUSH    R31
2052	11438	  000482   PUSH    R30
2053	11440	  000484   MOV     R31,R19
2054	11441	  000486   MOV     R30,R18
2055	11442	  000488   ADD     R30,R16
2056	11443	  00048A   ADC     R31,R17
2057	11444	  00048C   LSL     R30
2058	11445	  00048E   ROL     R31
2059	11446	  000490   LSL     R18
2060	11447	  000492   ROL     R19
2061	11448	  000494   LPM      R16,Z+
2062	11451	  000496   LPM      R17,Z
2063	11454	  000498   ADD     R18,R16
2064	11455	  00049A   ADC     R19,R17
2065	11456	  00049C   LSR     R19
2066	11457	  00049E   ROR     R18
2067	11458	  0004A0   POP     R30
2068	11460	  0004A2   POP     R31
2069	11462	  0004A4   PUSH    R18
2070	11464	  0004A6   PUSH    R19
2071	11466	  0004A8   LD      R19,Y+
2072	11468	  0004AA   LD      R18,Y+
2073	11470	  0004AC   OUT     SREG,R18
2074	11471	  0004AE   LD      R18,Y+
2075	11473	  0004B0   LD      R16,Y+
2076	11475	  0004B2   LD      R17,Y+
2077	11477	  0004B4   RET
		??DzWlCHVdiCVNQDFdtvruUQaDRFreF:
2078	11481	  000724   ADD     R16,R18
2079	11482	  000726   ADC     R17,R19
2080	11483	  000728   ST      -Y,R17
2081	11485	  00072A   ST      -Y,R16
2082	11487	  00072C   LDI     R17,0x00
2083	11488	  00072E   LDI     R16,0x03
2084	11489	  000730   JMP     ??NTBslpaNzSNfPlIkUCEonXVgiXOBv
		??NTBslpaNzSNfPlIkUCEonXVgiXOBv:
2085	11492	  0006FC   ST      -Y,R18
2086	11494	  0006FE   IN      R18,SREG
2087	11495	  000700   ST      -Y,R18
2088	11497	  000702   CALL    avmp_handler
		avmp_handler:
2089	11501	  00047A   ST      -Y,R19
2090	11503	  00047C   POP     R19
2091	11505	  00047E   POP     R18
2092	11507	  000480   PUSH    R31
2093	11509	  000482   PUSH    R30
2094	11511	  000484   MOV     R31,R19
2095	11512	  000486   MOV     R30,R18
2096	11513	  000488   ADD     R30,R16
2097	11514	  00048A   ADC     R31,R17
2098	11515	  00048C   LSL     R30
2099	11516	  00048E   ROL     R31
2100	11517	  000490   LSL     R18
2101	11518	  000492   ROL     R19
2102	11519	  000494   LPM      R16,Z+
2103	11522	  000496   LPM      R17,Z
2104	11525	  000498   ADD     R18,R16
2105	11526	  00049A   ADC     R19,R17
2106	11527	  00049C   LSR     R19
2107	11528	  00049E   ROR     R18
2108	11529	  0004A0   POP     R30
2109	11531	  0004A2   POP     R31
2110	11533	  0004A4   PUSH    R18
2111	11535	  0004A6   PUSH    R19
2112	11537	  0004A8   LD      R19,Y+
2113	11539	  0004AA   LD      R18,Y+
2114	11541	  0004AC   OUT     SREG,R18
2115	11542	  0004AE   LD      R18,Y+
2116	11544	  0004B0   LD      R16,Y+
2117	11546	  0004B2   LD      R17,Y+
2118	11548	  0004B4   RET
		??wuHHhwghEFznDGUZQtDdYKptYtfPm:
2119	11552	  000734   ADD     R16,R20
2120	11553	  000736   ADC     R17,R21
2121	11554	  000738   ST      -Y,R17
2122	11556	  00073A   ST      -Y,R16
2123	11558	  00073C   LDI     R17,0x00
2124	11559	  00073E   LDI     R16,0x04
2125	11560	  000740   JMP     ??NTBslpaNzSNfPlIkUCEonXVgiXOBv
		??NTBslpaNzSNfPlIkUCEonXVgiXOBv:
2126	11563	  0006FC   ST      -Y,R18
2127	11565	  0006FE   IN      R18,SREG
2128	11566	  000700   ST      -Y,R18
2129	11568	  000702   CALL    avmp_handler
		avmp_handler:
2130	11572	  00047A   ST      -Y,R19
2131	11574	  00047C   POP     R19
2132	11576	  00047E   POP     R18
2133	11578	  000480   PUSH    R31
2134	11580	  000482   PUSH    R30
2135	11582	  000484   MOV     R31,R19
2136	11583	  000486   MOV     R30,R18
2137	11584	  000488   ADD     R30,R16
2138	11585	  00048A   ADC     R31,R17
2139	11586	  00048C   LSL     R30
2140	11587	  00048E   ROL     R31
2141	11588	  000490   LSL     R18
2142	11589	  000492   ROL     R19
2143	11590	  000494   LPM      R16,Z+
2144	11593	  000496   LPM      R17,Z
2145	11596	  000498   ADD     R18,R16
2146	11597	  00049A   ADC     R19,R17
2147	11598	  00049C   LSR     R19
2148	11599	  00049E   ROR     R18
2149	11600	  0004A0   POP     R30
2150	11602	  0004A2   POP     R31
2151	11604	  0004A4   PUSH    R18
2152	11606	  0004A6   PUSH    R19
2153	11608	  0004A8   LD      R19,Y+
2154	11610	  0004AA   LD      R18,Y+
2155	11612	  0004AC   OUT     SREG,R18
2156	11613	  0004AE   LD      R18,Y+
2157	11615	  0004B0   LD      R16,Y+
2158	11617	  0004B2   LD      R17,Y+
2159	11619	  0004B4   RET
		??FYeahuKKWEAavttLIZOxQHTtLtNZP:
2160	11623	  000744   ADD     R16,R22
2161	11624	  000746   ADC     R17,R23
2162	11625	  000748   ST      -Y,R17
2163	11627	  00074A   ST      -Y,R16
2164	11629	  00074C   LDI     R17,0x00
2165	11630	  00074E   LDI     R16,0x05
2166	11631	  000750   JMP     ??NTBslpaNzSNfPlIkUCEonXVgiXOBv
		??NTBslpaNzSNfPlIkUCEonXVgiXOBv:
2167	11634	  0006FC   ST      -Y,R18
2168	11636	  0006FE   IN      R18,SREG
2169	11637	  000700   ST      -Y,R18
2170	11639	  000702   CALL    avmp_handler
		avmp_handler:
2171	11643	  00047A   ST      -Y,R19
2172	11645	  00047C   POP     R19
2173	11647	  00047E   POP     R18
2174	11649	  000480   PUSH    R31
2175	11651	  000482   PUSH    R30
2176	11653	  000484   MOV     R31,R19
2177	11654	  000486   MOV     R30,R18
2178	11655	  000488   ADD     R30,R16
2179	11656	  00048A   ADC     R31,R17
2180	11657	  00048C   LSL     R30
2181	11658	  00048E   ROL     R31
2182	11659	  000490   LSL     R18
2183	11660	  000492   ROL     R19
2184	11661	  000494   LPM      R16,Z+
2185	11664	  000496   LPM      R17,Z
2186	11667	  000498   ADD     R18,R16
2187	11668	  00049A   ADC     R19,R17
2188	11669	  00049C   LSR     R19
2189	11670	  00049E   ROR     R18
2190	11671	  0004A0   POP     R30
2191	11673	  0004A2   POP     R31
2192	11675	  0004A4   PUSH    R18
2193	11677	  0004A6   PUSH    R19
2194	11679	  0004A8   LD      R19,Y+
2195	11681	  0004AA   LD      R18,Y+
2196	11683	  0004AC   OUT     SREG,R18
2197	11684	  0004AE   LD      R18,Y+
2198	11686	  0004B0   LD      R16,Y+
2199	11688	  0004B2   LD      R17,Y+
2200	11690	  0004B4   RET
		??qBsqpadAUSvjiOFZNpXbYDfhvkSJh:
2201	11694	  000754   LD      R18,Y
2202	11696	  000756   LDD     R19,Y+1
2203	11698	  000758   ST      -Y,R17
2204	11700	  00075A   ST      -Y,R16
2205	11702	  00075C   LDI     R17,0x00
2206	11703	  00075E   LDI     R16,0x06
2207	11704	  000760   JMP     ??NTBslpaNzSNfPlIkUCEonXVgiXOBv
		??NTBslpaNzSNfPlIkUCEonXVgiXOBv:
2208	11707	  0006FC   ST      -Y,R18
2209	11709	  0006FE   IN      R18,SREG
2210	11710	  000700   ST      -Y,R18
2211	11712	  000702   CALL    avmp_handler
		avmp_handler:
2212	11716	  00047A   ST      -Y,R19
2213	11718	  00047C   POP     R19
2214	11720	  00047E   POP     R18
2215	11722	  000480   PUSH    R31
2216	11724	  000482   PUSH    R30
2217	11726	  000484   MOV     R31,R19
2218	11727	  000486   MOV     R30,R18
2219	11728	  000488   ADD     R30,R16
2220	11729	  00048A   ADC     R31,R17
2221	11730	  00048C   LSL     R30
2222	11731	  00048E   ROL     R31
2223	11732	  000490   LSL     R18
2224	11733	  000492   ROL     R19
2225	11734	  000494   LPM      R16,Z+
2226	11737	  000496   LPM      R17,Z
2227	11740	  000498   ADD     R18,R16
2228	11741	  00049A   ADC     R19,R17
2229	11742	  00049C   LSR     R19
2230	11743	  00049E   ROR     R18
2231	11744	  0004A0   POP     R30
2232	11746	  0004A2   POP     R31
2233	11748	  0004A4   PUSH    R18
2234	11750	  0004A6   PUSH    R19
2235	11752	  0004A8   LD      R19,Y+
2236	11754	  0004AA   LD      R18,Y+
2237	11756	  0004AC   OUT     SREG,R18
2238	11757	  0004AE   LD      R18,Y+
2239	11759	  0004B0   LD      R16,Y+
2240	11761	  0004B2   LD      R17,Y+
2241	11763	  0004B4   RET
		??LqMnyyzvffMgKgyuhlbSlyivuaAGH:
2242	11767	  000764   ADD     R16,R18
2243	11768	  000766   ADC     R17,R19
2244	11769	  000768   ST      -Y,R17
2245	11771	  00076A   ST      -Y,R16
2246	11773	  00076C   LDI     R17,0x00
2247	11774	  00076E   LDI     R16,0x01
2248	11775	  000770   JMP     ??NTBslpaNzSNfPlIkUCEonXVgiXOBv
		??NTBslpaNzSNfPlIkUCEonXVgiXOBv:
2249	11778	  0006FC   ST      -Y,R18
2250	11780	  0006FE   IN      R18,SREG
2251	11781	  000700   ST      -Y,R18
2252	11783	  000702   CALL    avmp_handler
		avmp_handler:
2253	11787	  00047A   ST      -Y,R19
2254	11789	  00047C   POP     R19
2255	11791	  00047E   POP     R18
2256	11793	  000480   PUSH    R31
2257	11795	  000482   PUSH    R30
2258	11797	  000484   MOV     R31,R19
2259	11798	  000486   MOV     R30,R18
2260	11799	  000488   ADD     R30,R16
2261	11800	  00048A   ADC     R31,R17
2262	11801	  00048C   LSL     R30
2263	11802	  00048E   ROL     R31
2264	11803	  000490   LSL     R18
2265	11804	  000492   ROL     R19
2266	11805	  000494   LPM      R16,Z+
2267	11808	  000496   LPM      R17,Z
2268	11811	  000498   ADD     R18,R16
2269	11812	  00049A   ADC     R19,R17
2270	11813	  00049C   LSR     R19
2271	11814	  00049E   ROR     R18
2272	11815	  0004A0   POP     R30
2273	11817	  0004A2   POP     R31
2274	11819	  0004A4   PUSH    R18
2275	11821	  0004A6   PUSH    R19
2276	11823	  0004A8   LD      R19,Y+
2277	11825	  0004AA   LD      R18,Y+
2278	11827	  0004AC   OUT     SREG,R18
2279	11828	  0004AE   LD      R18,Y+
2280	11830	  0004B0   LD      R16,Y+
2281	11832	  0004B2   LD      R17,Y+
2282	11834	  0004B4   RET
		??CcPcigIGludopextdVYQZZYCfUqOQ:
2283	11838	  000716   ADIW    R28,2
2284	11840	  000718   ST      -Y,R17
2285	11842	  00071A   ST      -Y,R16
2286	11844	  00071C   LDI     R17,0x00
2287	11845	  00071E   LDI     R16,0x07
2288	11846	  000720   JMP     ??NTBslpaNzSNfPlIkUCEonXVgiXOBv
		??NTBslpaNzSNfPlIkUCEonXVgiXOBv:
2289	11849	  0006FC   ST      -Y,R18
2290	11851	  0006FE   IN      R18,SREG
2291	11852	  000700   ST      -Y,R18
2292	11854	  000702   CALL    avmp_handler
		avmp_handler:
2293	11858	  00047A   ST      -Y,R19
2294	11860	  00047C   POP     R19
2295	11862	  00047E   POP     R18
2296	11864	  000480   PUSH    R31
2297	11866	  000482   PUSH    R30
2298	11868	  000484   MOV     R31,R19
2299	11869	  000486   MOV     R30,R18
2300	11870	  000488   ADD     R30,R16
2301	11871	  00048A   ADC     R31,R17
2302	11872	  00048C   LSL     R30
2303	11873	  00048E   ROL     R31
2304	11874	  000490   LSL     R18
2305	11875	  000492   ROL     R19
2306	11876	  000494   LPM      R16,Z+
2307	11879	  000496   LPM      R17,Z
2308	11882	  000498   ADD     R18,R16
2309	11883	  00049A   ADC     R19,R17
2310	11884	  00049C   LSR     R19
2311	11885	  00049E   ROR     R18
2312	11886	  0004A0   POP     R30
2313	11888	  0004A2   POP     R31
2314	11890	  0004A4   PUSH    R18
2315	11892	  0004A6   PUSH    R19
2316	11894	  0004A8   LD      R19,Y+
2317	11896	  0004AA   LD      R18,Y+
2318	11898	  0004AC   OUT     SREG,R18
2319	11899	  0004AE   LD      R18,Y+
2320	11901	  0004B0   LD      R16,Y+
2321	11903	  0004B2   LD      R17,Y+
2322	11905	  0004B4   RET
		??dxqaTRDcmUvbCkKPKLQOlheqiDhQh:
2323	11909	  000774   RET
2324	11913	  000F8C   ST      -Y,R17
2325	11915	  000F8E   ST      -Y,R16
2326	11917	  000F90   LDI     R17,0x00
2327	11918	  000F92   LDI     R16,0x26
2328	11919	  000F94   JMP     ??qpQLuPnEUlJCOQbkVsgBFJkeFRkBB
		??qpQLuPnEUlJCOQbkVsgBFJkeFRkBB:
2329	11922	  000C24   ST      -Y,R18
2330	11924	  000C26   IN      R18,SREG
2331	11925	  000C28   ST      -Y,R18
2332	11927	  000C2A   CALL    avmp_handler
		avmp_handler:
2333	11931	  00047A   ST      -Y,R19
2334	11933	  00047C   POP     R19
2335	11935	  00047E   POP     R18
2336	11937	  000480   PUSH    R31
2337	11939	  000482   PUSH    R30
2338	11941	  000484   MOV     R31,R19
2339	11942	  000486   MOV     R30,R18
2340	11943	  000488   ADD     R30,R16
2341	11944	  00048A   ADC     R31,R17
2342	11945	  00048C   LSL     R30
2343	11946	  00048E   ROL     R31
2344	11947	  000490   LSL     R18
2345	11948	  000492   ROL     R19
2346	11949	  000494   LPM      R16,Z+
2347	11952	  000496   LPM      R17,Z
2348	11955	  000498   ADD     R18,R16
2349	11956	  00049A   ADC     R19,R17
2350	11957	  00049C   LSR     R19
2351	11958	  00049E   ROR     R18
2352	11959	  0004A0   POP     R30
2353	11961	  0004A2   POP     R31
2354	11963	  0004A4   PUSH    R18
2355	11965	  0004A6   PUSH    R19
2356	11967	  0004A8   LD      R19,Y+
2357	11969	  0004AA   LD      R18,Y+
2358	11971	  0004AC   OUT     SREG,R18
2359	11972	  0004AE   LD      R18,Y+
2360	11974	  0004B0   LD      R16,Y+
2361	11976	  0004B2   LD      R17,Y+
2362	11978	  0004B4   RET
		??vLMTcnzsvPttAoicnUSimTeAHiCyy:
2363	11982	  000F98   LD      R18,Y
2364	11984	  000F9A   LDD     R19,Y+1
2365	11986	  000F9C   ST      -Y,R17
2366	11988	  000F9E   ST      -Y,R16
2367	11990	  000FA0   LDI     R17,0x00
2368	11991	  000FA2   LDI     R16,0x27
2369	11992	  000FA4   JMP     ??qpQLuPnEUlJCOQbkVsgBFJkeFRkBB
		??qpQLuPnEUlJCOQbkVsgBFJkeFRkBB:
2370	11995	  000C24   ST      -Y,R18
2371	11997	  000C26   IN      R18,SREG
2372	11998	  000C28   ST      -Y,R18
2373	12000	  000C2A   CALL    avmp_handler
		avmp_handler:
2374	12004	  00047A   ST      -Y,R19
2375	12006	  00047C   POP     R19
2376	12008	  00047E   POP     R18
2377	12010	  000480   PUSH    R31
2378	12012	  000482   PUSH    R30
2379	12014	  000484   MOV     R31,R19
2380	12015	  000486   MOV     R30,R18
2381	12016	  000488   ADD     R30,R16
2382	12017	  00048A   ADC     R31,R17
2383	12018	  00048C   LSL     R30
2384	12019	  00048E   ROL     R31
2385	12020	  000490   LSL     R18
2386	12021	  000492   ROL     R19
2387	12022	  000494   LPM      R16,Z+
2388	12025	  000496   LPM      R17,Z
2389	12028	  000498   ADD     R18,R16
2390	12029	  00049A   ADC     R19,R17
2391	12030	  00049C   LSR     R19
2392	12031	  00049E   ROR     R18
2393	12032	  0004A0   POP     R30
2394	12034	  0004A2   POP     R31
2395	12036	  0004A4   PUSH    R18
2396	12038	  0004A6   PUSH    R19
2397	12040	  0004A8   LD      R19,Y+
2398	12042	  0004AA   LD      R18,Y+
2399	12044	  0004AC   OUT     SREG,R18
2400	12045	  0004AE   LD      R18,Y+
2401	12047	  0004B0   LD      R16,Y+
2402	12049	  0004B2   LD      R17,Y+
2403	12051	  0004B4   RET
		??ZaZbpyyeWjvKwcUDwqenrtMdvShpM:
2404	12055	  000FA8   ADD     R18,R16
2405	12056	  000FAA   ADC     R19,R17
2406	12057	  000FAC   ST      -Y,R17
2407	12059	  000FAE   ST      -Y,R16
2408	12061	  000FB0   LDI     R17,0x00
2409	12062	  000FB2   LDI     R16,0x28
2410	12063	  000FB4   JMP     ??qpQLuPnEUlJCOQbkVsgBFJkeFRkBB
		??qpQLuPnEUlJCOQbkVsgBFJkeFRkBB:
2411	12066	  000C24   ST      -Y,R18
2412	12068	  000C26   IN      R18,SREG
2413	12069	  000C28   ST      -Y,R18
2414	12071	  000C2A   CALL    avmp_handler
		avmp_handler:
2415	12075	  00047A   ST      -Y,R19
2416	12077	  00047C   POP     R19
2417	12079	  00047E   POP     R18
2418	12081	  000480   PUSH    R31
2419	12083	  000482   PUSH    R30
2420	12085	  000484   MOV     R31,R19
2421	12086	  000486   MOV     R30,R18
2422	12087	  000488   ADD     R30,R16
2423	12088	  00048A   ADC     R31,R17
2424	12089	  00048C   LSL     R30
2425	12090	  00048E   ROL     R31
2426	12091	  000490   LSL     R18
2427	12092	  000492   ROL     R19
2428	12093	  000494   LPM      R16,Z+
2429	12096	  000496   LPM      R17,Z
2430	12099	  000498   ADD     R18,R16
2431	12100	  00049A   ADC     R19,R17
2432	12101	  00049C   LSR     R19
2433	12102	  00049E   ROR     R18
2434	12103	  0004A0   POP     R30
2435	12105	  0004A2   POP     R31
2436	12107	  0004A4   PUSH    R18
2437	12109	  0004A6   PUSH    R19
2438	12111	  0004A8   LD      R19,Y+
2439	12113	  0004AA   LD      R18,Y+
2440	12115	  0004AC   OUT     SREG,R18
2441	12116	  0004AE   LD      R18,Y+
2442	12118	  0004B0   LD      R16,Y+
2443	12120	  0004B2   LD      R17,Y+
2444	12122	  0004B4   RET
		??EMXAaDSVeCHjRfAaCHgCZKGyjqDqT:
2445	12126	  000FB8   ST      Y,R18
2446	12128	  000FBA   STD     Y+1,R19
2447	12130	  000FBC   ST      -Y,R17
2448	12132	  000FBE   ST      -Y,R16
2449	12134	  000FC0   LDI     R17,0x00
2450	12135	  000FC2   LDI     R16,0x29
2451	12136	  000FC4   JMP     ??qpQLuPnEUlJCOQbkVsgBFJkeFRkBB
		??qpQLuPnEUlJCOQbkVsgBFJkeFRkBB:
2452	12139	  000C24   ST      -Y,R18
2453	12141	  000C26   IN      R18,SREG
2454	12142	  000C28   ST      -Y,R18
2455	12144	  000C2A   CALL    avmp_handler
		avmp_handler:
2456	12148	  00047A   ST      -Y,R19
2457	12150	  00047C   POP     R19
2458	12152	  00047E   POP     R18
2459	12154	  000480   PUSH    R31
2460	12156	  000482   PUSH    R30
2461	12158	  000484   MOV     R31,R19
2462	12159	  000486   MOV     R30,R18
2463	12160	  000488   ADD     R30,R16
2464	12161	  00048A   ADC     R31,R17
2465	12162	  00048C   LSL     R30
2466	12163	  00048E   ROL     R31
2467	12164	  000490   LSL     R18
2468	12165	  000492   ROL     R19
2469	12166	  000494   LPM      R16,Z+
2470	12169	  000496   LPM      R17,Z
2471	12172	  000498   ADD     R18,R16
2472	12173	  00049A   ADC     R19,R17
2473	12174	  00049C   LSR     R19
2474	12175	  00049E   ROR     R18
2475	12176	  0004A0   POP     R30
2476	12178	  0004A2   POP     R31
2477	12180	  0004A4   PUSH    R18
2478	12182	  0004A6   PUSH    R19
2479	12184	  0004A8   LD      R19,Y+
2480	12186	  0004AA   LD      R18,Y+
2481	12188	  0004AC   OUT     SREG,R18
2482	12189	  0004AE   LD      R18,Y+
2483	12191	  0004B0   LD      R16,Y+
2484	12193	  0004B2   LD      R17,Y+
2485	12195	  0004B4   RET
		??yZgLcwlZFdNmaBXorXUlWjZZsBXoG:
2486	12199	  000FC8   LDI     R16,0x06
2487	12200	  000FCA   LDI     R17,0x00
2488	12201	  000FCC   ST      -Y,R17
2489	12203	  000FCE   ST      -Y,R16
2490	12205	  000FD0   LDI     R17,0x00
2491	12206	  000FD2   LDI     R16,0x2A
2492	12207	  000FD4   JMP     ??qpQLuPnEUlJCOQbkVsgBFJkeFRkBB
		??qpQLuPnEUlJCOQbkVsgBFJkeFRkBB:
2493	12210	  000C24   ST      -Y,R18
2494	12212	  000C26   IN      R18,SREG
2495	12213	  000C28   ST      -Y,R18
2496	12215	  000C2A   CALL    avmp_handler
		avmp_handler:
2497	12219	  00047A   ST      -Y,R19
2498	12221	  00047C   POP     R19
2499	12223	  00047E   POP     R18
2500	12225	  000480   PUSH    R31
2501	12227	  000482   PUSH    R30
2502	12229	  000484   MOV     R31,R19
2503	12230	  000486   MOV     R30,R18
2504	12231	  000488   ADD     R30,R16
2505	12232	  00048A   ADC     R31,R17
2506	12233	  00048C   LSL     R30
2507	12234	  00048E   ROL     R31
2508	12235	  000490   LSL     R18
2509	12236	  000492   ROL     R19
2510	12237	  000494   LPM      R16,Z+
2511	12240	  000496   LPM      R17,Z
2512	12243	  000498   ADD     R18,R16
2513	12244	  00049A   ADC     R19,R17
2514	12245	  00049C   LSR     R19
2515	12246	  00049E   ROR     R18
2516	12247	  0004A0   POP     R30
2517	12249	  0004A2   POP     R31
2518	12251	  0004A4   PUSH    R18
2519	12253	  0004A6   PUSH    R19
2520	12255	  0004A8   LD      R19,Y+
2521	12257	  0004AA   LD      R18,Y+
2522	12259	  0004AC   OUT     SREG,R18
2523	12260	  0004AE   LD      R18,Y+
2524	12262	  0004B0   LD      R16,Y+
2525	12264	  0004B2   LD      R17,Y+
2526	12266	  0004B4   RET
		??VWvWywKPVOBSjyUOZmDycCPBtwQrx:
2527	12270	  000FD8   ST      -Y,R17
2528	12272	  000FDA   ST      -Y,R16
2529	12274	  000FDC   ST      -Y,R17
2530	12276	  000FDE   ST      -Y,R16
2531	12278	  000FE0   LDI     R17,0x00
2532	12279	  000FE2   LDI     R16,0x2B
2533	12280	  000FE4   JMP     ??qpQLuPnEUlJCOQbkVsgBFJkeFRkBB
		??qpQLuPnEUlJCOQbkVsgBFJkeFRkBB:
2534	12283	  000C24   ST      -Y,R18
2535	12285	  000C26   IN      R18,SREG
2536	12286	  000C28   ST      -Y,R18
2537	12288	  000C2A   CALL    avmp_handler
		avmp_handler:
2538	12292	  00047A   ST      -Y,R19
2539	12294	  00047C   POP     R19
2540	12296	  00047E   POP     R18
2541	12298	  000480   PUSH    R31
2542	12300	  000482   PUSH    R30
2543	12302	  000484   MOV     R31,R19
2544	12303	  000486   MOV     R30,R18
2545	12304	  000488   ADD     R30,R16
2546	12305	  00048A   ADC     R31,R17
2547	12306	  00048C   LSL     R30
2548	12307	  00048E   ROL     R31
2549	12308	  000490   LSL     R18
2550	12309	  000492   ROL     R19
2551	12310	  000494   LPM      R16,Z+
2552	12313	  000496   LPM      R17,Z
2553	12316	  000498   ADD     R18,R16
2554	12317	  00049A   ADC     R19,R17
2555	12318	  00049C   LSR     R19
2556	12319	  00049E   ROR     R18
2557	12320	  0004A0   POP     R30
2558	12322	  0004A2   POP     R31
2559	12324	  0004A4   PUSH    R18
2560	12326	  0004A6   PUSH    R19
2561	12328	  0004A8   LD      R19,Y+
2562	12330	  0004AA   LD      R18,Y+
2563	12332	  0004AC   OUT     SREG,R18
2564	12333	  0004AE   LD      R18,Y+
2565	12335	  0004B0   LD      R16,Y+
2566	12337	  0004B2   LD      R17,Y+
2567	12339	  0004B4   RET
		??cegLnDSiVTAvQTnuDFUtWaryqJtDh:
2568	12343	  000FE8   LDI     R16,0x05
2569	12344	  000FEA   LDI     R17,0x00
2570	12345	  000FEC   ST      -Y,R17
2571	12347	  000FEE   ST      -Y,R16
2572	12349	  000FF0   LDI     R17,0x00
2573	12350	  000FF2   LDI     R16,0x2C
2574	12351	  000FF4   JMP     ??qpQLuPnEUlJCOQbkVsgBFJkeFRkBB
		??qpQLuPnEUlJCOQbkVsgBFJkeFRkBB:
2575	12354	  000C24   ST      -Y,R18
2576	12356	  000C26   IN      R18,SREG
2577	12357	  000C28   ST      -Y,R18
2578	12359	  000C2A   CALL    avmp_handler
		avmp_handler:
2579	12363	  00047A   ST      -Y,R19
2580	12365	  00047C   POP     R19
2581	12367	  00047E   POP     R18
2582	12369	  000480   PUSH    R31
2583	12371	  000482   PUSH    R30
2584	12373	  000484   MOV     R31,R19
2585	12374	  000486   MOV     R30,R18
2586	12375	  000488   ADD     R30,R16
2587	12376	  00048A   ADC     R31,R17
2588	12377	  00048C   LSL     R30
2589	12378	  00048E   ROL     R31
2590	12379	  000490   LSL     R18
2591	12380	  000492   ROL     R19
2592	12381	  000494   LPM      R16,Z+
2593	12384	  000496   LPM      R17,Z
2594	12387	  000498   ADD     R18,R16
2595	12388	  00049A   ADC     R19,R17
2596	12389	  00049C   LSR     R19
2597	12390	  00049E   ROR     R18
2598	12391	  0004A0   POP     R30
2599	12393	  0004A2   POP     R31
2600	12395	  0004A4   PUSH    R18
2601	12397	  0004A6   PUSH    R19
2602	12399	  0004A8   LD      R19,Y+
2603	12401	  0004AA   LD      R18,Y+
2604	12403	  0004AC   OUT     SREG,R18
2605	12404	  0004AE   LD      R18,Y+
2606	12406	  0004B0   LD      R16,Y+
2607	12408	  0004B2   LD      R17,Y+
2608	12410	  0004B4   RET
		??nFImmufaRDZlaTMCOTTUooRpXCfRJ:
2609	12414	  000FF8   ST      -Y,R17
2610	12416	  000FFA   ST      -Y,R16
2611	12418	  000FFC   ST      -Y,R17
2612	12420	  000FFE   ST      -Y,R16
2613	12422	  001000   LDI     R17,0x00
2614	12423	  001002   LDI     R16,0x2D
2615	12424	  001004   JMP     ??qpQLuPnEUlJCOQbkVsgBFJkeFRkBB
		??qpQLuPnEUlJCOQbkVsgBFJkeFRkBB:
2616	12427	  000C24   ST      -Y,R18
2617	12429	  000C26   IN      R18,SREG
2618	12430	  000C28   ST      -Y,R18
2619	12432	  000C2A   CALL    avmp_handler
		avmp_handler:
2620	12436	  00047A   ST      -Y,R19
2621	12438	  00047C   POP     R19
2622	12440	  00047E   POP     R18
2623	12442	  000480   PUSH    R31
2624	12444	  000482   PUSH    R30
2625	12446	  000484   MOV     R31,R19
2626	12447	  000486   MOV     R30,R18
2627	12448	  000488   ADD     R30,R16
2628	12449	  00048A   ADC     R31,R17
2629	12450	  00048C   LSL     R30
2630	12451	  00048E   ROL     R31
2631	12452	  000490   LSL     R18
2632	12453	  000492   ROL     R19
2633	12454	  000494   LPM      R16,Z+
2634	12457	  000496   LPM      R17,Z
2635	12460	  000498   ADD     R18,R16
2636	12461	  00049A   ADC     R19,R17
2637	12462	  00049C   LSR     R19
2638	12463	  00049E   ROR     R18
2639	12464	  0004A0   POP     R30
2640	12466	  0004A2   POP     R31
2641	12468	  0004A4   PUSH    R18
2642	12470	  0004A6   PUSH    R19
2643	12472	  0004A8   LD      R19,Y+
2644	12474	  0004AA   LD      R18,Y+
2645	12476	  0004AC   OUT     SREG,R18
2646	12477	  0004AE   LD      R18,Y+
2647	12479	  0004B0   LD      R16,Y+
2648	12481	  0004B2   LD      R17,Y+
2649	12483	  0004B4   RET
		??LMSRsLLcGKYlsKghQoEpClpJBCccx:
2650	12487	  001008   LDI     R22,0x04
2651	12488	  00100A   LDI     R23,0x00
2652	12489	  00100C   ST      -Y,R17
2653	12491	  00100E   ST      -Y,R16
2654	12493	  001010   LDI     R17,0x00
2655	12494	  001012   LDI     R16,0x2E
2656	12495	  001014   JMP     ??qpQLuPnEUlJCOQbkVsgBFJkeFRkBB
		??qpQLuPnEUlJCOQbkVsgBFJkeFRkBB:
2657	12498	  000C24   ST      -Y,R18
2658	12500	  000C26   IN      R18,SREG
2659	12501	  000C28   ST      -Y,R18
2660	12503	  000C2A   CALL    avmp_handler
		avmp_handler:
2661	12507	  00047A   ST      -Y,R19
2662	12509	  00047C   POP     R19
2663	12511	  00047E   POP     R18
2664	12513	  000480   PUSH    R31
2665	12515	  000482   PUSH    R30
2666	12517	  000484   MOV     R31,R19
2667	12518	  000486   MOV     R30,R18
2668	12519	  000488   ADD     R30,R16
2669	12520	  00048A   ADC     R31,R17
2670	12521	  00048C   LSL     R30
2671	12522	  00048E   ROL     R31
2672	12523	  000490   LSL     R18
2673	12524	  000492   ROL     R19
2674	12525	  000494   LPM      R16,Z+
2675	12528	  000496   LPM      R17,Z
2676	12531	  000498   ADD     R18,R16
2677	12532	  00049A   ADC     R19,R17
2678	12533	  00049C   LSR     R19
2679	12534	  00049E   ROR     R18
2680	12535	  0004A0   POP     R30
2681	12537	  0004A2   POP     R31
2682	12539	  0004A4   PUSH    R18
2683	12541	  0004A6   PUSH    R19
2684	12543	  0004A8   LD      R19,Y+
2685	12545	  0004AA   LD      R18,Y+
2686	12547	  0004AC   OUT     SREG,R18
2687	12548	  0004AE   LD      R18,Y+
2688	12550	  0004B0   LD      R16,Y+
2689	12552	  0004B2   LD      R17,Y+
2690	12554	  0004B4   RET
		??PNuaDYpaPRNSWkeULJULNeYejGbsh:
2691	12558	  001018   LDI     R20,0x03
2692	12559	  00101A   LDI     R21,0x00
2693	12560	  00101C   ST      -Y,R17
2694	12562	  00101E   ST      -Y,R16
2695	12564	  001020   LDI     R17,0x00
2696	12565	  001022   LDI     R16,0x2F
2697	12566	  001024   JMP     ??qpQLuPnEUlJCOQbkVsgBFJkeFRkBB
		??qpQLuPnEUlJCOQbkVsgBFJkeFRkBB:
2698	12569	  000C24   ST      -Y,R18
2699	12571	  000C26   IN      R18,SREG
2700	12572	  000C28   ST      -Y,R18
2701	12574	  000C2A   CALL    avmp_handler
		avmp_handler:
2702	12578	  00047A   ST      -Y,R19
2703	12580	  00047C   POP     R19
2704	12582	  00047E   POP     R18
2705	12584	  000480   PUSH    R31
2706	12586	  000482   PUSH    R30
2707	12588	  000484   MOV     R31,R19
2708	12589	  000486   MOV     R30,R18
2709	12590	  000488   ADD     R30,R16
2710	12591	  00048A   ADC     R31,R17
2711	12592	  00048C   LSL     R30
2712	12593	  00048E   ROL     R31
2713	12594	  000490   LSL     R18
2714	12595	  000492   ROL     R19
2715	12596	  000494   LPM      R16,Z+
2716	12599	  000496   LPM      R17,Z
2717	12602	  000498   ADD     R18,R16
2718	12603	  00049A   ADC     R19,R17
2719	12604	  00049C   LSR     R19
2720	12605	  00049E   ROR     R18
2721	12606	  0004A0   POP     R30
2722	12608	  0004A2   POP     R31
2723	12610	  0004A4   PUSH    R18
2724	12612	  0004A6   PUSH    R19
2725	12614	  0004A8   LD      R19,Y+
2726	12616	  0004AA   LD      R18,Y+
2727	12618	  0004AC   OUT     SREG,R18
2728	12619	  0004AE   LD      R18,Y+
2729	12621	  0004B0   LD      R16,Y+
2730	12623	  0004B2   LD      R17,Y+
2731	12625	  0004B4   RET
		??zWgYSwdOYPdAdGKlugKfAKZcFMUCZ:
2732	12629	  001028   LDI     R18,0x02
2733	12630	  00102A   LDI     R19,0x00
2734	12631	  00102C   ST      -Y,R17
2735	12633	  00102E   ST      -Y,R16
2736	12635	  001030   LDI     R17,0x00
2737	12636	  001032   LDI     R16,0x30
2738	12637	  001034   JMP     ??qpQLuPnEUlJCOQbkVsgBFJkeFRkBB
		??qpQLuPnEUlJCOQbkVsgBFJkeFRkBB:
2739	12640	  000C24   ST      -Y,R18
2740	12642	  000C26   IN      R18,SREG
2741	12643	  000C28   ST      -Y,R18
2742	12645	  000C2A   CALL    avmp_handler
		avmp_handler:
2743	12649	  00047A   ST      -Y,R19
2744	12651	  00047C   POP     R19
2745	12653	  00047E   POP     R18
2746	12655	  000480   PUSH    R31
2747	12657	  000482   PUSH    R30
2748	12659	  000484   MOV     R31,R19
2749	12660	  000486   MOV     R30,R18
2750	12661	  000488   ADD     R30,R16
2751	12662	  00048A   ADC     R31,R17
2752	12663	  00048C   LSL     R30
2753	12664	  00048E   ROL     R31
2754	12665	  000490   LSL     R18
2755	12666	  000492   ROL     R19
2756	12667	  000494   LPM      R16,Z+
2757	12670	  000496   LPM      R17,Z
2758	12673	  000498   ADD     R18,R16
2759	12674	  00049A   ADC     R19,R17
2760	12675	  00049C   LSR     R19
2761	12676	  00049E   ROR     R18
2762	12677	  0004A0   POP     R30
2763	12679	  0004A2   POP     R31
2764	12681	  0004A4   PUSH    R18
2765	12683	  0004A6   PUSH    R19
2766	12685	  0004A8   LD      R19,Y+
2767	12687	  0004AA   LD      R18,Y+
2768	12689	  0004AC   OUT     SREG,R18
2769	12690	  0004AE   LD      R18,Y+
2770	12692	  0004B0   LD      R16,Y+
2771	12694	  0004B2   LD      R17,Y+
2772	12696	  0004B4   RET
		??rCprhcAoRIzcoXsTSHiDrRwkXarNi:
2773	12700	  001038   LDI     R16,0x01
2774	12701	  00103A   LDI     R17,0x00
2775	12702	  00103C   ST      -Y,R17
2776	12704	  00103E   ST      -Y,R16
2777	12706	  001040   LDI     R17,0x00
2778	12707	  001042   LDI     R16,0x31
2779	12708	  001044   JMP     ??qpQLuPnEUlJCOQbkVsgBFJkeFRkBB
		??qpQLuPnEUlJCOQbkVsgBFJkeFRkBB:
2780	12711	  000C24   ST      -Y,R18
2781	12713	  000C26   IN      R18,SREG
2782	12714	  000C28   ST      -Y,R18
2783	12716	  000C2A   CALL    avmp_handler
		avmp_handler:
2784	12720	  00047A   ST      -Y,R19
2785	12722	  00047C   POP     R19
2786	12724	  00047E   POP     R18
2787	12726	  000480   PUSH    R31
2788	12728	  000482   PUSH    R30
2789	12730	  000484   MOV     R31,R19
2790	12731	  000486   MOV     R30,R18
2791	12732	  000488   ADD     R30,R16
2792	12733	  00048A   ADC     R31,R17
2793	12734	  00048C   LSL     R30
2794	12735	  00048E   ROL     R31
2795	12736	  000490   LSL     R18
2796	12737	  000492   ROL     R19
2797	12738	  000494   LPM      R16,Z+
2798	12741	  000496   LPM      R17,Z
2799	12744	  000498   ADD     R18,R16
2800	12745	  00049A   ADC     R19,R17
2801	12746	  00049C   LSR     R19
2802	12747	  00049E   ROR     R18
2803	12748	  0004A0   POP     R30
2804	12750	  0004A2   POP     R31
2805	12752	  0004A4   PUSH    R18
2806	12754	  0004A6   PUSH    R19
2807	12756	  0004A8   LD      R19,Y+
2808	12758	  0004AA   LD      R18,Y+
2809	12760	  0004AC   OUT     SREG,R18
2810	12761	  0004AE   LD      R18,Y+
2811	12763	  0004B0   LD      R16,Y+
2812	12765	  0004B2   LD      R17,Y+
2813	12767	  0004B4   RET
		??rKscofZaTUvYCnhCZhktbIxUGXBVD:
2814	12771	  001048   CALL    TestParam6
		TestParam6:
2815	12775	  000776   ST      -Y,R17
2816	12777	  000778   ST      -Y,R16
2817	12779	  00077A   LDI     R17,0x00
2818	12780	  00077C   LDI     R16,0x02
		??PACWjvKuNkBfbgcGHVEjOLdSWMdAU:
2819	12781	  00077E   ST      -Y,R18
2820	12783	  000780   IN      R18,SREG
2821	12784	  000782   ST      -Y,R18
2822	12786	  000784   CALL    avmp_handler
		avmp_handler:
2823	12790	  00047A   ST      -Y,R19
2824	12792	  00047C   POP     R19
2825	12794	  00047E   POP     R18
2826	12796	  000480   PUSH    R31
2827	12798	  000482   PUSH    R30
2828	12800	  000484   MOV     R31,R19
2829	12801	  000486   MOV     R30,R18
2830	12802	  000488   ADD     R30,R16
2831	12803	  00048A   ADC     R31,R17
2832	12804	  00048C   LSL     R30
2833	12805	  00048E   ROL     R31
2834	12806	  000490   LSL     R18
2835	12807	  000492   ROL     R19
2836	12808	  000494   LPM      R16,Z+
2837	12811	  000496   LPM      R17,Z
2838	12814	  000498   ADD     R18,R16
2839	12815	  00049A   ADC     R19,R17
2840	12816	  00049C   LSR     R19
2841	12817	  00049E   ROR     R18
2842	12818	  0004A0   POP     R30
2843	12820	  0004A2   POP     R31
2844	12822	  0004A4   PUSH    R18
2845	12824	  0004A6   PUSH    R19
2846	12826	  0004A8   LD      R19,Y+
2847	12828	  0004AA   LD      R18,Y+
2848	12830	  0004AC   OUT     SREG,R18
2849	12831	  0004AE   LD      R18,Y+
2850	12833	  0004B0   LD      R16,Y+
2851	12835	  0004B2   LD      R17,Y+
2852	12837	  0004B4   RET
		??TyEAMyiEYfPhVVJHHbLbzSPMKdNjj:
2853	12841	  0007AA   ADD     R16,R18
2854	12842	  0007AC   ADC     R17,R19
2855	12843	  0007AE   ST      -Y,R17
2856	12845	  0007B0   ST      -Y,R16
2857	12847	  0007B2   LDI     R17,0x00
2858	12848	  0007B4   LDI     R16,0x03
2859	12849	  0007B6   JMP     ??PACWjvKuNkBfbgcGHVEjOLdSWMdAU
		??PACWjvKuNkBfbgcGHVEjOLdSWMdAU:
2860	12852	  00077E   ST      -Y,R18
2861	12854	  000780   IN      R18,SREG
2862	12855	  000782   ST      -Y,R18
2863	12857	  000784   CALL    avmp_handler
		avmp_handler:
2864	12861	  00047A   ST      -Y,R19
2865	12863	  00047C   POP     R19
2866	12865	  00047E   POP     R18
2867	12867	  000480   PUSH    R31
2868	12869	  000482   PUSH    R30
2869	12871	  000484   MOV     R31,R19
2870	12872	  000486   MOV     R30,R18
2871	12873	  000488   ADD     R30,R16
2872	12874	  00048A   ADC     R31,R17
2873	12875	  00048C   LSL     R30
2874	12876	  00048E   ROL     R31
2875	12877	  000490   LSL     R18
2876	12878	  000492   ROL     R19
2877	12879	  000494   LPM      R16,Z+
2878	12882	  000496   LPM      R17,Z
2879	12885	  000498   ADD     R18,R16
2880	12886	  00049A   ADC     R19,R17
2881	12887	  00049C   LSR     R19
2882	12888	  00049E   ROR     R18
2883	12889	  0004A0   POP     R30
2884	12891	  0004A2   POP     R31
2885	12893	  0004A4   PUSH    R18
2886	12895	  0004A6   PUSH    R19
2887	12897	  0004A8   LD      R19,Y+
2888	12899	  0004AA   LD      R18,Y+
2889	12901	  0004AC   OUT     SREG,R18
2890	12902	  0004AE   LD      R18,Y+
2891	12904	  0004B0   LD      R16,Y+
2892	12906	  0004B2   LD      R17,Y+
2893	12908	  0004B4   RET
		??MwCLmeYDWyTTqmfCTMpWZRyJVFqFn:
2894	12912	  0007BA   ADD     R16,R20
2895	12913	  0007BC   ADC     R17,R21
2896	12914	  0007BE   ST      -Y,R17
2897	12916	  0007C0   ST      -Y,R16
2898	12918	  0007C2   LDI     R17,0x00
2899	12919	  0007C4   LDI     R16,0x04
2900	12920	  0007C6   JMP     ??PACWjvKuNkBfbgcGHVEjOLdSWMdAU
		??PACWjvKuNkBfbgcGHVEjOLdSWMdAU:
2901	12923	  00077E   ST      -Y,R18
2902	12925	  000780   IN      R18,SREG
2903	12926	  000782   ST      -Y,R18
2904	12928	  000784   CALL    avmp_handler
		avmp_handler:
2905	12932	  00047A   ST      -Y,R19
2906	12934	  00047C   POP     R19
2907	12936	  00047E   POP     R18
2908	12938	  000480   PUSH    R31
2909	12940	  000482   PUSH    R30
2910	12942	  000484   MOV     R31,R19
2911	12943	  000486   MOV     R30,R18
2912	12944	  000488   ADD     R30,R16
2913	12945	  00048A   ADC     R31,R17
2914	12946	  00048C   LSL     R30
2915	12947	  00048E   ROL     R31
2916	12948	  000490   LSL     R18
2917	12949	  000492   ROL     R19
2918	12950	  000494   LPM      R16,Z+
2919	12953	  000496   LPM      R17,Z
2920	12956	  000498   ADD     R18,R16
2921	12957	  00049A   ADC     R19,R17
2922	12958	  00049C   LSR     R19
2923	12959	  00049E   ROR     R18
2924	12960	  0004A0   POP     R30
2925	12962	  0004A2   POP     R31
2926	12964	  0004A4   PUSH    R18
2927	12966	  0004A6   PUSH    R19
2928	12968	  0004A8   LD      R19,Y+
2929	12970	  0004AA   LD      R18,Y+
2930	12972	  0004AC   OUT     SREG,R18
2931	12973	  0004AE   LD      R18,Y+
2932	12975	  0004B0   LD      R16,Y+
2933	12977	  0004B2   LD      R17,Y+
2934	12979	  0004B4   RET
		??lxnKstpSgIUXUXsmXplDfcPzJURoi:
2935	12983	  0007CA   ADD     R16,R22
2936	12984	  0007CC   ADC     R17,R23
2937	12985	  0007CE   ST      -Y,R17
2938	12987	  0007D0   ST      -Y,R16
2939	12989	  0007D2   LDI     R17,0x00
2940	12990	  0007D4   LDI     R16,0x05
2941	12991	  0007D6   JMP     ??PACWjvKuNkBfbgcGHVEjOLdSWMdAU
		??PACWjvKuNkBfbgcGHVEjOLdSWMdAU:
2942	12994	  00077E   ST      -Y,R18
2943	12996	  000780   IN      R18,SREG
2944	12997	  000782   ST      -Y,R18
2945	12999	  000784   CALL    avmp_handler
		avmp_handler:
2946	13003	  00047A   ST      -Y,R19
2947	13005	  00047C   POP     R19
2948	13007	  00047E   POP     R18
2949	13009	  000480   PUSH    R31
2950	13011	  000482   PUSH    R30
2951	13013	  000484   MOV     R31,R19
2952	13014	  000486   MOV     R30,R18
2953	13015	  000488   ADD     R30,R16
2954	13016	  00048A   ADC     R31,R17
2955	13017	  00048C   LSL     R30
2956	13018	  00048E   ROL     R31
2957	13019	  000490   LSL     R18
2958	13020	  000492   ROL     R19
2959	13021	  000494   LPM      R16,Z+
2960	13024	  000496   LPM      R17,Z
2961	13027	  000498   ADD     R18,R16
2962	13028	  00049A   ADC     R19,R17
2963	13029	  00049C   LSR     R19
2964	13030	  00049E   ROR     R18
2965	13031	  0004A0   POP     R30
2966	13033	  0004A2   POP     R31
2967	13035	  0004A4   PUSH    R18
2968	13037	  0004A6   PUSH    R19
2969	13039	  0004A8   LD      R19,Y+
2970	13041	  0004AA   LD      R18,Y+
2971	13043	  0004AC   OUT     SREG,R18
2972	13044	  0004AE   LD      R18,Y+
2973	13046	  0004B0   LD      R16,Y+
2974	13048	  0004B2   LD      R17,Y+
2975	13050	  0004B4   RET
		??OuqHSXQPXiccmKODvcTVdWSyAmfNO:
2976	13054	  0007DA   LD      R18,Y
2977	13056	  0007DC   LDD     R19,Y+1
2978	13058	  0007DE   ST      -Y,R17
2979	13060	  0007E0   ST      -Y,R16
2980	13062	  0007E2   LDI     R17,0x00
2981	13063	  0007E4   LDI     R16,0x06
2982	13064	  0007E6   JMP     ??PACWjvKuNkBfbgcGHVEjOLdSWMdAU
		??PACWjvKuNkBfbgcGHVEjOLdSWMdAU:
2983	13067	  00077E   ST      -Y,R18
2984	13069	  000780   IN      R18,SREG
2985	13070	  000782   ST      -Y,R18
2986	13072	  000784   CALL    avmp_handler
		avmp_handler:
2987	13076	  00047A   ST      -Y,R19
2988	13078	  00047C   POP     R19
2989	13080	  00047E   POP     R18
2990	13082	  000480   PUSH    R31
2991	13084	  000482   PUSH    R30
2992	13086	  000484   MOV     R31,R19
2993	13087	  000486   MOV     R30,R18
2994	13088	  000488   ADD     R30,R16
2995	13089	  00048A   ADC     R31,R17
2996	13090	  00048C   LSL     R30
2997	13091	  00048E   ROL     R31
2998	13092	  000490   LSL     R18
2999	13093	  000492   ROL     R19
3000	13094	  000494   LPM      R16,Z+
3001	13097	  000496   LPM      R17,Z
3002	13100	  000498   ADD     R18,R16
3003	13101	  00049A   ADC     R19,R17
3004	13102	  00049C   LSR     R19
3005	13103	  00049E   ROR     R18
3006	13104	  0004A0   POP     R30
3007	13106	  0004A2   POP     R31
3008	13108	  0004A4   PUSH    R18
3009	13110	  0004A6   PUSH    R19
3010	13112	  0004A8   LD      R19,Y+
3011	13114	  0004AA   LD      R18,Y+
3012	13116	  0004AC   OUT     SREG,R18
3013	13117	  0004AE   LD      R18,Y+
3014	13119	  0004B0   LD      R16,Y+
3015	13121	  0004B2   LD      R17,Y+
3016	13123	  0004B4   RET
		??oKvhZIFFtPnXAZveEPMFkbUvIsmGC:
3017	13127	  0007EA   ADD     R16,R18
3018	13128	  0007EC   ADC     R17,R19
3019	13129	  0007EE   ST      -Y,R17
3020	13131	  0007F0   ST      -Y,R16
3021	13133	  0007F2   LDI     R17,0x00
3022	13134	  0007F4   LDI     R16,0x07
3023	13135	  0007F6   JMP     ??PACWjvKuNkBfbgcGHVEjOLdSWMdAU
		??PACWjvKuNkBfbgcGHVEjOLdSWMdAU:
3024	13138	  00077E   ST      -Y,R18
3025	13140	  000780   IN      R18,SREG
3026	13141	  000782   ST      -Y,R18
3027	13143	  000784   CALL    avmp_handler
		avmp_handler:
3028	13147	  00047A   ST      -Y,R19
3029	13149	  00047C   POP     R19
3030	13151	  00047E   POP     R18
3031	13153	  000480   PUSH    R31
3032	13155	  000482   PUSH    R30
3033	13157	  000484   MOV     R31,R19
3034	13158	  000486   MOV     R30,R18
3035	13159	  000488   ADD     R30,R16
3036	13160	  00048A   ADC     R31,R17
3037	13161	  00048C   LSL     R30
3038	13162	  00048E   ROL     R31
3039	13163	  000490   LSL     R18
3040	13164	  000492   ROL     R19
3041	13165	  000494   LPM      R16,Z+
3042	13168	  000496   LPM      R17,Z
3043	13171	  000498   ADD     R18,R16
3044	13172	  00049A   ADC     R19,R17
3045	13173	  00049C   LSR     R19
3046	13174	  00049E   ROR     R18
3047	13175	  0004A0   POP     R30
3048	13177	  0004A2   POP     R31
3049	13179	  0004A4   PUSH    R18
3050	13181	  0004A6   PUSH    R19
3051	13183	  0004A8   LD      R19,Y+
3052	13185	  0004AA   LD      R18,Y+
3053	13187	  0004AC   OUT     SREG,R18
3054	13188	  0004AE   LD      R18,Y+
3055	13190	  0004B0   LD      R16,Y+
3056	13192	  0004B2   LD      R17,Y+
3057	13194	  0004B4   RET
		??yBqdrhsFAbPqirOGpNjSvAQwIlNpT:
3058	13198	  0007FA   LDD     R18,Y+2
3059	13200	  0007FC   LDD     R19,Y+3
3060	13202	  0007FE   ST      -Y,R17
3061	13204	  000800   ST      -Y,R16
3062	13206	  000802   LDI     R17,0x00
3063	13207	  000804   LDI     R16,0x08
3064	13208	  000806   JMP     ??PACWjvKuNkBfbgcGHVEjOLdSWMdAU
		??PACWjvKuNkBfbgcGHVEjOLdSWMdAU:
3065	13211	  00077E   ST      -Y,R18
3066	13213	  000780   IN      R18,SREG
3067	13214	  000782   ST      -Y,R18
3068	13216	  000784   CALL    avmp_handler
		avmp_handler:
3069	13220	  00047A   ST      -Y,R19
3070	13222	  00047C   POP     R19
3071	13224	  00047E   POP     R18
3072	13226	  000480   PUSH    R31
3073	13228	  000482   PUSH    R30
3074	13230	  000484   MOV     R31,R19
3075	13231	  000486   MOV     R30,R18
3076	13232	  000488   ADD     R30,R16
3077	13233	  00048A   ADC     R31,R17
3078	13234	  00048C   LSL     R30
3079	13235	  00048E   ROL     R31
3080	13236	  000490   LSL     R18
3081	13237	  000492   ROL     R19
3082	13238	  000494   LPM      R16,Z+
3083	13241	  000496   LPM      R17,Z
3084	13244	  000498   ADD     R18,R16
3085	13245	  00049A   ADC     R19,R17
3086	13246	  00049C   LSR     R19
3087	13247	  00049E   ROR     R18
3088	13248	  0004A0   POP     R30
3089	13250	  0004A2   POP     R31
3090	13252	  0004A4   PUSH    R18
3091	13254	  0004A6   PUSH    R19
3092	13256	  0004A8   LD      R19,Y+
3093	13258	  0004AA   LD      R18,Y+
3094	13260	  0004AC   OUT     SREG,R18
3095	13261	  0004AE   LD      R18,Y+
3096	13263	  0004B0   LD      R16,Y+
3097	13265	  0004B2   LD      R17,Y+
3098	13267	  0004B4   RET
		??ksDxidpZzCGfdsTDKKQMajiPEtFlA:
3099	13271	  00080A   ADD     R16,R18
3100	13272	  00080C   ADC     R17,R19
3101	13273	  00080E   ST      -Y,R17
3102	13275	  000810   ST      -Y,R16
3103	13277	  000812   LDI     R17,0x00
3104	13278	  000814   LDI     R16,0x01
3105	13279	  000816   JMP     ??PACWjvKuNkBfbgcGHVEjOLdSWMdAU
		??PACWjvKuNkBfbgcGHVEjOLdSWMdAU:
3106	13282	  00077E   ST      -Y,R18
3107	13284	  000780   IN      R18,SREG
3108	13285	  000782   ST      -Y,R18
3109	13287	  000784   CALL    avmp_handler
		avmp_handler:
3110	13291	  00047A   ST      -Y,R19
3111	13293	  00047C   POP     R19
3112	13295	  00047E   POP     R18
3113	13297	  000480   PUSH    R31
3114	13299	  000482   PUSH    R30
3115	13301	  000484   MOV     R31,R19
3116	13302	  000486   MOV     R30,R18
3117	13303	  000488   ADD     R30,R16
3118	13304	  00048A   ADC     R31,R17
3119	13305	  00048C   LSL     R30
3120	13306	  00048E   ROL     R31
3121	13307	  000490   LSL     R18
3122	13308	  000492   ROL     R19
3123	13309	  000494   LPM      R16,Z+
3124	13312	  000496   LPM      R17,Z
3125	13315	  000498   ADD     R18,R16
3126	13316	  00049A   ADC     R19,R17
3127	13317	  00049C   LSR     R19
3128	13318	  00049E   ROR     R18
3129	13319	  0004A0   POP     R30
3130	13321	  0004A2   POP     R31
3131	13323	  0004A4   PUSH    R18
3132	13325	  0004A6   PUSH    R19
3133	13327	  0004A8   LD      R19,Y+
3134	13329	  0004AA   LD      R18,Y+
3135	13331	  0004AC   OUT     SREG,R18
3136	13332	  0004AE   LD      R18,Y+
3137	13334	  0004B0   LD      R16,Y+
3138	13336	  0004B2   LD      R17,Y+
3139	13338	  0004B4   RET
		??GOszOaWLuLGgIAOpPJUIpCvNYUqTI:
3140	13342	  00079C   ADIW    R28,4
3141	13344	  00079E   ST      -Y,R17
3142	13346	  0007A0   ST      -Y,R16
3143	13348	  0007A2   LDI     R17,0x00
3144	13349	  0007A4   LDI     R16,0x09
3145	13350	  0007A6   JMP     ??PACWjvKuNkBfbgcGHVEjOLdSWMdAU
		??PACWjvKuNkBfbgcGHVEjOLdSWMdAU:
3146	13353	  00077E   ST      -Y,R18
3147	13355	  000780   IN      R18,SREG
3148	13356	  000782   ST      -Y,R18
3149	13358	  000784   CALL    avmp_handler
		avmp_handler:
3150	13362	  00047A   ST      -Y,R19
3151	13364	  00047C   POP     R19
3152	13366	  00047E   POP     R18
3153	13368	  000480   PUSH    R31
3154	13370	  000482   PUSH    R30
3155	13372	  000484   MOV     R31,R19
3156	13373	  000486   MOV     R30,R18
3157	13374	  000488   ADD     R30,R16
3158	13375	  00048A   ADC     R31,R17
3159	13376	  00048C   LSL     R30
3160	13377	  00048E   ROL     R31
3161	13378	  000490   LSL     R18
3162	13379	  000492   ROL     R19
3163	13380	  000494   LPM      R16,Z+
3164	13383	  000496   LPM      R17,Z
3165	13386	  000498   ADD     R18,R16
3166	13387	  00049A   ADC     R19,R17
3167	13388	  00049C   LSR     R19
3168	13389	  00049E   ROR     R18
3169	13390	  0004A0   POP     R30
3170	13392	  0004A2   POP     R31
3171	13394	  0004A4   PUSH    R18
3172	13396	  0004A6   PUSH    R19
3173	13398	  0004A8   LD      R19,Y+
3174	13400	  0004AA   LD      R18,Y+
3175	13402	  0004AC   OUT     SREG,R18
3176	13403	  0004AE   LD      R18,Y+
3177	13405	  0004B0   LD      R16,Y+
3178	13407	  0004B2   LD      R17,Y+
3179	13409	  0004B4   RET
		??fafbWshnDZbJoNnWIbbzlmKjppDXY:
3180	13413	  00081A   RET
3181	13417	  00104C   LD      R18,Y
3182	13419	  00104E   ST      -Y,R17
3183	13421	  001050   ST      -Y,R16
3184	13423	  001052   LDI     R17,0x00
3185	13424	  001054   LDI     R16,0x32
3186	13425	  001056   JMP     ??qpQLuPnEUlJCOQbkVsgBFJkeFRkBB
		??qpQLuPnEUlJCOQbkVsgBFJkeFRkBB:
3187	13428	  000C24   ST      -Y,R18
3188	13430	  000C26   IN      R18,SREG
3189	13431	  000C28   ST      -Y,R18
3190	13433	  000C2A   CALL    avmp_handler
		avmp_handler:
3191	13437	  00047A   ST      -Y,R19
3192	13439	  00047C   POP     R19
3193	13441	  00047E   POP     R18
3194	13443	  000480   PUSH    R31
3195	13445	  000482   PUSH    R30
3196	13447	  000484   MOV     R31,R19
3197	13448	  000486   MOV     R30,R18
3198	13449	  000488   ADD     R30,R16
3199	13450	  00048A   ADC     R31,R17
3200	13451	  00048C   LSL     R30
3201	13452	  00048E   ROL     R31
3202	13453	  000490   LSL     R18
3203	13454	  000492   ROL     R19
3204	13455	  000494   LPM      R16,Z+
3205	13458	  000496   LPM      R17,Z
3206	13461	  000498   ADD     R18,R16
3207	13462	  00049A   ADC     R19,R17
3208	13463	  00049C   LSR     R19
3209	13464	  00049E   ROR     R18
3210	13465	  0004A0   POP     R30
3211	13467	  0004A2   POP     R31
3212	13469	  0004A4   PUSH    R18
3213	13471	  0004A6   PUSH    R19
3214	13473	  0004A8   LD      R19,Y+
3215	13475	  0004AA   LD      R18,Y+
3216	13477	  0004AC   OUT     SREG,R18
3217	13478	  0004AE   LD      R18,Y+
3218	13480	  0004B0   LD      R16,Y+
3219	13482	  0004B2   LD      R17,Y+
3220	13484	  0004B4   RET
		??UQlSkZYWNvNqyCESZPBAvepWlARat:
3221	13488	  00105A   LDD     R19,Y+1
3222	13490	  00105C   ADD     R18,R16
3223	13491	  00105E   ST      -Y,R17
3224	13493	  001060   ST      -Y,R16
3225	13495	  001062   LDI     R17,0x00
3226	13496	  001064   LDI     R16,0x33
3227	13497	  001066   JMP     ??qpQLuPnEUlJCOQbkVsgBFJkeFRkBB
		??qpQLuPnEUlJCOQbkVsgBFJkeFRkBB:
3228	13500	  000C24   ST      -Y,R18
3229	13502	  000C26   IN      R18,SREG
3230	13503	  000C28   ST      -Y,R18
3231	13505	  000C2A   CALL    avmp_handler
		avmp_handler:
3232	13509	  00047A   ST      -Y,R19
3233	13511	  00047C   POP     R19
3234	13513	  00047E   POP     R18
3235	13515	  000480   PUSH    R31
3236	13517	  000482   PUSH    R30
3237	13519	  000484   MOV     R31,R19
3238	13520	  000486   MOV     R30,R18
3239	13521	  000488   ADD     R30,R16
3240	13522	  00048A   ADC     R31,R17
3241	13523	  00048C   LSL     R30
3242	13524	  00048E   ROL     R31
3243	13525	  000490   LSL     R18
3244	13526	  000492   ROL     R19
3245	13527	  000494   LPM      R16,Z+
3246	13530	  000496   LPM      R17,Z
3247	13533	  000498   ADD     R18,R16
3248	13534	  00049A   ADC     R19,R17
3249	13535	  00049C   LSR     R19
3250	13536	  00049E   ROR     R18
3251	13537	  0004A0   POP     R30
3252	13539	  0004A2   POP     R31
3253	13541	  0004A4   PUSH    R18
3254	13543	  0004A6   PUSH    R19
3255	13545	  0004A8   LD      R19,Y+
3256	13547	  0004AA   LD      R18,Y+
3257	13549	  0004AC   OUT     SREG,R18
3258	13550	  0004AE   LD      R18,Y+
3259	13552	  0004B0   LD      R16,Y+
3260	13554	  0004B2   LD      R17,Y+
3261	13556	  0004B4   RET
		??hisRcCJLfuWxhdFINIsdPXfKQPDYy:
3262	13560	  00106A   ADC     R19,R17
3263	13561	  00106C   ST      Y,R18
3264	13563	  00106E   ST      -Y,R17
3265	13565	  001070   ST      -Y,R16
3266	13567	  001072   LDI     R17,0x00
3267	13568	  001074   LDI     R16,0x34
3268	13569	  001076   JMP     ??qpQLuPnEUlJCOQbkVsgBFJkeFRkBB
		??qpQLuPnEUlJCOQbkVsgBFJkeFRkBB:
3269	13572	  000C24   ST      -Y,R18
3270	13574	  000C26   IN      R18,SREG
3271	13575	  000C28   ST      -Y,R18
3272	13577	  000C2A   CALL    avmp_handler
		avmp_handler:
3273	13581	  00047A   ST      -Y,R19
3274	13583	  00047C   POP     R19
3275	13585	  00047E   POP     R18
3276	13587	  000480   PUSH    R31
3277	13589	  000482   PUSH    R30
3278	13591	  000484   MOV     R31,R19
3279	13592	  000486   MOV     R30,R18
3280	13593	  000488   ADD     R30,R16
3281	13594	  00048A   ADC     R31,R17
3282	13595	  00048C   LSL     R30
3283	13596	  00048E   ROL     R31
3284	13597	  000490   LSL     R18
3285	13598	  000492   ROL     R19
3286	13599	  000494   LPM      R16,Z+
3287	13602	  000496   LPM      R17,Z
3288	13605	  000498   ADD     R18,R16
3289	13606	  00049A   ADC     R19,R17
3290	13607	  00049C   LSR     R19
3291	13608	  00049E   ROR     R18
3292	13609	  0004A0   POP     R30
3293	13611	  0004A2   POP     R31
3294	13613	  0004A4   PUSH    R18
3295	13615	  0004A6   PUSH    R19
3296	13617	  0004A8   LD      R19,Y+
3297	13619	  0004AA   LD      R18,Y+
3298	13621	  0004AC   OUT     SREG,R18
3299	13622	  0004AE   LD      R18,Y+
3300	13624	  0004B0   LD      R16,Y+
3301	13626	  0004B2   LD      R17,Y+
3302	13628	  0004B4   RET
		??qTRxwqNxFUAKZPcvpwJqjrXGTyfQc:
3303	13632	  00107A   STD     Y+1,R19
3304	13634	  00107C   LDI     R16,0x07
3305	13635	  00107E   ST      -Y,R17
3306	13637	  001080   ST      -Y,R16
3307	13639	  001082   LDI     R17,0x00
3308	13640	  001084   LDI     R16,0x35
3309	13641	  001086   JMP     ??qpQLuPnEUlJCOQbkVsgBFJkeFRkBB
		??qpQLuPnEUlJCOQbkVsgBFJkeFRkBB:
3310	13644	  000C24   ST      -Y,R18
3311	13646	  000C26   IN      R18,SREG
3312	13647	  000C28   ST      -Y,R18
3313	13649	  000C2A   CALL    avmp_handler
		avmp_handler:
3314	13653	  00047A   ST      -Y,R19
3315	13655	  00047C   POP     R19
3316	13657	  00047E   POP     R18
3317	13659	  000480   PUSH    R31
3318	13661	  000482   PUSH    R30
3319	13663	  000484   MOV     R31,R19
3320	13664	  000486   MOV     R30,R18
3321	13665	  000488   ADD     R30,R16
3322	13666	  00048A   ADC     R31,R17
3323	13667	  00048C   LSL     R30
3324	13668	  00048E   ROL     R31
3325	13669	  000490   LSL     R18
3326	13670	  000492   ROL     R19
3327	13671	  000494   LPM      R16,Z+
3328	13674	  000496   LPM      R17,Z
3329	13677	  000498   ADD     R18,R16
3330	13678	  00049A   ADC     R19,R17
3331	13679	  00049C   LSR     R19
3332	13680	  00049E   ROR     R18
3333	13681	  0004A0   POP     R30
3334	13683	  0004A2   POP     R31
3335	13685	  0004A4   PUSH    R18
3336	13687	  0004A6   PUSH    R19
3337	13689	  0004A8   LD      R19,Y+
3338	13691	  0004AA   LD      R18,Y+
3339	13693	  0004AC   OUT     SREG,R18
3340	13694	  0004AE   LD      R18,Y+
3341	13696	  0004B0   LD      R16,Y+
3342	13698	  0004B2   LD      R17,Y+
3343	13700	  0004B4   RET
		??UsZeAqDAUmeXpQCXKzolbnZwPAOFi:
3344	13704	  00108A   LDI     R17,0x00
3345	13705	  00108C   ST      -Y,R17
3346	13707	  00108E   ST      -Y,R17
3347	13709	  001090   ST      -Y,R16
3348	13711	  001092   LDI     R17,0x00
3349	13712	  001094   LDI     R16,0x36
3350	13713	  001096   JMP     ??qpQLuPnEUlJCOQbkVsgBFJkeFRkBB
		??qpQLuPnEUlJCOQbkVsgBFJkeFRkBB:
3351	13716	  000C24   ST      -Y,R18
3352	13718	  000C26   IN      R18,SREG
3353	13719	  000C28   ST      -Y,R18
3354	13721	  000C2A   CALL    avmp_handler
		avmp_handler:
3355	13725	  00047A   ST      -Y,R19
3356	13727	  00047C   POP     R19
3357	13729	  00047E   POP     R18
3358	13731	  000480   PUSH    R31
3359	13733	  000482   PUSH    R30
3360	13735	  000484   MOV     R31,R19
3361	13736	  000486   MOV     R30,R18
3362	13737	  000488   ADD     R30,R16
3363	13738	  00048A   ADC     R31,R17
3364	13739	  00048C   LSL     R30
3365	13740	  00048E   ROL     R31
3366	13741	  000490   LSL     R18
3367	13742	  000492   ROL     R19
3368	13743	  000494   LPM      R16,Z+
3369	13746	  000496   LPM      R17,Z
3370	13749	  000498   ADD     R18,R16
3371	13750	  00049A   ADC     R19,R17
3372	13751	  00049C   LSR     R19
3373	13752	  00049E   ROR     R18
3374	13753	  0004A0   POP     R30
3375	13755	  0004A2   POP     R31
3376	13757	  0004A4   PUSH    R18
3377	13759	  0004A6   PUSH    R19
3378	13761	  0004A8   LD      R19,Y+
3379	13763	  0004AA   LD      R18,Y+
3380	13765	  0004AC   OUT     SREG,R18
3381	13766	  0004AE   LD      R18,Y+
3382	13768	  0004B0   LD      R16,Y+
3383	13770	  0004B2   LD      R17,Y+
3384	13772	  0004B4   RET
		??OTTdlNvhyqlSpgeMPBqNspGLTSXjQ:
3385	13776	  00109A   ST      -Y,R16
3386	13778	  00109C   LDI     R16,0x06
3387	13779	  00109E   ST      -Y,R17
3388	13781	  0010A0   ST      -Y,R16
3389	13783	  0010A2   LDI     R17,0x00
3390	13784	  0010A4   LDI     R16,0x37
3391	13785	  0010A6   JMP     ??qpQLuPnEUlJCOQbkVsgBFJkeFRkBB
		??qpQLuPnEUlJCOQbkVsgBFJkeFRkBB:
3392	13788	  000C24   ST      -Y,R18
3393	13790	  000C26   IN      R18,SREG
3394	13791	  000C28   ST      -Y,R18
3395	13793	  000C2A   CALL    avmp_handler
		avmp_handler:
3396	13797	  00047A   ST      -Y,R19
3397	13799	  00047C   POP     R19
3398	13801	  00047E   POP     R18
3399	13803	  000480   PUSH    R31
3400	13805	  000482   PUSH    R30
3401	13807	  000484   MOV     R31,R19
3402	13808	  000486   MOV     R30,R18
3403	13809	  000488   ADD     R30,R16
3404	13810	  00048A   ADC     R31,R17
3405	13811	  00048C   LSL     R30
3406	13812	  00048E   ROL     R31
3407	13813	  000490   LSL     R18
3408	13814	  000492   ROL     R19
3409	13815	  000494   LPM      R16,Z+
3410	13818	  000496   LPM      R17,Z
3411	13821	  000498   ADD     R18,R16
3412	13822	  00049A   ADC     R19,R17
3413	13823	  00049C   LSR     R19
3414	13824	  00049E   ROR     R18
3415	13825	  0004A0   POP     R30
3416	13827	  0004A2   POP     R31
3417	13829	  0004A4   PUSH    R18
3418	13831	  0004A6   PUSH    R19
3419	13833	  0004A8   LD      R19,Y+
3420	13835	  0004AA   LD      R18,Y+
3421	13837	  0004AC   OUT     SREG,R18
3422	13838	  0004AE   LD      R18,Y+
3423	13840	  0004B0   LD      R16,Y+
3424	13842	  0004B2   LD      R17,Y+
3425	13844	  0004B4   RET
		??ECYNmXJLZGPrFYgHAPKqxPBTHqeHf:
3426	13848	  0010AA   LDI     R17,0x00
3427	13849	  0010AC   ST      -Y,R17
3428	13851	  0010AE   ST      -Y,R17
3429	13853	  0010B0   ST      -Y,R16
3430	13855	  0010B2   LDI     R17,0x00
3431	13856	  0010B4   LDI     R16,0x38
3432	13857	  0010B6   JMP     ??qpQLuPnEUlJCOQbkVsgBFJkeFRkBB
		??qpQLuPnEUlJCOQbkVsgBFJkeFRkBB:
3433	13860	  000C24   ST      -Y,R18
3434	13862	  000C26   IN      R18,SREG
3435	13863	  000C28   ST      -Y,R18
3436	13865	  000C2A   CALL    avmp_handler
		avmp_handler:
3437	13869	  00047A   ST      -Y,R19
3438	13871	  00047C   POP     R19
3439	13873	  00047E   POP     R18
3440	13875	  000480   PUSH    R31
3441	13877	  000482   PUSH    R30
3442	13879	  000484   MOV     R31,R19
3443	13880	  000486   MOV     R30,R18
3444	13881	  000488   ADD     R30,R16
3445	13882	  00048A   ADC     R31,R17
3446	13883	  00048C   LSL     R30
3447	13884	  00048E   ROL     R31
3448	13885	  000490   LSL     R18
3449	13886	  000492   ROL     R19
3450	13887	  000494   LPM      R16,Z+
3451	13890	  000496   LPM      R17,Z
3452	13893	  000498   ADD     R18,R16
3453	13894	  00049A   ADC     R19,R17
3454	13895	  00049C   LSR     R19
3455	13896	  00049E   ROR     R18
3456	13897	  0004A0   POP     R30
3457	13899	  0004A2   POP     R31
3458	13901	  0004A4   PUSH    R18
3459	13903	  0004A6   PUSH    R19
3460	13905	  0004A8   LD      R19,Y+
3461	13907	  0004AA   LD      R18,Y+
3462	13909	  0004AC   OUT     SREG,R18
3463	13910	  0004AE   LD      R18,Y+
3464	13912	  0004B0   LD      R16,Y+
3465	13914	  0004B2   LD      R17,Y+
3466	13916	  0004B4   RET
		??mQizPZSqhVWIirInhogVqBuBoSoQZ:
3467	13920	  0010BA   ST      -Y,R16
3468	13922	  0010BC   LDI     R16,0x05
3469	13923	  0010BE   ST      -Y,R17
3470	13925	  0010C0   ST      -Y,R16
3471	13927	  0010C2   LDI     R17,0x00
3472	13928	  0010C4   LDI     R16,0x39
3473	13929	  0010C6   JMP     ??qpQLuPnEUlJCOQbkVsgBFJkeFRkBB
		??qpQLuPnEUlJCOQbkVsgBFJkeFRkBB:
3474	13932	  000C24   ST      -Y,R18
3475	13934	  000C26   IN      R18,SREG
3476	13935	  000C28   ST      -Y,R18
3477	13937	  000C2A   CALL    avmp_handler
		avmp_handler:
3478	13941	  00047A   ST      -Y,R19
3479	13943	  00047C   POP     R19
3480	13945	  00047E   POP     R18
3481	13947	  000480   PUSH    R31
3482	13949	  000482   PUSH    R30
3483	13951	  000484   MOV     R31,R19
3484	13952	  000486   MOV     R30,R18
3485	13953	  000488   ADD     R30,R16
3486	13954	  00048A   ADC     R31,R17
3487	13955	  00048C   LSL     R30
3488	13956	  00048E   ROL     R31
3489	13957	  000490   LSL     R18
3490	13958	  000492   ROL     R19
3491	13959	  000494   LPM      R16,Z+
3492	13962	  000496   LPM      R17,Z
3493	13965	  000498   ADD     R18,R16
3494	13966	  00049A   ADC     R19,R17
3495	13967	  00049C   LSR     R19
3496	13968	  00049E   ROR     R18
3497	13969	  0004A0   POP     R30
3498	13971	  0004A2   POP     R31
3499	13973	  0004A4   PUSH    R18
3500	13975	  0004A6   PUSH    R19
3501	13977	  0004A8   LD      R19,Y+
3502	13979	  0004AA   LD      R18,Y+
3503	13981	  0004AC   OUT     SREG,R18
3504	13982	  0004AE   LD      R18,Y+
3505	13984	  0004B0   LD      R16,Y+
3506	13986	  0004B2   LD      R17,Y+
3507	13988	  0004B4   RET
		??dGPFNhpzAzAnvhzgzUYxwFVcwpXWM:
3508	13992	  0010CA   LDI     R17,0x00
3509	13993	  0010CC   ST      -Y,R17
3510	13995	  0010CE   ST      -Y,R17
3511	13997	  0010D0   ST      -Y,R16
3512	13999	  0010D2   LDI     R17,0x00
3513	14000	  0010D4   LDI     R16,0x3A
3514	14001	  0010D6   JMP     ??qpQLuPnEUlJCOQbkVsgBFJkeFRkBB
		??qpQLuPnEUlJCOQbkVsgBFJkeFRkBB:
3515	14004	  000C24   ST      -Y,R18
3516	14006	  000C26   IN      R18,SREG
3517	14007	  000C28   ST      -Y,R18
3518	14009	  000C2A   CALL    avmp_handler
		avmp_handler:
3519	14013	  00047A   ST      -Y,R19
3520	14015	  00047C   POP     R19
3521	14017	  00047E   POP     R18
3522	14019	  000480   PUSH    R31
3523	14021	  000482   PUSH    R30
3524	14023	  000484   MOV     R31,R19
3525	14024	  000486   MOV     R30,R18
3526	14025	  000488   ADD     R30,R16
3527	14026	  00048A   ADC     R31,R17
3528	14027	  00048C   LSL     R30
3529	14028	  00048E   ROL     R31
3530	14029	  000490   LSL     R18
3531	14030	  000492   ROL     R19
3532	14031	  000494   LPM      R16,Z+
3533	14034	  000496   LPM      R17,Z
3534	14037	  000498   ADD     R18,R16
3535	14038	  00049A   ADC     R19,R17
3536	14039	  00049C   LSR     R19
3537	14040	  00049E   ROR     R18
3538	14041	  0004A0   POP     R30
3539	14043	  0004A2   POP     R31
3540	14045	  0004A4   PUSH    R18
3541	14047	  0004A6   PUSH    R19
3542	14049	  0004A8   LD      R19,Y+
3543	14051	  0004AA   LD      R18,Y+
3544	14053	  0004AC   OUT     SREG,R18
3545	14054	  0004AE   LD      R18,Y+
3546	14056	  0004B0   LD      R16,Y+
3547	14058	  0004B2   LD      R17,Y+
3548	14060	  0004B4   RET
		??vKeFatypIFhfEKgiJIXmGJzkhwtJk:
3549	14064	  0010DA   ST      -Y,R16
3550	14066	  0010DC   LDI     R22,0x04
3551	14067	  0010DE   ST      -Y,R17
3552	14069	  0010E0   ST      -Y,R16
3553	14071	  0010E2   LDI     R17,0x00
3554	14072	  0010E4   LDI     R16,0x3B
3555	14073	  0010E6   JMP     ??qpQLuPnEUlJCOQbkVsgBFJkeFRkBB
		??qpQLuPnEUlJCOQbkVsgBFJkeFRkBB:
3556	14076	  000C24   ST      -Y,R18
3557	14078	  000C26   IN      R18,SREG
3558	14079	  000C28   ST      -Y,R18
3559	14081	  000C2A   CALL    avmp_handler
		avmp_handler:
3560	14085	  00047A   ST      -Y,R19
3561	14087	  00047C   POP     R19
3562	14089	  00047E   POP     R18
3563	14091	  000480   PUSH    R31
3564	14093	  000482   PUSH    R30
3565	14095	  000484   MOV     R31,R19
3566	14096	  000486   MOV     R30,R18
3567	14097	  000488   ADD     R30,R16
3568	14098	  00048A   ADC     R31,R17
3569	14099	  00048C   LSL     R30
3570	14100	  00048E   ROL     R31
3571	14101	  000490   LSL     R18
3572	14102	  000492   ROL     R19
3573	14103	  000494   LPM      R16,Z+
3574	14106	  000496   LPM      R17,Z
3575	14109	  000498   ADD     R18,R16
3576	14110	  00049A   ADC     R19,R17
3577	14111	  00049C   LSR     R19
3578	14112	  00049E   ROR     R18
3579	14113	  0004A0   POP     R30
3580	14115	  0004A2   POP     R31
3581	14117	  0004A4   PUSH    R18
3582	14119	  0004A6   PUSH    R19
3583	14121	  0004A8   LD      R19,Y+
3584	14123	  0004AA   LD      R18,Y+
3585	14125	  0004AC   OUT     SREG,R18
3586	14126	  0004AE   LD      R18,Y+
3587	14128	  0004B0   LD      R16,Y+
3588	14130	  0004B2   LD      R17,Y+
3589	14132	  0004B4   RET
		??ySsKEpFwserEifPOzGgssUnBWlhhD:
3590	14136	  0010EA   LDI     R23,0x00
3591	14137	  0010EC   LDI     R20,0x03
3592	14138	  0010EE   ST      -Y,R17
3593	14140	  0010F0   ST      -Y,R16
3594	14142	  0010F2   LDI     R17,0x00
3595	14143	  0010F4   LDI     R16,0x3C
3596	14144	  0010F6   JMP     ??qpQLuPnEUlJCOQbkVsgBFJkeFRkBB
		??qpQLuPnEUlJCOQbkVsgBFJkeFRkBB:
3597	14147	  000C24   ST      -Y,R18
3598	14149	  000C26   IN      R18,SREG
3599	14150	  000C28   ST      -Y,R18
3600	14152	  000C2A   CALL    avmp_handler
		avmp_handler:
3601	14156	  00047A   ST      -Y,R19
3602	14158	  00047C   POP     R19
3603	14160	  00047E   POP     R18
3604	14162	  000480   PUSH    R31
3605	14164	  000482   PUSH    R30
3606	14166	  000484   MOV     R31,R19
3607	14167	  000486   MOV     R30,R18
3608	14168	  000488   ADD     R30,R16
3609	14169	  00048A   ADC     R31,R17
3610	14170	  00048C   LSL     R30
3611	14171	  00048E   ROL     R31
3612	14172	  000490   LSL     R18
3613	14173	  000492   ROL     R19
3614	14174	  000494   LPM      R16,Z+
3615	14177	  000496   LPM      R17,Z
3616	14180	  000498   ADD     R18,R16
3617	14181	  00049A   ADC     R19,R17
3618	14182	  00049C   LSR     R19
3619	14183	  00049E   ROR     R18
3620	14184	  0004A0   POP     R30
3621	14186	  0004A2   POP     R31
3622	14188	  0004A4   PUSH    R18
3623	14190	  0004A6   PUSH    R19
3624	14192	  0004A8   LD      R19,Y+
3625	14194	  0004AA   LD      R18,Y+
3626	14196	  0004AC   OUT     SREG,R18
3627	14197	  0004AE   LD      R18,Y+
3628	14199	  0004B0   LD      R16,Y+
3629	14201	  0004B2   LD      R17,Y+
3630	14203	  0004B4   RET
		??GJHkmPrIZyEasjUTdQzYGipsoOszT:
3631	14207	  0010FA   LDI     R21,0x00
3632	14208	  0010FC   LDI     R18,0x02
3633	14209	  0010FE   ST      -Y,R17
3634	14211	  001100   ST      -Y,R16
3635	14213	  001102   LDI     R17,0x00
3636	14214	  001104   LDI     R16,0x3D
3637	14215	  001106   JMP     ??qpQLuPnEUlJCOQbkVsgBFJkeFRkBB
		??qpQLuPnEUlJCOQbkVsgBFJkeFRkBB:
3638	14218	  000C24   ST      -Y,R18
3639	14220	  000C26   IN      R18,SREG
3640	14221	  000C28   ST      -Y,R18
3641	14223	  000C2A   CALL    avmp_handler
		avmp_handler:
3642	14227	  00047A   ST      -Y,R19
3643	14229	  00047C   POP     R19
3644	14231	  00047E   POP     R18
3645	14233	  000480   PUSH    R31
3646	14235	  000482   PUSH    R30
3647	14237	  000484   MOV     R31,R19
3648	14238	  000486   MOV     R30,R18
3649	14239	  000488   ADD     R30,R16
3650	14240	  00048A   ADC     R31,R17
3651	14241	  00048C   LSL     R30
3652	14242	  00048E   ROL     R31
3653	14243	  000490   LSL     R18
3654	14244	  000492   ROL     R19
3655	14245	  000494   LPM      R16,Z+
3656	14248	  000496   LPM      R17,Z
3657	14251	  000498   ADD     R18,R16
3658	14252	  00049A   ADC     R19,R17
3659	14253	  00049C   LSR     R19
3660	14254	  00049E   ROR     R18
3661	14255	  0004A0   POP     R30
3662	14257	  0004A2   POP     R31
3663	14259	  0004A4   PUSH    R18
3664	14261	  0004A6   PUSH    R19
3665	14263	  0004A8   LD      R19,Y+
3666	14265	  0004AA   LD      R18,Y+
3667	14267	  0004AC   OUT     SREG,R18
3668	14268	  0004AE   LD      R18,Y+
3669	14270	  0004B0   LD      R16,Y+
3670	14272	  0004B2   LD      R17,Y+
3671	14274	  0004B4   RET
		??RoxAZdSJxxLqxisZshQZMAOztGwyj:
3672	14278	  00110A   LDI     R19,0x00
3673	14279	  00110C   LDI     R16,0x01
3674	14280	  00110E   ST      -Y,R17
3675	14282	  001110   ST      -Y,R16
3676	14284	  001112   LDI     R17,0x00
3677	14285	  001114   LDI     R16,0x3E
3678	14286	  001116   JMP     ??qpQLuPnEUlJCOQbkVsgBFJkeFRkBB
		??qpQLuPnEUlJCOQbkVsgBFJkeFRkBB:
3679	14289	  000C24   ST      -Y,R18
3680	14291	  000C26   IN      R18,SREG
3681	14292	  000C28   ST      -Y,R18
3682	14294	  000C2A   CALL    avmp_handler
		avmp_handler:
3683	14298	  00047A   ST      -Y,R19
3684	14300	  00047C   POP     R19
3685	14302	  00047E   POP     R18
3686	14304	  000480   PUSH    R31
3687	14306	  000482   PUSH    R30
3688	14308	  000484   MOV     R31,R19
3689	14309	  000486   MOV     R30,R18
3690	14310	  000488   ADD     R30,R16
3691	14311	  00048A   ADC     R31,R17
3692	14312	  00048C   LSL     R30
3693	14313	  00048E   ROL     R31
3694	14314	  000490   LSL     R18
3695	14315	  000492   ROL     R19
3696	14316	  000494   LPM      R16,Z+
3697	14319	  000496   LPM      R17,Z
3698	14322	  000498   ADD     R18,R16
3699	14323	  00049A   ADC     R19,R17
3700	14324	  00049C   LSR     R19
3701	14325	  00049E   ROR     R18
3702	14326	  0004A0   POP     R30
3703	14328	  0004A2   POP     R31
3704	14330	  0004A4   PUSH    R18
3705	14332	  0004A6   PUSH    R19
3706	14334	  0004A8   LD      R19,Y+
3707	14336	  0004AA   LD      R18,Y+
3708	14338	  0004AC   OUT     SREG,R18
3709	14339	  0004AE   LD      R18,Y+
3710	14341	  0004B0   LD      R16,Y+
3711	14343	  0004B2   LD      R17,Y+
3712	14345	  0004B4   RET
		??BVBcMyJwiEdXUcSMrOoDLJMoDRPer:
3713	14349	  00111A   LDI     R17,0x00
3714	14350	  00111C   CALL    TestParam7
		TestParam7:
3715	14354	  00081C   ST      -Y,R17
3716	14356	  00081E   ST      -Y,R16
3717	14358	  000820   LDI     R17,0x00
3718	14359	  000822   LDI     R16,0x02
		??ZnFCpuPGLbOgrQkeqjwTlcZZJkIVO:
3719	14360	  000824   ST      -Y,R18
3720	14362	  000826   IN      R18,SREG
3721	14363	  000828   ST      -Y,R18
3722	14365	  00082A   CALL    avmp_handler
		avmp_handler:
3723	14369	  00047A   ST      -Y,R19
3724	14371	  00047C   POP     R19
3725	14373	  00047E   POP     R18
3726	14375	  000480   PUSH    R31
3727	14377	  000482   PUSH    R30
3728	14379	  000484   MOV     R31,R19
3729	14380	  000486   MOV     R30,R18
3730	14381	  000488   ADD     R30,R16
3731	14382	  00048A   ADC     R31,R17
3732	14383	  00048C   LSL     R30
3733	14384	  00048E   ROL     R31
3734	14385	  000490   LSL     R18
3735	14386	  000492   ROL     R19
3736	14387	  000494   LPM      R16,Z+
3737	14390	  000496   LPM      R17,Z
3738	14393	  000498   ADD     R18,R16
3739	14394	  00049A   ADC     R19,R17
3740	14395	  00049C   LSR     R19
3741	14396	  00049E   ROR     R18
3742	14397	  0004A0   POP     R30
3743	14399	  0004A2   POP     R31
3744	14401	  0004A4   PUSH    R18
3745	14403	  0004A6   PUSH    R19
3746	14405	  0004A8   LD      R19,Y+
3747	14407	  0004AA   LD      R18,Y+
3748	14409	  0004AC   OUT     SREG,R18
3749	14410	  0004AE   LD      R18,Y+
3750	14412	  0004B0   LD      R16,Y+
3751	14414	  0004B2   LD      R17,Y+
3752	14416	  0004B4   RET
		??EJvIyQhyXRrUECdmQHnKqpscrgqHw:
3753	14420	  000854   ADD     R16,R18
3754	14421	  000856   ADC     R17,R19
3755	14422	  000858   ST      -Y,R17
3756	14424	  00085A   ST      -Y,R16
3757	14426	  00085C   LDI     R17,0x00
3758	14427	  00085E   LDI     R16,0x03
3759	14428	  000860   JMP     ??ZnFCpuPGLbOgrQkeqjwTlcZZJkIVO
		??ZnFCpuPGLbOgrQkeqjwTlcZZJkIVO:
3760	14431	  000824   ST      -Y,R18
3761	14433	  000826   IN      R18,SREG
3762	14434	  000828   ST      -Y,R18
3763	14436	  00082A   CALL    avmp_handler
		avmp_handler:
3764	14440	  00047A   ST      -Y,R19
3765	14442	  00047C   POP     R19
3766	14444	  00047E   POP     R18
3767	14446	  000480   PUSH    R31
3768	14448	  000482   PUSH    R30
3769	14450	  000484   MOV     R31,R19
3770	14451	  000486   MOV     R30,R18
3771	14452	  000488   ADD     R30,R16
3772	14453	  00048A   ADC     R31,R17
3773	14454	  00048C   LSL     R30
3774	14455	  00048E   ROL     R31
3775	14456	  000490   LSL     R18
3776	14457	  000492   ROL     R19
3777	14458	  000494   LPM      R16,Z+
3778	14461	  000496   LPM      R17,Z
3779	14464	  000498   ADD     R18,R16
3780	14465	  00049A   ADC     R19,R17
3781	14466	  00049C   LSR     R19
3782	14467	  00049E   ROR     R18
3783	14468	  0004A0   POP     R30
3784	14470	  0004A2   POP     R31
3785	14472	  0004A4   PUSH    R18
3786	14474	  0004A6   PUSH    R19
3787	14476	  0004A8   LD      R19,Y+
3788	14478	  0004AA   LD      R18,Y+
3789	14480	  0004AC   OUT     SREG,R18
3790	14481	  0004AE   LD      R18,Y+
3791	14483	  0004B0   LD      R16,Y+
3792	14485	  0004B2   LD      R17,Y+
3793	14487	  0004B4   RET
		??qqzKPLbVuGsJwEuKZazJXROqDqBMa:
3794	14491	  000864   ADD     R16,R20
3795	14492	  000866   ADC     R17,R21
3796	14493	  000868   ST      -Y,R17
3797	14495	  00086A   ST      -Y,R16
3798	14497	  00086C   LDI     R17,0x00
3799	14498	  00086E   LDI     R16,0x04
3800	14499	  000870   JMP     ??ZnFCpuPGLbOgrQkeqjwTlcZZJkIVO
		??ZnFCpuPGLbOgrQkeqjwTlcZZJkIVO:
3801	14502	  000824   ST      -Y,R18
3802	14504	  000826   IN      R18,SREG
3803	14505	  000828   ST      -Y,R18
3804	14507	  00082A   CALL    avmp_handler
		avmp_handler:
3805	14511	  00047A   ST      -Y,R19
3806	14513	  00047C   POP     R19
3807	14515	  00047E   POP     R18
3808	14517	  000480   PUSH    R31
3809	14519	  000482   PUSH    R30
3810	14521	  000484   MOV     R31,R19
3811	14522	  000486   MOV     R30,R18
3812	14523	  000488   ADD     R30,R16
3813	14524	  00048A   ADC     R31,R17
3814	14525	  00048C   LSL     R30
3815	14526	  00048E   ROL     R31
3816	14527	  000490   LSL     R18
3817	14528	  000492   ROL     R19
3818	14529	  000494   LPM      R16,Z+
3819	14532	  000496   LPM      R17,Z
3820	14535	  000498   ADD     R18,R16
3821	14536	  00049A   ADC     R19,R17
3822	14537	  00049C   LSR     R19
3823	14538	  00049E   ROR     R18
3824	14539	  0004A0   POP     R30
3825	14541	  0004A2   POP     R31
3826	14543	  0004A4   PUSH    R18
3827	14545	  0004A6   PUSH    R19
3828	14547	  0004A8   LD      R19,Y+
3829	14549	  0004AA   LD      R18,Y+
3830	14551	  0004AC   OUT     SREG,R18
3831	14552	  0004AE   LD      R18,Y+
3832	14554	  0004B0   LD      R16,Y+
3833	14556	  0004B2   LD      R17,Y+
3834	14558	  0004B4   RET
		??QFxtfOTSxXXgAEKPqgYxnALpmveWA:
3835	14562	  000874   ADD     R16,R22
3836	14563	  000876   ADC     R17,R23
3837	14564	  000878   ST      -Y,R17
3838	14566	  00087A   ST      -Y,R16
3839	14568	  00087C   LDI     R17,0x00
3840	14569	  00087E   LDI     R16,0x05
3841	14570	  000880   JMP     ??ZnFCpuPGLbOgrQkeqjwTlcZZJkIVO
		??ZnFCpuPGLbOgrQkeqjwTlcZZJkIVO:
3842	14573	  000824   ST      -Y,R18
3843	14575	  000826   IN      R18,SREG
3844	14576	  000828   ST      -Y,R18
3845	14578	  00082A   CALL    avmp_handler
		avmp_handler:
3846	14582	  00047A   ST      -Y,R19
3847	14584	  00047C   POP     R19
3848	14586	  00047E   POP     R18
3849	14588	  000480   PUSH    R31
3850	14590	  000482   PUSH    R30
3851	14592	  000484   MOV     R31,R19
3852	14593	  000486   MOV     R30,R18
3853	14594	  000488   ADD     R30,R16
3854	14595	  00048A   ADC     R31,R17
3855	14596	  00048C   LSL     R30
3856	14597	  00048E   ROL     R31
3857	14598	  000490   LSL     R18
3858	14599	  000492   ROL     R19
3859	14600	  000494   LPM      R16,Z+
3860	14603	  000496   LPM      R17,Z
3861	14606	  000498   ADD     R18,R16
3862	14607	  00049A   ADC     R19,R17
3863	14608	  00049C   LSR     R19
3864	14609	  00049E   ROR     R18
3865	14610	  0004A0   POP     R30
3866	14612	  0004A2   POP     R31
3867	14614	  0004A4   PUSH    R18
3868	14616	  0004A6   PUSH    R19
3869	14618	  0004A8   LD      R19,Y+
3870	14620	  0004AA   LD      R18,Y+
3871	14622	  0004AC   OUT     SREG,R18
3872	14623	  0004AE   LD      R18,Y+
3873	14625	  0004B0   LD      R16,Y+
3874	14627	  0004B2   LD      R17,Y+
3875	14629	  0004B4   RET
		??KYxVwhlYcXJooIEeLmQvcialfoxii:
3876	14633	  000884   LD      R18,Y
3877	14635	  000886   LDD     R19,Y+1
3878	14637	  000888   ST      -Y,R17
3879	14639	  00088A   ST      -Y,R16
3880	14641	  00088C   LDI     R17,0x00
3881	14642	  00088E   LDI     R16,0x06
3882	14643	  000890   JMP     ??ZnFCpuPGLbOgrQkeqjwTlcZZJkIVO
		??ZnFCpuPGLbOgrQkeqjwTlcZZJkIVO:
3883	14646	  000824   ST      -Y,R18
3884	14648	  000826   IN      R18,SREG
3885	14649	  000828   ST      -Y,R18
3886	14651	  00082A   CALL    avmp_handler
		avmp_handler:
3887	14655	  00047A   ST      -Y,R19
3888	14657	  00047C   POP     R19
3889	14659	  00047E   POP     R18
3890	14661	  000480   PUSH    R31
3891	14663	  000482   PUSH    R30
3892	14665	  000484   MOV     R31,R19
3893	14666	  000486   MOV     R30,R18
3894	14667	  000488   ADD     R30,R16
3895	14668	  00048A   ADC     R31,R17
3896	14669	  00048C   LSL     R30
3897	14670	  00048E   ROL     R31
3898	14671	  000490   LSL     R18
3899	14672	  000492   ROL     R19
3900	14673	  000494   LPM      R16,Z+
3901	14676	  000496   LPM      R17,Z
3902	14679	  000498   ADD     R18,R16
3903	14680	  00049A   ADC     R19,R17
3904	14681	  00049C   LSR     R19
3905	14682	  00049E   ROR     R18
3906	14683	  0004A0   POP     R30
3907	14685	  0004A2   POP     R31
3908	14687	  0004A4   PUSH    R18
3909	14689	  0004A6   PUSH    R19
3910	14691	  0004A8   LD      R19,Y+
3911	14693	  0004AA   LD      R18,Y+
3912	14695	  0004AC   OUT     SREG,R18
3913	14696	  0004AE   LD      R18,Y+
3914	14698	  0004B0   LD      R16,Y+
3915	14700	  0004B2   LD      R17,Y+
3916	14702	  0004B4   RET
		??MuEOJaurDKoGJWViAjKBKLbavYTuR:
3917	14706	  000894   ADD     R16,R18
3918	14707	  000896   ADC     R17,R19
3919	14708	  000898   ST      -Y,R17
3920	14710	  00089A   ST      -Y,R16
3921	14712	  00089C   LDI     R17,0x00
3922	14713	  00089E   LDI     R16,0x07
3923	14714	  0008A0   JMP     ??ZnFCpuPGLbOgrQkeqjwTlcZZJkIVO
		??ZnFCpuPGLbOgrQkeqjwTlcZZJkIVO:
3924	14717	  000824   ST      -Y,R18
3925	14719	  000826   IN      R18,SREG
3926	14720	  000828   ST      -Y,R18
3927	14722	  00082A   CALL    avmp_handler
		avmp_handler:
3928	14726	  00047A   ST      -Y,R19
3929	14728	  00047C   POP     R19
3930	14730	  00047E   POP     R18
3931	14732	  000480   PUSH    R31
3932	14734	  000482   PUSH    R30
3933	14736	  000484   MOV     R31,R19
3934	14737	  000486   MOV     R30,R18
3935	14738	  000488   ADD     R30,R16
3936	14739	  00048A   ADC     R31,R17
3937	14740	  00048C   LSL     R30
3938	14741	  00048E   ROL     R31
3939	14742	  000490   LSL     R18
3940	14743	  000492   ROL     R19
3941	14744	  000494   LPM      R16,Z+
3942	14747	  000496   LPM      R17,Z
3943	14750	  000498   ADD     R18,R16
3944	14751	  00049A   ADC     R19,R17
3945	14752	  00049C   LSR     R19
3946	14753	  00049E   ROR     R18
3947	14754	  0004A0   POP     R30
3948	14756	  0004A2   POP     R31
3949	14758	  0004A4   PUSH    R18
3950	14760	  0004A6   PUSH    R19
3951	14762	  0004A8   LD      R19,Y+
3952	14764	  0004AA   LD      R18,Y+
3953	14766	  0004AC   OUT     SREG,R18
3954	14767	  0004AE   LD      R18,Y+
3955	14769	  0004B0   LD      R16,Y+
3956	14771	  0004B2   LD      R17,Y+
3957	14773	  0004B4   RET
		??DwZkLLMHPAbsqJnTqTTVnkOVwjOEM:
3958	14777	  0008A4   LDD     R18,Y+2
3959	14779	  0008A6   LDD     R19,Y+3
3960	14781	  0008A8   ST      -Y,R17
3961	14783	  0008AA   ST      -Y,R16
3962	14785	  0008AC   LDI     R17,0x00
3963	14786	  0008AE   LDI     R16,0x08
3964	14787	  0008B0   JMP     ??ZnFCpuPGLbOgrQkeqjwTlcZZJkIVO
		??ZnFCpuPGLbOgrQkeqjwTlcZZJkIVO:
3965	14790	  000824   ST      -Y,R18
3966	14792	  000826   IN      R18,SREG
3967	14793	  000828   ST      -Y,R18
3968	14795	  00082A   CALL    avmp_handler
		avmp_handler:
3969	14799	  00047A   ST      -Y,R19
3970	14801	  00047C   POP     R19
3971	14803	  00047E   POP     R18
3972	14805	  000480   PUSH    R31
3973	14807	  000482   PUSH    R30
3974	14809	  000484   MOV     R31,R19
3975	14810	  000486   MOV     R30,R18
3976	14811	  000488   ADD     R30,R16
3977	14812	  00048A   ADC     R31,R17
3978	14813	  00048C   LSL     R30
3979	14814	  00048E   ROL     R31
3980	14815	  000490   LSL     R18
3981	14816	  000492   ROL     R19
3982	14817	  000494   LPM      R16,Z+
3983	14820	  000496   LPM      R17,Z
3984	14823	  000498   ADD     R18,R16
3985	14824	  00049A   ADC     R19,R17
3986	14825	  00049C   LSR     R19
3987	14826	  00049E   ROR     R18
3988	14827	  0004A0   POP     R30
3989	14829	  0004A2   POP     R31
3990	14831	  0004A4   PUSH    R18
3991	14833	  0004A6   PUSH    R19
3992	14835	  0004A8   LD      R19,Y+
3993	14837	  0004AA   LD      R18,Y+
3994	14839	  0004AC   OUT     SREG,R18
3995	14840	  0004AE   LD      R18,Y+
3996	14842	  0004B0   LD      R16,Y+
3997	14844	  0004B2   LD      R17,Y+
3998	14846	  0004B4   RET
		??tdkAxrOBnxPAnCIJwzaKpHsBEZwMT:
3999	14850	  0008B4   ADD     R16,R18
4000	14851	  0008B6   ADC     R17,R19
4001	14852	  0008B8   ST      -Y,R17
4002	14854	  0008BA   ST      -Y,R16
4003	14856	  0008BC   LDI     R17,0x00
4004	14857	  0008BE   LDI     R16,0x09
4005	14858	  0008C0   JMP     ??ZnFCpuPGLbOgrQkeqjwTlcZZJkIVO
		??ZnFCpuPGLbOgrQkeqjwTlcZZJkIVO:
4006	14861	  000824   ST      -Y,R18
4007	14863	  000826   IN      R18,SREG
4008	14864	  000828   ST      -Y,R18
4009	14866	  00082A   CALL    avmp_handler
		avmp_handler:
4010	14870	  00047A   ST      -Y,R19
4011	14872	  00047C   POP     R19
4012	14874	  00047E   POP     R18
4013	14876	  000480   PUSH    R31
4014	14878	  000482   PUSH    R30
4015	14880	  000484   MOV     R31,R19
4016	14881	  000486   MOV     R30,R18
4017	14882	  000488   ADD     R30,R16
4018	14883	  00048A   ADC     R31,R17
4019	14884	  00048C   LSL     R30
4020	14885	  00048E   ROL     R31
4021	14886	  000490   LSL     R18
4022	14887	  000492   ROL     R19
4023	14888	  000494   LPM      R16,Z+
4024	14891	  000496   LPM      R17,Z
4025	14894	  000498   ADD     R18,R16
4026	14895	  00049A   ADC     R19,R17
4027	14896	  00049C   LSR     R19
4028	14897	  00049E   ROR     R18
4029	14898	  0004A0   POP     R30
4030	14900	  0004A2   POP     R31
4031	14902	  0004A4   PUSH    R18
4032	14904	  0004A6   PUSH    R19
4033	14906	  0004A8   LD      R19,Y+
4034	14908	  0004AA   LD      R18,Y+
4035	14910	  0004AC   OUT     SREG,R18
4036	14911	  0004AE   LD      R18,Y+
4037	14913	  0004B0   LD      R16,Y+
4038	14915	  0004B2   LD      R17,Y+
4039	14917	  0004B4   RET
		??kAdlKiRYDCaGhXLFGVyYvOkvifgUr:
4040	14921	  0008C4   LDD     R18,Y+4
4041	14923	  0008C6   LDD     R19,Y+5
4042	14925	  0008C8   ST      -Y,R17
4043	14927	  0008CA   ST      -Y,R16
4044	14929	  0008CC   LDI     R17,0x00
4045	14930	  0008CE   LDI     R16,0x0A
4046	14931	  0008D0   JMP     ??ZnFCpuPGLbOgrQkeqjwTlcZZJkIVO
		??ZnFCpuPGLbOgrQkeqjwTlcZZJkIVO:
4047	14934	  000824   ST      -Y,R18
4048	14936	  000826   IN      R18,SREG
4049	14937	  000828   ST      -Y,R18
4050	14939	  00082A   CALL    avmp_handler
		avmp_handler:
4051	14943	  00047A   ST      -Y,R19
4052	14945	  00047C   POP     R19
4053	14947	  00047E   POP     R18
4054	14949	  000480   PUSH    R31
4055	14951	  000482   PUSH    R30
4056	14953	  000484   MOV     R31,R19
4057	14954	  000486   MOV     R30,R18
4058	14955	  000488   ADD     R30,R16
4059	14956	  00048A   ADC     R31,R17
4060	14957	  00048C   LSL     R30
4061	14958	  00048E   ROL     R31
4062	14959	  000490   LSL     R18
4063	14960	  000492   ROL     R19
4064	14961	  000494   LPM      R16,Z+
4065	14964	  000496   LPM      R17,Z
4066	14967	  000498   ADD     R18,R16
4067	14968	  00049A   ADC     R19,R17
4068	14969	  00049C   LSR     R19
4069	14970	  00049E   ROR     R18
4070	14971	  0004A0   POP     R30
4071	14973	  0004A2   POP     R31
4072	14975	  0004A4   PUSH    R18
4073	14977	  0004A6   PUSH    R19
4074	14979	  0004A8   LD      R19,Y+
4075	14981	  0004AA   LD      R18,Y+
4076	14983	  0004AC   OUT     SREG,R18
4077	14984	  0004AE   LD      R18,Y+
4078	14986	  0004B0   LD      R16,Y+
4079	14988	  0004B2   LD      R17,Y+
4080	14990	  0004B4   RET
		??EwhzNomEDauAaSxWcrSMpBmhLwvWf:
4081	14994	  0008D4   ADD     R16,R18
4082	14995	  0008D6   ADC     R17,R19
4083	14996	  0008D8   ST      -Y,R17
4084	14998	  0008DA   ST      -Y,R16
4085	15000	  0008DC   LDI     R17,0x00
4086	15001	  0008DE   LDI     R16,0x01
4087	15002	  0008E0   JMP     ??ZnFCpuPGLbOgrQkeqjwTlcZZJkIVO
		??ZnFCpuPGLbOgrQkeqjwTlcZZJkIVO:
4088	15005	  000824   ST      -Y,R18
4089	15007	  000826   IN      R18,SREG
4090	15008	  000828   ST      -Y,R18
4091	15010	  00082A   CALL    avmp_handler
		avmp_handler:
4092	15014	  00047A   ST      -Y,R19
4093	15016	  00047C   POP     R19
4094	15018	  00047E   POP     R18
4095	15020	  000480   PUSH    R31
4096	15022	  000482   PUSH    R30
4097	15024	  000484   MOV     R31,R19
4098	15025	  000486   MOV     R30,R18
4099	15026	  000488   ADD     R30,R16
4100	15027	  00048A   ADC     R31,R17
4101	15028	  00048C   LSL     R30
4102	15029	  00048E   ROL     R31
4103	15030	  000490   LSL     R18
4104	15031	  000492   ROL     R19
4105	15032	  000494   LPM      R16,Z+
4106	15035	  000496   LPM      R17,Z
4107	15038	  000498   ADD     R18,R16
4108	15039	  00049A   ADC     R19,R17
4109	15040	  00049C   LSR     R19
4110	15041	  00049E   ROR     R18
4111	15042	  0004A0   POP     R30
4112	15044	  0004A2   POP     R31
4113	15046	  0004A4   PUSH    R18
4114	15048	  0004A6   PUSH    R19
4115	15050	  0004A8   LD      R19,Y+
4116	15052	  0004AA   LD      R18,Y+
4117	15054	  0004AC   OUT     SREG,R18
4118	15055	  0004AE   LD      R18,Y+
4119	15057	  0004B0   LD      R16,Y+
4120	15059	  0004B2   LD      R17,Y+
4121	15061	  0004B4   RET
		??DoJIeXNTVHoDwJBHYbqJSRcLEVuzO:
4122	15065	  000846   ADIW    R28,6
4123	15067	  000848   ST      -Y,R17
4124	15069	  00084A   ST      -Y,R16
4125	15071	  00084C   LDI     R17,0x00
4126	15072	  00084E   LDI     R16,0x0B
4127	15073	  000850   JMP     ??ZnFCpuPGLbOgrQkeqjwTlcZZJkIVO
		??ZnFCpuPGLbOgrQkeqjwTlcZZJkIVO:
4128	15076	  000824   ST      -Y,R18
4129	15078	  000826   IN      R18,SREG
4130	15079	  000828   ST      -Y,R18
4131	15081	  00082A   CALL    avmp_handler
		avmp_handler:
4132	15085	  00047A   ST      -Y,R19
4133	15087	  00047C   POP     R19
4134	15089	  00047E   POP     R18
4135	15091	  000480   PUSH    R31
4136	15093	  000482   PUSH    R30
4137	15095	  000484   MOV     R31,R19
4138	15096	  000486   MOV     R30,R18
4139	15097	  000488   ADD     R30,R16
4140	15098	  00048A   ADC     R31,R17
4141	15099	  00048C   LSL     R30
4142	15100	  00048E   ROL     R31
4143	15101	  000490   LSL     R18
4144	15102	  000492   ROL     R19
4145	15103	  000494   LPM      R16,Z+
4146	15106	  000496   LPM      R17,Z
4147	15109	  000498   ADD     R18,R16
4148	15110	  00049A   ADC     R19,R17
4149	15111	  00049C   LSR     R19
4150	15112	  00049E   ROR     R18
4151	15113	  0004A0   POP     R30
4152	15115	  0004A2   POP     R31
4153	15117	  0004A4   PUSH    R18
4154	15119	  0004A6   PUSH    R19
4155	15121	  0004A8   LD      R19,Y+
4156	15123	  0004AA   LD      R18,Y+
4157	15125	  0004AC   OUT     SREG,R18
4158	15126	  0004AE   LD      R18,Y+
4159	15128	  0004B0   LD      R16,Y+
4160	15130	  0004B2   LD      R17,Y+
4161	15132	  0004B4   RET
		??zKvTnauuEitUkmoAHBrtLiGhBYvNv:
4162	15136	  0008E4   RET
4163	15140	  001120   ST      -Y,R17
4164	15142	  001122   ST      -Y,R16
4165	15144	  001124   LDI     R17,0x00
4166	15145	  001126   LDI     R16,0x3F
4167	15146	  001128   JMP     ??qpQLuPnEUlJCOQbkVsgBFJkeFRkBB
		??qpQLuPnEUlJCOQbkVsgBFJkeFRkBB:
4168	15149	  000C24   ST      -Y,R18
4169	15151	  000C26   IN      R18,SREG
4170	15152	  000C28   ST      -Y,R18
4171	15154	  000C2A   CALL    avmp_handler
		avmp_handler:
4172	15158	  00047A   ST      -Y,R19
4173	15160	  00047C   POP     R19
4174	15162	  00047E   POP     R18
4175	15164	  000480   PUSH    R31
4176	15166	  000482   PUSH    R30
4177	15168	  000484   MOV     R31,R19
4178	15169	  000486   MOV     R30,R18
4179	15170	  000488   ADD     R30,R16
4180	15171	  00048A   ADC     R31,R17
4181	15172	  00048C   LSL     R30
4182	15173	  00048E   ROL     R31
4183	15174	  000490   LSL     R18
4184	15175	  000492   ROL     R19
4185	15176	  000494   LPM      R16,Z+
4186	15179	  000496   LPM      R17,Z
4187	15182	  000498   ADD     R18,R16
4188	15183	  00049A   ADC     R19,R17
4189	15184	  00049C   LSR     R19
4190	15185	  00049E   ROR     R18
4191	15186	  0004A0   POP     R30
4192	15188	  0004A2   POP     R31
4193	15190	  0004A4   PUSH    R18
4194	15192	  0004A6   PUSH    R19
4195	15194	  0004A8   LD      R19,Y+
4196	15196	  0004AA   LD      R18,Y+
4197	15198	  0004AC   OUT     SREG,R18
4198	15199	  0004AE   LD      R18,Y+
4199	15201	  0004B0   LD      R16,Y+
4200	15203	  0004B2   LD      R17,Y+
4201	15205	  0004B4   RET
		??ZSzmzipETJwhOeqZeGGeiRJvBwEwM:
4202	15209	  00112C   LD      R18,Y
4203	15211	  00112E   LDD     R19,Y+1
4204	15213	  001130   ST      -Y,R17
4205	15215	  001132   ST      -Y,R16
4206	15217	  001134   LDI     R17,0x00
4207	15218	  001136   LDI     R16,0x40
4208	15219	  001138   JMP     ??qpQLuPnEUlJCOQbkVsgBFJkeFRkBB
		??qpQLuPnEUlJCOQbkVsgBFJkeFRkBB:
4209	15222	  000C24   ST      -Y,R18
4210	15224	  000C26   IN      R18,SREG
4211	15225	  000C28   ST      -Y,R18
4212	15227	  000C2A   CALL    avmp_handler
		avmp_handler:
4213	15231	  00047A   ST      -Y,R19
4214	15233	  00047C   POP     R19
4215	15235	  00047E   POP     R18
4216	15237	  000480   PUSH    R31
4217	15239	  000482   PUSH    R30
4218	15241	  000484   MOV     R31,R19
4219	15242	  000486   MOV     R30,R18
4220	15243	  000488   ADD     R30,R16
4221	15244	  00048A   ADC     R31,R17
4222	15245	  00048C   LSL     R30
4223	15246	  00048E   ROL     R31
4224	15247	  000490   LSL     R18
4225	15248	  000492   ROL     R19
4226	15249	  000494   LPM      R16,Z+
4227	15252	  000496   LPM      R17,Z
4228	15255	  000498   ADD     R18,R16
4229	15256	  00049A   ADC     R19,R17
4230	15257	  00049C   LSR     R19
4231	15258	  00049E   ROR     R18
4232	15259	  0004A0   POP     R30
4233	15261	  0004A2   POP     R31
4234	15263	  0004A4   PUSH    R18
4235	15265	  0004A6   PUSH    R19
4236	15267	  0004A8   LD      R19,Y+
4237	15269	  0004AA   LD      R18,Y+
4238	15271	  0004AC   OUT     SREG,R18
4239	15272	  0004AE   LD      R18,Y+
4240	15274	  0004B0   LD      R16,Y+
4241	15276	  0004B2   LD      R17,Y+
4242	15278	  0004B4   RET
		??pCwmitUdgiikBfwjFJinFUAioaszt:
4243	15282	  00113C   ADD     R18,R16
4244	15283	  00113E   ADC     R19,R17
4245	15284	  001140   ST      -Y,R17
4246	15286	  001142   ST      -Y,R16
4247	15288	  001144   LDI     R17,0x00
4248	15289	  001146   LDI     R16,0x41
4249	15290	  001148   JMP     ??qpQLuPnEUlJCOQbkVsgBFJkeFRkBB
		??qpQLuPnEUlJCOQbkVsgBFJkeFRkBB:
4250	15293	  000C24   ST      -Y,R18
4251	15295	  000C26   IN      R18,SREG
4252	15296	  000C28   ST      -Y,R18
4253	15298	  000C2A   CALL    avmp_handler
		avmp_handler:
4254	15302	  00047A   ST      -Y,R19
4255	15304	  00047C   POP     R19
4256	15306	  00047E   POP     R18
4257	15308	  000480   PUSH    R31
4258	15310	  000482   PUSH    R30
4259	15312	  000484   MOV     R31,R19
4260	15313	  000486   MOV     R30,R18
4261	15314	  000488   ADD     R30,R16
4262	15315	  00048A   ADC     R31,R17
4263	15316	  00048C   LSL     R30
4264	15317	  00048E   ROL     R31
4265	15318	  000490   LSL     R18
4266	15319	  000492   ROL     R19
4267	15320	  000494   LPM      R16,Z+
4268	15323	  000496   LPM      R17,Z
4269	15326	  000498   ADD     R18,R16
4270	15327	  00049A   ADC     R19,R17
4271	15328	  00049C   LSR     R19
4272	15329	  00049E   ROR     R18
4273	15330	  0004A0   POP     R30
4274	15332	  0004A2   POP     R31
4275	15334	  0004A4   PUSH    R18
4276	15336	  0004A6   PUSH    R19
4277	15338	  0004A8   LD      R19,Y+
4278	15340	  0004AA   LD      R18,Y+
4279	15342	  0004AC   OUT     SREG,R18
4280	15343	  0004AE   LD      R18,Y+
4281	15345	  0004B0   LD      R16,Y+
4282	15347	  0004B2   LD      R17,Y+
4283	15349	  0004B4   RET
		??OWzCFgYECbedwzZiRbAwZKmvqDmba:
4284	15353	  00114C   ST      Y,R18
4285	15355	  00114E   STD     Y+1,R19
4286	15357	  001150   ST      -Y,R17
4287	15359	  001152   ST      -Y,R16
4288	15361	  001154   LDI     R17,0x00
4289	15362	  001156   LDI     R16,0x42
4290	15363	  001158   JMP     ??qpQLuPnEUlJCOQbkVsgBFJkeFRkBB
		??qpQLuPnEUlJCOQbkVsgBFJkeFRkBB:
4291	15366	  000C24   ST      -Y,R18
4292	15368	  000C26   IN      R18,SREG
4293	15369	  000C28   ST      -Y,R18
4294	15371	  000C2A   CALL    avmp_handler
		avmp_handler:
4295	15375	  00047A   ST      -Y,R19
4296	15377	  00047C   POP     R19
4297	15379	  00047E   POP     R18
4298	15381	  000480   PUSH    R31
4299	15383	  000482   PUSH    R30
4300	15385	  000484   MOV     R31,R19
4301	15386	  000486   MOV     R30,R18
4302	15387	  000488   ADD     R30,R16
4303	15388	  00048A   ADC     R31,R17
4304	15389	  00048C   LSL     R30
4305	15390	  00048E   ROL     R31
4306	15391	  000490   LSL     R18
4307	15392	  000492   ROL     R19
4308	15393	  000494   LPM      R16,Z+
4309	15396	  000496   LPM      R17,Z
4310	15399	  000498   ADD     R18,R16
4311	15400	  00049A   ADC     R19,R17
4312	15401	  00049C   LSR     R19
4313	15402	  00049E   ROR     R18
4314	15403	  0004A0   POP     R30
4315	15405	  0004A2   POP     R31
4316	15407	  0004A4   PUSH    R18
4317	15409	  0004A6   PUSH    R19
4318	15411	  0004A8   LD      R19,Y+
4319	15413	  0004AA   LD      R18,Y+
4320	15415	  0004AC   OUT     SREG,R18
4321	15416	  0004AE   LD      R18,Y+
4322	15418	  0004B0   LD      R16,Y+
4323	15420	  0004B2   LD      R17,Y+
4324	15422	  0004B4   RET
		??PwcsVObbIqRjLWQCNIRIIstFhbOsf:
4325	15426	  00115C   LDI     R16,0x08
4326	15427	  00115E   LDI     R17,0x00
4327	15428	  001160   ST      -Y,R17
4328	15430	  001162   ST      -Y,R16
4329	15432	  001164   LDI     R17,0x00
4330	15433	  001166   LDI     R16,0x43
4331	15434	  001168   JMP     ??qpQLuPnEUlJCOQbkVsgBFJkeFRkBB
		??qpQLuPnEUlJCOQbkVsgBFJkeFRkBB:
4332	15437	  000C24   ST      -Y,R18
4333	15439	  000C26   IN      R18,SREG
4334	15440	  000C28   ST      -Y,R18
4335	15442	  000C2A   CALL    avmp_handler
		avmp_handler:
4336	15446	  00047A   ST      -Y,R19
4337	15448	  00047C   POP     R19
4338	15450	  00047E   POP     R18
4339	15452	  000480   PUSH    R31
4340	15454	  000482   PUSH    R30
4341	15456	  000484   MOV     R31,R19
4342	15457	  000486   MOV     R30,R18
4343	15458	  000488   ADD     R30,R16
4344	15459	  00048A   ADC     R31,R17
4345	15460	  00048C   LSL     R30
4346	15461	  00048E   ROL     R31
4347	15462	  000490   LSL     R18
4348	15463	  000492   ROL     R19
4349	15464	  000494   LPM      R16,Z+
4350	15467	  000496   LPM      R17,Z
4351	15470	  000498   ADD     R18,R16
4352	15471	  00049A   ADC     R19,R17
4353	15472	  00049C   LSR     R19
4354	15473	  00049E   ROR     R18
4355	15474	  0004A0   POP     R30
4356	15476	  0004A2   POP     R31
4357	15478	  0004A4   PUSH    R18
4358	15480	  0004A6   PUSH    R19
4359	15482	  0004A8   LD      R19,Y+
4360	15484	  0004AA   LD      R18,Y+
4361	15486	  0004AC   OUT     SREG,R18
4362	15487	  0004AE   LD      R18,Y+
4363	15489	  0004B0   LD      R16,Y+
4364	15491	  0004B2   LD      R17,Y+
4365	15493	  0004B4   RET
		??syfjVHxgulFOaRBUxBcgEJPgYvgew:
4366	15497	  00116C   ST      -Y,R17
4367	15499	  00116E   ST      -Y,R16
4368	15501	  001170   ST      -Y,R17
4369	15503	  001172   ST      -Y,R16
4370	15505	  001174   LDI     R17,0x00
4371	15506	  001176   LDI     R16,0x44
4372	15507	  001178   JMP     ??qpQLuPnEUlJCOQbkVsgBFJkeFRkBB
		??qpQLuPnEUlJCOQbkVsgBFJkeFRkBB:
4373	15510	  000C24   ST      -Y,R18
4374	15512	  000C26   IN      R18,SREG
4375	15513	  000C28   ST      -Y,R18
4376	15515	  000C2A   CALL    avmp_handler
		avmp_handler:
4377	15519	  00047A   ST      -Y,R19
4378	15521	  00047C   POP     R19
4379	15523	  00047E   POP     R18
4380	15525	  000480   PUSH    R31
4381	15527	  000482   PUSH    R30
4382	15529	  000484   MOV     R31,R19
4383	15530	  000486   MOV     R30,R18
4384	15531	  000488   ADD     R30,R16
4385	15532	  00048A   ADC     R31,R17
4386	15533	  00048C   LSL     R30
4387	15534	  00048E   ROL     R31
4388	15535	  000490   LSL     R18
4389	15536	  000492   ROL     R19
4390	15537	  000494   LPM      R16,Z+
4391	15540	  000496   LPM      R17,Z
4392	15543	  000498   ADD     R18,R16
4393	15544	  00049A   ADC     R19,R17
4394	15545	  00049C   LSR     R19
4395	15546	  00049E   ROR     R18
4396	15547	  0004A0   POP     R30
4397	15549	  0004A2   POP     R31
4398	15551	  0004A4   PUSH    R18
4399	15553	  0004A6   PUSH    R19
4400	15555	  0004A8   LD      R19,Y+
4401	15557	  0004AA   LD      R18,Y+
4402	15559	  0004AC   OUT     SREG,R18
4403	15560	  0004AE   LD      R18,Y+
4404	15562	  0004B0   LD      R16,Y+
4405	15564	  0004B2   LD      R17,Y+
4406	15566	  0004B4   RET
		??ZUdztAAHYXAbmbgXNNhJxGLFoqQCa:
4407	15570	  00117C   LDI     R16,0x07
4408	15571	  00117E   LDI     R17,0x00
4409	15572	  001180   ST      -Y,R17
4410	15574	  001182   ST      -Y,R16
4411	15576	  001184   LDI     R17,0x00
4412	15577	  001186   LDI     R16,0x45
4413	15578	  001188   JMP     ??qpQLuPnEUlJCOQbkVsgBFJkeFRkBB
		??qpQLuPnEUlJCOQbkVsgBFJkeFRkBB:
4414	15581	  000C24   ST      -Y,R18
4415	15583	  000C26   IN      R18,SREG
4416	15584	  000C28   ST      -Y,R18
4417	15586	  000C2A   CALL    avmp_handler
		avmp_handler:
4418	15590	  00047A   ST      -Y,R19
4419	15592	  00047C   POP     R19
4420	15594	  00047E   POP     R18
4421	15596	  000480   PUSH    R31
4422	15598	  000482   PUSH    R30
4423	15600	  000484   MOV     R31,R19
4424	15601	  000486   MOV     R30,R18
4425	15602	  000488   ADD     R30,R16
4426	15603	  00048A   ADC     R31,R17
4427	15604	  00048C   LSL     R30
4428	15605	  00048E   ROL     R31
4429	15606	  000490   LSL     R18
4430	15607	  000492   ROL     R19
4431	15608	  000494   LPM      R16,Z+
4432	15611	  000496   LPM      R17,Z
4433	15614	  000498   ADD     R18,R16
4434	15615	  00049A   ADC     R19,R17
4435	15616	  00049C   LSR     R19
4436	15617	  00049E   ROR     R18
4437	15618	  0004A0   POP     R30
4438	15620	  0004A2   POP     R31
4439	15622	  0004A4   PUSH    R18
4440	15624	  0004A6   PUSH    R19
4441	15626	  0004A8   LD      R19,Y+
4442	15628	  0004AA   LD      R18,Y+
4443	15630	  0004AC   OUT     SREG,R18
4444	15631	  0004AE   LD      R18,Y+
4445	15633	  0004B0   LD      R16,Y+
4446	15635	  0004B2   LD      R17,Y+
4447	15637	  0004B4   RET
		??LsdlFYGmrINoSMmvWoUMJhqLnMbzk:
4448	15641	  00118C   ST      -Y,R17
4449	15643	  00118E   ST      -Y,R16
4450	15645	  001190   ST      -Y,R17
4451	15647	  001192   ST      -Y,R16
4452	15649	  001194   LDI     R17,0x00
4453	15650	  001196   LDI     R16,0x46
4454	15651	  001198   JMP     ??qpQLuPnEUlJCOQbkVsgBFJkeFRkBB
		??qpQLuPnEUlJCOQbkVsgBFJkeFRkBB:
4455	15654	  000C24   ST      -Y,R18
4456	15656	  000C26   IN      R18,SREG
4457	15657	  000C28   ST      -Y,R18
4458	15659	  000C2A   CALL    avmp_handler
		avmp_handler:
4459	15663	  00047A   ST      -Y,R19
4460	15665	  00047C   POP     R19
4461	15667	  00047E   POP     R18
4462	15669	  000480   PUSH    R31
4463	15671	  000482   PUSH    R30
4464	15673	  000484   MOV     R31,R19
4465	15674	  000486   MOV     R30,R18
4466	15675	  000488   ADD     R30,R16
4467	15676	  00048A   ADC     R31,R17
4468	15677	  00048C   LSL     R30
4469	15678	  00048E   ROL     R31
4470	15679	  000490   LSL     R18
4471	15680	  000492   ROL     R19
4472	15681	  000494   LPM      R16,Z+
4473	15684	  000496   LPM      R17,Z
4474	15687	  000498   ADD     R18,R16
4475	15688	  00049A   ADC     R19,R17
4476	15689	  00049C   LSR     R19
4477	15690	  00049E   ROR     R18
4478	15691	  0004A0   POP     R30
4479	15693	  0004A2   POP     R31
4480	15695	  0004A4   PUSH    R18
4481	15697	  0004A6   PUSH    R19
4482	15699	  0004A8   LD      R19,Y+
4483	15701	  0004AA   LD      R18,Y+
4484	15703	  0004AC   OUT     SREG,R18
4485	15704	  0004AE   LD      R18,Y+
4486	15706	  0004B0   LD      R16,Y+
4487	15708	  0004B2   LD      R17,Y+
4488	15710	  0004B4   RET
		??UcjgmfmbZpZDmYKcGeGgikOOvNgdS:
4489	15714	  00119C   LDI     R16,0x06
4490	15715	  00119E   LDI     R17,0x00
4491	15716	  0011A0   ST      -Y,R17
4492	15718	  0011A2   ST      -Y,R16
4493	15720	  0011A4   LDI     R17,0x00
4494	15721	  0011A6   LDI     R16,0x47
4495	15722	  0011A8   JMP     ??qpQLuPnEUlJCOQbkVsgBFJkeFRkBB
		??qpQLuPnEUlJCOQbkVsgBFJkeFRkBB:
4496	15725	  000C24   ST      -Y,R18
4497	15727	  000C26   IN      R18,SREG
4498	15728	  000C28   ST      -Y,R18
4499	15730	  000C2A   CALL    avmp_handler
		avmp_handler:
4500	15734	  00047A   ST      -Y,R19
4501	15736	  00047C   POP     R19
4502	15738	  00047E   POP     R18
4503	15740	  000480   PUSH    R31
4504	15742	  000482   PUSH    R30
4505	15744	  000484   MOV     R31,R19
4506	15745	  000486   MOV     R30,R18
4507	15746	  000488   ADD     R30,R16
4508	15747	  00048A   ADC     R31,R17
4509	15748	  00048C   LSL     R30
4510	15749	  00048E   ROL     R31
4511	15750	  000490   LSL     R18
4512	15751	  000492   ROL     R19
4513	15752	  000494   LPM      R16,Z+
4514	15755	  000496   LPM      R17,Z
4515	15758	  000498   ADD     R18,R16
4516	15759	  00049A   ADC     R19,R17
4517	15760	  00049C   LSR     R19
4518	15761	  00049E   ROR     R18
4519	15762	  0004A0   POP     R30
4520	15764	  0004A2   POP     R31
4521	15766	  0004A4   PUSH    R18
4522	15768	  0004A6   PUSH    R19
4523	15770	  0004A8   LD      R19,Y+
4524	15772	  0004AA   LD      R18,Y+
4525	15774	  0004AC   OUT     SREG,R18
4526	15775	  0004AE   LD      R18,Y+
4527	15777	  0004B0   LD      R16,Y+
4528	15779	  0004B2   LD      R17,Y+
4529	15781	  0004B4   RET
		??KaTwvdNBFpanLYgngoWmzOhyfWDdd:
4530	15785	  0011AC   ST      -Y,R17
4531	15787	  0011AE   ST      -Y,R16
4532	15789	  0011B0   ST      -Y,R17
4533	15791	  0011B2   ST      -Y,R16
4534	15793	  0011B4   LDI     R17,0x00
4535	15794	  0011B6   LDI     R16,0x48
4536	15795	  0011B8   JMP     ??qpQLuPnEUlJCOQbkVsgBFJkeFRkBB
		??qpQLuPnEUlJCOQbkVsgBFJkeFRkBB:
4537	15798	  000C24   ST      -Y,R18
4538	15800	  000C26   IN      R18,SREG
4539	15801	  000C28   ST      -Y,R18
4540	15803	  000C2A   CALL    avmp_handler
		avmp_handler:
4541	15807	  00047A   ST      -Y,R19
4542	15809	  00047C   POP     R19
4543	15811	  00047E   POP     R18
4544	15813	  000480   PUSH    R31
4545	15815	  000482   PUSH    R30
4546	15817	  000484   MOV     R31,R19
4547	15818	  000486   MOV     R30,R18
4548	15819	  000488   ADD     R30,R16
4549	15820	  00048A   ADC     R31,R17
4550	15821	  00048C   LSL     R30
4551	15822	  00048E   ROL     R31
4552	15823	  000490   LSL     R18
4553	15824	  000492   ROL     R19
4554	15825	  000494   LPM      R16,Z+
4555	15828	  000496   LPM      R17,Z
4556	15831	  000498   ADD     R18,R16
4557	15832	  00049A   ADC     R19,R17
4558	15833	  00049C   LSR     R19
4559	15834	  00049E   ROR     R18
4560	15835	  0004A0   POP     R30
4561	15837	  0004A2   POP     R31
4562	15839	  0004A4   PUSH    R18
4563	15841	  0004A6   PUSH    R19
4564	15843	  0004A8   LD      R19,Y+
4565	15845	  0004AA   LD      R18,Y+
4566	15847	  0004AC   OUT     SREG,R18
4567	15848	  0004AE   LD      R18,Y+
4568	15850	  0004B0   LD      R16,Y+
4569	15852	  0004B2   LD      R17,Y+
4570	15854	  0004B4   RET
		??BNmxUeNIIEiBsDIXlJYUAPOwQyEGY:
4571	15858	  0011BC   LDI     R16,0x05
4572	15859	  0011BE   LDI     R17,0x00
4573	15860	  0011C0   ST      -Y,R17
4574	15862	  0011C2   ST      -Y,R16
4575	15864	  0011C4   LDI     R17,0x00
4576	15865	  0011C6   LDI     R16,0x49
4577	15866	  0011C8   JMP     ??qpQLuPnEUlJCOQbkVsgBFJkeFRkBB
		??qpQLuPnEUlJCOQbkVsgBFJkeFRkBB:
4578	15869	  000C24   ST      -Y,R18
4579	15871	  000C26   IN      R18,SREG
4580	15872	  000C28   ST      -Y,R18
4581	15874	  000C2A   CALL    avmp_handler
		avmp_handler:
4582	15878	  00047A   ST      -Y,R19
4583	15880	  00047C   POP     R19
4584	15882	  00047E   POP     R18
4585	15884	  000480   PUSH    R31
4586	15886	  000482   PUSH    R30
4587	15888	  000484   MOV     R31,R19
4588	15889	  000486   MOV     R30,R18
4589	15890	  000488   ADD     R30,R16
4590	15891	  00048A   ADC     R31,R17
4591	15892	  00048C   LSL     R30
4592	15893	  00048E   ROL     R31
4593	15894	  000490   LSL     R18
4594	15895	  000492   ROL     R19
4595	15896	  000494   LPM      R16,Z+
4596	15899	  000496   LPM      R17,Z
4597	15902	  000498   ADD     R18,R16
4598	15903	  00049A   ADC     R19,R17
4599	15904	  00049C   LSR     R19
4600	15905	  00049E   ROR     R18
4601	15906	  0004A0   POP     R30
4602	15908	  0004A2   POP     R31
4603	15910	  0004A4   PUSH    R18
4604	15912	  0004A6   PUSH    R19
4605	15914	  0004A8   LD      R19,Y+
4606	15916	  0004AA   LD      R18,Y+
4607	15918	  0004AC   OUT     SREG,R18
4608	15919	  0004AE   LD      R18,Y+
4609	15921	  0004B0   LD      R16,Y+
4610	15923	  0004B2   LD      R17,Y+
4611	15925	  0004B4   RET
		??ryCDKzspXqgEMZPIbBRsKoCaMdAAz:
4612	15929	  0011CC   ST      -Y,R17
4613	15931	  0011CE   ST      -Y,R16
4614	15933	  0011D0   ST      -Y,R17
4615	15935	  0011D2   ST      -Y,R16
4616	15937	  0011D4   LDI     R17,0x00
4617	15938	  0011D6   LDI     R16,0x4A
4618	15939	  0011D8   JMP     ??qpQLuPnEUlJCOQbkVsgBFJkeFRkBB
		??qpQLuPnEUlJCOQbkVsgBFJkeFRkBB:
4619	15942	  000C24   ST      -Y,R18
4620	15944	  000C26   IN      R18,SREG
4621	15945	  000C28   ST      -Y,R18
4622	15947	  000C2A   CALL    avmp_handler
		avmp_handler:
4623	15951	  00047A   ST      -Y,R19
4624	15953	  00047C   POP     R19
4625	15955	  00047E   POP     R18
4626	15957	  000480   PUSH    R31
4627	15959	  000482   PUSH    R30
4628	15961	  000484   MOV     R31,R19
4629	15962	  000486   MOV     R30,R18
4630	15963	  000488   ADD     R30,R16
4631	15964	  00048A   ADC     R31,R17
4632	15965	  00048C   LSL     R30
4633	15966	  00048E   ROL     R31
4634	15967	  000490   LSL     R18
4635	15968	  000492   ROL     R19
4636	15969	  000494   LPM      R16,Z+
4637	15972	  000496   LPM      R17,Z
4638	15975	  000498   ADD     R18,R16
4639	15976	  00049A   ADC     R19,R17
4640	15977	  00049C   LSR     R19
4641	15978	  00049E   ROR     R18
4642	15979	  0004A0   POP     R30
4643	15981	  0004A2   POP     R31
4644	15983	  0004A4   PUSH    R18
4645	15985	  0004A6   PUSH    R19
4646	15987	  0004A8   LD      R19,Y+
4647	15989	  0004AA   LD      R18,Y+
4648	15991	  0004AC   OUT     SREG,R18
4649	15992	  0004AE   LD      R18,Y+
4650	15994	  0004B0   LD      R16,Y+
4651	15996	  0004B2   LD      R17,Y+
4652	15998	  0004B4   RET
		??KrVnLjZaTEJLaekaARjNTgQSlzKbO:
4653	16002	  0011DC   LDI     R22,0x04
4654	16003	  0011DE   LDI     R23,0x00
4655	16004	  0011E0   ST      -Y,R17
4656	16006	  0011E2   ST      -Y,R16
4657	16008	  0011E4   LDI     R17,0x00
4658	16009	  0011E6   LDI     R16,0x4B
4659	16010	  0011E8   JMP     ??qpQLuPnEUlJCOQbkVsgBFJkeFRkBB
		??qpQLuPnEUlJCOQbkVsgBFJkeFRkBB:
4660	16013	  000C24   ST      -Y,R18
4661	16015	  000C26   IN      R18,SREG
4662	16016	  000C28   ST      -Y,R18
4663	16018	  000C2A   CALL    avmp_handler
		avmp_handler:
4664	16022	  00047A   ST      -Y,R19
4665	16024	  00047C   POP     R19
4666	16026	  00047E   POP     R18
4667	16028	  000480   PUSH    R31
4668	16030	  000482   PUSH    R30
4669	16032	  000484   MOV     R31,R19
4670	16033	  000486   MOV     R30,R18
4671	16034	  000488   ADD     R30,R16
4672	16035	  00048A   ADC     R31,R17
4673	16036	  00048C   LSL     R30
4674	16037	  00048E   ROL     R31
4675	16038	  000490   LSL     R18
4676	16039	  000492   ROL     R19
4677	16040	  000494   LPM      R16,Z+
4678	16043	  000496   LPM      R17,Z
4679	16046	  000498   ADD     R18,R16
4680	16047	  00049A   ADC     R19,R17
4681	16048	  00049C   LSR     R19
4682	16049	  00049E   ROR     R18
4683	16050	  0004A0   POP     R30
4684	16052	  0004A2   POP     R31
4685	16054	  0004A4   PUSH    R18
4686	16056	  0004A6   PUSH    R19
4687	16058	  0004A8   LD      R19,Y+
4688	16060	  0004AA   LD      R18,Y+
4689	16062	  0004AC   OUT     SREG,R18
4690	16063	  0004AE   LD      R18,Y+
4691	16065	  0004B0   LD      R16,Y+
4692	16067	  0004B2   LD      R17,Y+
4693	16069	  0004B4   RET
		??NLHERGlRrIbdDnfSOrgkJjLsOVyXO:
4694	16073	  0011EC   LDI     R20,0x03
4695	16074	  0011EE   LDI     R21,0x00
4696	16075	  0011F0   ST      -Y,R17
4697	16077	  0011F2   ST      -Y,R16
4698	16079	  0011F4   LDI     R17,0x00
4699	16080	  0011F6   LDI     R16,0x4C
4700	16081	  0011F8   JMP     ??qpQLuPnEUlJCOQbkVsgBFJkeFRkBB
		??qpQLuPnEUlJCOQbkVsgBFJkeFRkBB:
4701	16084	  000C24   ST      -Y,R18
4702	16086	  000C26   IN      R18,SREG
4703	16087	  000C28   ST      -Y,R18
4704	16089	  000C2A   CALL    avmp_handler
		avmp_handler:
4705	16093	  00047A   ST      -Y,R19
4706	16095	  00047C   POP     R19
4707	16097	  00047E   POP     R18
4708	16099	  000480   PUSH    R31
4709	16101	  000482   PUSH    R30
4710	16103	  000484   MOV     R31,R19
4711	16104	  000486   MOV     R30,R18
4712	16105	  000488   ADD     R30,R16
4713	16106	  00048A   ADC     R31,R17
4714	16107	  00048C   LSL     R30
4715	16108	  00048E   ROL     R31
4716	16109	  000490   LSL     R18
4717	16110	  000492   ROL     R19
4718	16111	  000494   LPM      R16,Z+
4719	16114	  000496   LPM      R17,Z
4720	16117	  000498   ADD     R18,R16
4721	16118	  00049A   ADC     R19,R17
4722	16119	  00049C   LSR     R19
4723	16120	  00049E   ROR     R18
4724	16121	  0004A0   POP     R30
4725	16123	  0004A2   POP     R31
4726	16125	  0004A4   PUSH    R18
4727	16127	  0004A6   PUSH    R19
4728	16129	  0004A8   LD      R19,Y+
4729	16131	  0004AA   LD      R18,Y+
4730	16133	  0004AC   OUT     SREG,R18
4731	16134	  0004AE   LD      R18,Y+
4732	16136	  0004B0   LD      R16,Y+
4733	16138	  0004B2   LD      R17,Y+
4734	16140	  0004B4   RET
		??EOOjnVqtMIYbJzMPJtHHIBuuMeshN:
4735	16144	  0011FC   LDI     R18,0x02
4736	16145	  0011FE   LDI     R19,0x00
4737	16146	  001200   ST      -Y,R17
4738	16148	  001202   ST      -Y,R16
4739	16150	  001204   LDI     R17,0x00
4740	16151	  001206   LDI     R16,0x4D
4741	16152	  001208   JMP     ??qpQLuPnEUlJCOQbkVsgBFJkeFRkBB
		??qpQLuPnEUlJCOQbkVsgBFJkeFRkBB:
4742	16155	  000C24   ST      -Y,R18
4743	16157	  000C26   IN      R18,SREG
4744	16158	  000C28   ST      -Y,R18
4745	16160	  000C2A   CALL    avmp_handler
		avmp_handler:
4746	16164	  00047A   ST      -Y,R19
4747	16166	  00047C   POP     R19
4748	16168	  00047E   POP     R18
4749	16170	  000480   PUSH    R31
4750	16172	  000482   PUSH    R30
4751	16174	  000484   MOV     R31,R19
4752	16175	  000486   MOV     R30,R18
4753	16176	  000488   ADD     R30,R16
4754	16177	  00048A   ADC     R31,R17
4755	16178	  00048C   LSL     R30
4756	16179	  00048E   ROL     R31
4757	16180	  000490   LSL     R18
4758	16181	  000492   ROL     R19
4759	16182	  000494   LPM      R16,Z+
4760	16185	  000496   LPM      R17,Z
4761	16188	  000498   ADD     R18,R16
4762	16189	  00049A   ADC     R19,R17
4763	16190	  00049C   LSR     R19
4764	16191	  00049E   ROR     R18
4765	16192	  0004A0   POP     R30
4766	16194	  0004A2   POP     R31
4767	16196	  0004A4   PUSH    R18
4768	16198	  0004A6   PUSH    R19
4769	16200	  0004A8   LD      R19,Y+
4770	16202	  0004AA   LD      R18,Y+
4771	16204	  0004AC   OUT     SREG,R18
4772	16205	  0004AE   LD      R18,Y+
4773	16207	  0004B0   LD      R16,Y+
4774	16209	  0004B2   LD      R17,Y+
4775	16211	  0004B4   RET
		??AMQmCiSzQEjLHKstnLRsSiOexatYB:
4776	16215	  00120C   LDI     R16,0x01
4777	16216	  00120E   LDI     R17,0x00
4778	16217	  001210   ST      -Y,R17
4779	16219	  001212   ST      -Y,R16
4780	16221	  001214   LDI     R17,0x00
4781	16222	  001216   LDI     R16,0x4E
4782	16223	  001218   JMP     ??qpQLuPnEUlJCOQbkVsgBFJkeFRkBB
		??qpQLuPnEUlJCOQbkVsgBFJkeFRkBB:
4783	16226	  000C24   ST      -Y,R18
4784	16228	  000C26   IN      R18,SREG
4785	16229	  000C28   ST      -Y,R18
4786	16231	  000C2A   CALL    avmp_handler
		avmp_handler:
4787	16235	  00047A   ST      -Y,R19
4788	16237	  00047C   POP     R19
4789	16239	  00047E   POP     R18
4790	16241	  000480   PUSH    R31
4791	16243	  000482   PUSH    R30
4792	16245	  000484   MOV     R31,R19
4793	16246	  000486   MOV     R30,R18
4794	16247	  000488   ADD     R30,R16
4795	16248	  00048A   ADC     R31,R17
4796	16249	  00048C   LSL     R30
4797	16250	  00048E   ROL     R31
4798	16251	  000490   LSL     R18
4799	16252	  000492   ROL     R19
4800	16253	  000494   LPM      R16,Z+
4801	16256	  000496   LPM      R17,Z
4802	16259	  000498   ADD     R18,R16
4803	16260	  00049A   ADC     R19,R17
4804	16261	  00049C   LSR     R19
4805	16262	  00049E   ROR     R18
4806	16263	  0004A0   POP     R30
4807	16265	  0004A2   POP     R31
4808	16267	  0004A4   PUSH    R18
4809	16269	  0004A6   PUSH    R19
4810	16271	  0004A8   LD      R19,Y+
4811	16273	  0004AA   LD      R18,Y+
4812	16275	  0004AC   OUT     SREG,R18
4813	16276	  0004AE   LD      R18,Y+
4814	16278	  0004B0   LD      R16,Y+
4815	16280	  0004B2   LD      R17,Y+
4816	16282	  0004B4   RET
		??UeQnUHYWZOowJcqsuHsqBTxrnpkYu:
4817	16286	  00121C   CALL    TestParam8
		TestParam8:
4818	16290	  0008E6   ST      -Y,R17
4819	16292	  0008E8   ST      -Y,R16
4820	16294	  0008EA   LDI     R17,0x00
4821	16295	  0008EC   LDI     R16,0x02
		??jQfIqDUhoMDFesmXuNPLmrxiazCBX:
4822	16296	  0008EE   ST      -Y,R18
4823	16298	  0008F0   IN      R18,SREG
4824	16299	  0008F2   ST      -Y,R18
4825	16301	  0008F4   CALL    avmp_handler
		avmp_handler:
4826	16305	  00047A   ST      -Y,R19
4827	16307	  00047C   POP     R19
4828	16309	  00047E   POP     R18
4829	16311	  000480   PUSH    R31
4830	16313	  000482   PUSH    R30
4831	16315	  000484   MOV     R31,R19
4832	16316	  000486   MOV     R30,R18
4833	16317	  000488   ADD     R30,R16
4834	16318	  00048A   ADC     R31,R17
4835	16319	  00048C   LSL     R30
4836	16320	  00048E   ROL     R31
4837	16321	  000490   LSL     R18
4838	16322	  000492   ROL     R19
4839	16323	  000494   LPM      R16,Z+
4840	16326	  000496   LPM      R17,Z
4841	16329	  000498   ADD     R18,R16
4842	16330	  00049A   ADC     R19,R17
4843	16331	  00049C   LSR     R19
4844	16332	  00049E   ROR     R18
4845	16333	  0004A0   POP     R30
4846	16335	  0004A2   POP     R31
4847	16337	  0004A4   PUSH    R18
4848	16339	  0004A6   PUSH    R19
4849	16341	  0004A8   LD      R19,Y+
4850	16343	  0004AA   LD      R18,Y+
4851	16345	  0004AC   OUT     SREG,R18
4852	16346	  0004AE   LD      R18,Y+
4853	16348	  0004B0   LD      R16,Y+
4854	16350	  0004B2   LD      R17,Y+
4855	16352	  0004B4   RET
		??jkQQBruTAWpEnPBwdGZEZrBEDXqHx:
4856	16356	  000922   ADD     R16,R18
4857	16357	  000924   ADC     R17,R19
4858	16358	  000926   ST      -Y,R17
4859	16360	  000928   ST      -Y,R16
4860	16362	  00092A   LDI     R17,0x00
4861	16363	  00092C   LDI     R16,0x03
4862	16364	  00092E   JMP     ??jQfIqDUhoMDFesmXuNPLmrxiazCBX
		??jQfIqDUhoMDFesmXuNPLmrxiazCBX:
4863	16367	  0008EE   ST      -Y,R18
4864	16369	  0008F0   IN      R18,SREG
4865	16370	  0008F2   ST      -Y,R18
4866	16372	  0008F4   CALL    avmp_handler
		avmp_handler:
4867	16376	  00047A   ST      -Y,R19
4868	16378	  00047C   POP     R19
4869	16380	  00047E   POP     R18
4870	16382	  000480   PUSH    R31
4871	16384	  000482   PUSH    R30
4872	16386	  000484   MOV     R31,R19
4873	16387	  000486   MOV     R30,R18
4874	16388	  000488   ADD     R30,R16
4875	16389	  00048A   ADC     R31,R17
4876	16390	  00048C   LSL     R30
4877	16391	  00048E   ROL     R31
4878	16392	  000490   LSL     R18
4879	16393	  000492   ROL     R19
4880	16394	  000494   LPM      R16,Z+
4881	16397	  000496   LPM      R17,Z
4882	16400	  000498   ADD     R18,R16
4883	16401	  00049A   ADC     R19,R17
4884	16402	  00049C   LSR     R19
4885	16403	  00049E   ROR     R18
4886	16404	  0004A0   POP     R30
4887	16406	  0004A2   POP     R31
4888	16408	  0004A4   PUSH    R18
4889	16410	  0004A6   PUSH    R19
4890	16412	  0004A8   LD      R19,Y+
4891	16414	  0004AA   LD      R18,Y+
4892	16416	  0004AC   OUT     SREG,R18
4893	16417	  0004AE   LD      R18,Y+
4894	16419	  0004B0   LD      R16,Y+
4895	16421	  0004B2   LD      R17,Y+
4896	16423	  0004B4   RET
		??yNeHIKQucEMTyGqkLKzlZNHZkFPVi:
4897	16427	  000932   ADD     R16,R20
4898	16428	  000934   ADC     R17,R21
4899	16429	  000936   ST      -Y,R17
4900	16431	  000938   ST      -Y,R16
4901	16433	  00093A   LDI     R17,0x00
4902	16434	  00093C   LDI     R16,0x04
4903	16435	  00093E   JMP     ??jQfIqDUhoMDFesmXuNPLmrxiazCBX
		??jQfIqDUhoMDFesmXuNPLmrxiazCBX:
4904	16438	  0008EE   ST      -Y,R18
4905	16440	  0008F0   IN      R18,SREG
4906	16441	  0008F2   ST      -Y,R18
4907	16443	  0008F4   CALL    avmp_handler
		avmp_handler:
4908	16447	  00047A   ST      -Y,R19
4909	16449	  00047C   POP     R19
4910	16451	  00047E   POP     R18
4911	16453	  000480   PUSH    R31
4912	16455	  000482   PUSH    R30
4913	16457	  000484   MOV     R31,R19
4914	16458	  000486   MOV     R30,R18
4915	16459	  000488   ADD     R30,R16
4916	16460	  00048A   ADC     R31,R17
4917	16461	  00048C   LSL     R30
4918	16462	  00048E   ROL     R31
4919	16463	  000490   LSL     R18
4920	16464	  000492   ROL     R19
4921	16465	  000494   LPM      R16,Z+
4922	16468	  000496   LPM      R17,Z
4923	16471	  000498   ADD     R18,R16
4924	16472	  00049A   ADC     R19,R17
4925	16473	  00049C   LSR     R19
4926	16474	  00049E   ROR     R18
4927	16475	  0004A0   POP     R30
4928	16477	  0004A2   POP     R31
4929	16479	  0004A4   PUSH    R18
4930	16481	  0004A6   PUSH    R19
4931	16483	  0004A8   LD      R19,Y+
4932	16485	  0004AA   LD      R18,Y+
4933	16487	  0004AC   OUT     SREG,R18
4934	16488	  0004AE   LD      R18,Y+
4935	16490	  0004B0   LD      R16,Y+
4936	16492	  0004B2   LD      R17,Y+
4937	16494	  0004B4   RET
		??tVynAPBWMNlolVutFpWKNWMElbKJz:
4938	16498	  000942   ADD     R16,R22
4939	16499	  000944   ADC     R17,R23
4940	16500	  000946   ST      -Y,R17
4941	16502	  000948   ST      -Y,R16
4942	16504	  00094A   LDI     R17,0x00
4943	16505	  00094C   LDI     R16,0x05
4944	16506	  00094E   JMP     ??jQfIqDUhoMDFesmXuNPLmrxiazCBX
		??jQfIqDUhoMDFesmXuNPLmrxiazCBX:
4945	16509	  0008EE   ST      -Y,R18
4946	16511	  0008F0   IN      R18,SREG
4947	16512	  0008F2   ST      -Y,R18
4948	16514	  0008F4   CALL    avmp_handler
		avmp_handler:
4949	16518	  00047A   ST      -Y,R19
4950	16520	  00047C   POP     R19
4951	16522	  00047E   POP     R18
4952	16524	  000480   PUSH    R31
4953	16526	  000482   PUSH    R30
4954	16528	  000484   MOV     R31,R19
4955	16529	  000486   MOV     R30,R18
4956	16530	  000488   ADD     R30,R16
4957	16531	  00048A   ADC     R31,R17
4958	16532	  00048C   LSL     R30
4959	16533	  00048E   ROL     R31
4960	16534	  000490   LSL     R18
4961	16535	  000492   ROL     R19
4962	16536	  000494   LPM      R16,Z+
4963	16539	  000496   LPM      R17,Z
4964	16542	  000498   ADD     R18,R16
4965	16543	  00049A   ADC     R19,R17
4966	16544	  00049C   LSR     R19
4967	16545	  00049E   ROR     R18
4968	16546	  0004A0   POP     R30
4969	16548	  0004A2   POP     R31
4970	16550	  0004A4   PUSH    R18
4971	16552	  0004A6   PUSH    R19
4972	16554	  0004A8   LD      R19,Y+
4973	16556	  0004AA   LD      R18,Y+
4974	16558	  0004AC   OUT     SREG,R18
4975	16559	  0004AE   LD      R18,Y+
4976	16561	  0004B0   LD      R16,Y+
4977	16563	  0004B2   LD      R17,Y+
4978	16565	  0004B4   RET
		??MpBhEsnUMZRCBwVrrcIRNXzgCxDmB:
4979	16569	  000952   LD      R18,Y
4980	16571	  000954   LDD     R19,Y+1
4981	16573	  000956   ST      -Y,R17
4982	16575	  000958   ST      -Y,R16
4983	16577	  00095A   LDI     R17,0x00
4984	16578	  00095C   LDI     R16,0x06
4985	16579	  00095E   JMP     ??jQfIqDUhoMDFesmXuNPLmrxiazCBX
		??jQfIqDUhoMDFesmXuNPLmrxiazCBX:
4986	16582	  0008EE   ST      -Y,R18
4987	16584	  0008F0   IN      R18,SREG
4988	16585	  0008F2   ST      -Y,R18
4989	16587	  0008F4   CALL    avmp_handler
		avmp_handler:
4990	16591	  00047A   ST      -Y,R19
4991	16593	  00047C   POP     R19
4992	16595	  00047E   POP     R18
4993	16597	  000480   PUSH    R31
4994	16599	  000482   PUSH    R30
4995	16601	  000484   MOV     R31,R19
4996	16602	  000486   MOV     R30,R18
4997	16603	  000488   ADD     R30,R16
4998	16604	  00048A   ADC     R31,R17
4999	16605	  00048C   LSL     R30
5000	16606	  00048E   ROL     R31
5001	16607	  000490   LSL     R18
5002	16608	  000492   ROL     R19
5003	16609	  000494   LPM      R16,Z+
5004	16612	  000496   LPM      R17,Z
5005	16615	  000498   ADD     R18,R16
5006	16616	  00049A   ADC     R19,R17
5007	16617	  00049C   LSR     R19
5008	16618	  00049E   ROR     R18
5009	16619	  0004A0   POP     R30
5010	16621	  0004A2   POP     R31
5011	16623	  0004A4   PUSH    R18
5012	16625	  0004A6   PUSH    R19
5013	16627	  0004A8   LD      R19,Y+
5014	16629	  0004AA   LD      R18,Y+
5015	16631	  0004AC   OUT     SREG,R18
5016	16632	  0004AE   LD      R18,Y+
5017	16634	  0004B0   LD      R16,Y+
5018	16636	  0004B2   LD      R17,Y+
5019	16638	  0004B4   RET
		??bThwsgUvgNLBhJlfqpBaVvkFbhzpr:
5020	16642	  000962   ADD     R16,R18
5021	16643	  000964   ADC     R17,R19
5022	16644	  000966   ST      -Y,R17
5023	16646	  000968   ST      -Y,R16
5024	16648	  00096A   LDI     R17,0x00
5025	16649	  00096C   LDI     R16,0x07
5026	16650	  00096E   JMP     ??jQfIqDUhoMDFesmXuNPLmrxiazCBX
		??jQfIqDUhoMDFesmXuNPLmrxiazCBX:
5027	16653	  0008EE   ST      -Y,R18
5028	16655	  0008F0   IN      R18,SREG
5029	16656	  0008F2   ST      -Y,R18
5030	16658	  0008F4   CALL    avmp_handler
		avmp_handler:
5031	16662	  00047A   ST      -Y,R19
5032	16664	  00047C   POP     R19
5033	16666	  00047E   POP     R18
5034	16668	  000480   PUSH    R31
5035	16670	  000482   PUSH    R30
5036	16672	  000484   MOV     R31,R19
5037	16673	  000486   MOV     R30,R18
5038	16674	  000488   ADD     R30,R16
5039	16675	  00048A   ADC     R31,R17
5040	16676	  00048C   LSL     R30
5041	16677	  00048E   ROL     R31
5042	16678	  000490   LSL     R18
5043	16679	  000492   ROL     R19
5044	16680	  000494   LPM      R16,Z+
5045	16683	  000496   LPM      R17,Z
5046	16686	  000498   ADD     R18,R16
5047	16687	  00049A   ADC     R19,R17
5048	16688	  00049C   LSR     R19
5049	16689	  00049E   ROR     R18
5050	16690	  0004A0   POP     R30
5051	16692	  0004A2   POP     R31
5052	16694	  0004A4   PUSH    R18
5053	16696	  0004A6   PUSH    R19
5054	16698	  0004A8   LD      R19,Y+
5055	16700	  0004AA   LD      R18,Y+
5056	16702	  0004AC   OUT     SREG,R18
5057	16703	  0004AE   LD      R18,Y+
5058	16705	  0004B0   LD      R16,Y+
5059	16707	  0004B2   LD      R17,Y+
5060	16709	  0004B4   RET
		??vhUctQzTdUXJVqATYSHXCSMwFRpYJ:
5061	16713	  000972   LDD     R18,Y+2
5062	16715	  000974   LDD     R19,Y+3
5063	16717	  000976   ST      -Y,R17
5064	16719	  000978   ST      -Y,R16
5065	16721	  00097A   LDI     R17,0x00
5066	16722	  00097C   LDI     R16,0x08
5067	16723	  00097E   JMP     ??jQfIqDUhoMDFesmXuNPLmrxiazCBX
		??jQfIqDUhoMDFesmXuNPLmrxiazCBX:
5068	16726	  0008EE   ST      -Y,R18
5069	16728	  0008F0   IN      R18,SREG
5070	16729	  0008F2   ST      -Y,R18
5071	16731	  0008F4   CALL    avmp_handler
		avmp_handler:
5072	16735	  00047A   ST      -Y,R19
5073	16737	  00047C   POP     R19
5074	16739	  00047E   POP     R18
5075	16741	  000480   PUSH    R31
5076	16743	  000482   PUSH    R30
5077	16745	  000484   MOV     R31,R19
5078	16746	  000486   MOV     R30,R18
5079	16747	  000488   ADD     R30,R16
5080	16748	  00048A   ADC     R31,R17
5081	16749	  00048C   LSL     R30
5082	16750	  00048E   ROL     R31
5083	16751	  000490   LSL     R18
5084	16752	  000492   ROL     R19
5085	16753	  000494   LPM      R16,Z+
5086	16756	  000496   LPM      R17,Z
5087	16759	  000498   ADD     R18,R16
5088	16760	  00049A   ADC     R19,R17
5089	16761	  00049C   LSR     R19
5090	16762	  00049E   ROR     R18
5091	16763	  0004A0   POP     R30
5092	16765	  0004A2   POP     R31
5093	16767	  0004A4   PUSH    R18
5094	16769	  0004A6   PUSH    R19
5095	16771	  0004A8   LD      R19,Y+
5096	16773	  0004AA   LD      R18,Y+
5097	16775	  0004AC   OUT     SREG,R18
5098	16776	  0004AE   LD      R18,Y+
5099	16778	  0004B0   LD      R16,Y+
5100	16780	  0004B2   LD      R17,Y+
5101	16782	  0004B4   RET
		??jnKBOaUEGaCaFSZZbWweLERnfIFhn:
5102	16786	  000982   ADD     R16,R18
5103	16787	  000984   ADC     R17,R19
5104	16788	  000986   ST      -Y,R17
5105	16790	  000988   ST      -Y,R16
5106	16792	  00098A   LDI     R17,0x00
5107	16793	  00098C   LDI     R16,0x09
5108	16794	  00098E   JMP     ??jQfIqDUhoMDFesmXuNPLmrxiazCBX
		??jQfIqDUhoMDFesmXuNPLmrxiazCBX:
5109	16797	  0008EE   ST      -Y,R18
5110	16799	  0008F0   IN      R18,SREG
5111	16800	  0008F2   ST      -Y,R18
5112	16802	  0008F4   CALL    avmp_handler
		avmp_handler:
5113	16806	  00047A   ST      -Y,R19
5114	16808	  00047C   POP     R19
5115	16810	  00047E   POP     R18
5116	16812	  000480   PUSH    R31
5117	16814	  000482   PUSH    R30
5118	16816	  000484   MOV     R31,R19
5119	16817	  000486   MOV     R30,R18
5120	16818	  000488   ADD     R30,R16
5121	16819	  00048A   ADC     R31,R17
5122	16820	  00048C   LSL     R30
5123	16821	  00048E   ROL     R31
5124	16822	  000490   LSL     R18
5125	16823	  000492   ROL     R19
5126	16824	  000494   LPM      R16,Z+
5127	16827	  000496   LPM      R17,Z
5128	16830	  000498   ADD     R18,R16
5129	16831	  00049A   ADC     R19,R17
5130	16832	  00049C   LSR     R19
5131	16833	  00049E   ROR     R18
5132	16834	  0004A0   POP     R30
5133	16836	  0004A2   POP     R31
5134	16838	  0004A4   PUSH    R18
5135	16840	  0004A6   PUSH    R19
5136	16842	  0004A8   LD      R19,Y+
5137	16844	  0004AA   LD      R18,Y+
5138	16846	  0004AC   OUT     SREG,R18
5139	16847	  0004AE   LD      R18,Y+
5140	16849	  0004B0   LD      R16,Y+
5141	16851	  0004B2   LD      R17,Y+
5142	16853	  0004B4   RET
		??zzdQfwTXXHKhWNgtHhHqMaVkxaDnu:
5143	16857	  000992   LDD     R18,Y+4
5144	16859	  000994   LDD     R19,Y+5
5145	16861	  000996   ST      -Y,R17
5146	16863	  000998   ST      -Y,R16
5147	16865	  00099A   LDI     R17,0x00
5148	16866	  00099C   LDI     R16,0x0A
5149	16867	  00099E   JMP     ??jQfIqDUhoMDFesmXuNPLmrxiazCBX
		??jQfIqDUhoMDFesmXuNPLmrxiazCBX:
5150	16870	  0008EE   ST      -Y,R18
5151	16872	  0008F0   IN      R18,SREG
5152	16873	  0008F2   ST      -Y,R18
5153	16875	  0008F4   CALL    avmp_handler
		avmp_handler:
5154	16879	  00047A   ST      -Y,R19
5155	16881	  00047C   POP     R19
5156	16883	  00047E   POP     R18
5157	16885	  000480   PUSH    R31
5158	16887	  000482   PUSH    R30
5159	16889	  000484   MOV     R31,R19
5160	16890	  000486   MOV     R30,R18
5161	16891	  000488   ADD     R30,R16
5162	16892	  00048A   ADC     R31,R17
5163	16893	  00048C   LSL     R30
5164	16894	  00048E   ROL     R31
5165	16895	  000490   LSL     R18
5166	16896	  000492   ROL     R19
5167	16897	  000494   LPM      R16,Z+
5168	16900	  000496   LPM      R17,Z
5169	16903	  000498   ADD     R18,R16
5170	16904	  00049A   ADC     R19,R17
5171	16905	  00049C   LSR     R19
5172	16906	  00049E   ROR     R18
5173	16907	  0004A0   POP     R30
5174	16909	  0004A2   POP     R31
5175	16911	  0004A4   PUSH    R18
5176	16913	  0004A6   PUSH    R19
5177	16915	  0004A8   LD      R19,Y+
5178	16917	  0004AA   LD      R18,Y+
5179	16919	  0004AC   OUT     SREG,R18
5180	16920	  0004AE   LD      R18,Y+
5181	16922	  0004B0   LD      R16,Y+
5182	16924	  0004B2   LD      R17,Y+
5183	16926	  0004B4   RET
		??PbPUYZxXpEpNXMapOcIbRTUCssPvN:
5184	16930	  0009A2   ADD     R16,R18
5185	16931	  0009A4   ADC     R17,R19
5186	16932	  0009A6   ST      -Y,R17
5187	16934	  0009A8   ST      -Y,R16
5188	16936	  0009AA   LDI     R17,0x00
5189	16937	  0009AC   LDI     R16,0x0B
5190	16938	  0009AE   JMP     ??jQfIqDUhoMDFesmXuNPLmrxiazCBX
		??jQfIqDUhoMDFesmXuNPLmrxiazCBX:
5191	16941	  0008EE   ST      -Y,R18
5192	16943	  0008F0   IN      R18,SREG
5193	16944	  0008F2   ST      -Y,R18
5194	16946	  0008F4   CALL    avmp_handler
		avmp_handler:
5195	16950	  00047A   ST      -Y,R19
5196	16952	  00047C   POP     R19
5197	16954	  00047E   POP     R18
5198	16956	  000480   PUSH    R31
5199	16958	  000482   PUSH    R30
5200	16960	  000484   MOV     R31,R19
5201	16961	  000486   MOV     R30,R18
5202	16962	  000488   ADD     R30,R16
5203	16963	  00048A   ADC     R31,R17
5204	16964	  00048C   LSL     R30
5205	16965	  00048E   ROL     R31
5206	16966	  000490   LSL     R18
5207	16967	  000492   ROL     R19
5208	16968	  000494   LPM      R16,Z+
5209	16971	  000496   LPM      R17,Z
5210	16974	  000498   ADD     R18,R16
5211	16975	  00049A   ADC     R19,R17
5212	16976	  00049C   LSR     R19
5213	16977	  00049E   ROR     R18
5214	16978	  0004A0   POP     R30
5215	16980	  0004A2   POP     R31
5216	16982	  0004A4   PUSH    R18
5217	16984	  0004A6   PUSH    R19
5218	16986	  0004A8   LD      R19,Y+
5219	16988	  0004AA   LD      R18,Y+
5220	16990	  0004AC   OUT     SREG,R18
5221	16991	  0004AE   LD      R18,Y+
5222	16993	  0004B0   LD      R16,Y+
5223	16995	  0004B2   LD      R17,Y+
5224	16997	  0004B4   RET
		??YqDJydBgykLHktdTymQRbnoeLcizQ:
5225	17001	  0009B2   LDD     R18,Y+6
5226	17003	  0009B4   LDD     R19,Y+7
5227	17005	  0009B6   ST      -Y,R17
5228	17007	  0009B8   ST      -Y,R16
5229	17009	  0009BA   LDI     R17,0x00
5230	17010	  0009BC   LDI     R16,0x0C
5231	17011	  0009BE   JMP     ??jQfIqDUhoMDFesmXuNPLmrxiazCBX
		??jQfIqDUhoMDFesmXuNPLmrxiazCBX:
5232	17014	  0008EE   ST      -Y,R18
5233	17016	  0008F0   IN      R18,SREG
5234	17017	  0008F2   ST      -Y,R18
5235	17019	  0008F4   CALL    avmp_handler
		avmp_handler:
5236	17023	  00047A   ST      -Y,R19
5237	17025	  00047C   POP     R19
5238	17027	  00047E   POP     R18
5239	17029	  000480   PUSH    R31
5240	17031	  000482   PUSH    R30
5241	17033	  000484   MOV     R31,R19
5242	17034	  000486   MOV     R30,R18
5243	17035	  000488   ADD     R30,R16
5244	17036	  00048A   ADC     R31,R17
5245	17037	  00048C   LSL     R30
5246	17038	  00048E   ROL     R31
5247	17039	  000490   LSL     R18
5248	17040	  000492   ROL     R19
5249	17041	  000494   LPM      R16,Z+
5250	17044	  000496   LPM      R17,Z
5251	17047	  000498   ADD     R18,R16
5252	17048	  00049A   ADC     R19,R17
5253	17049	  00049C   LSR     R19
5254	17050	  00049E   ROR     R18
5255	17051	  0004A0   POP     R30
5256	17053	  0004A2   POP     R31
5257	17055	  0004A4   PUSH    R18
5258	17057	  0004A6   PUSH    R19
5259	17059	  0004A8   LD      R19,Y+
5260	17061	  0004AA   LD      R18,Y+
5261	17063	  0004AC   OUT     SREG,R18
5262	17064	  0004AE   LD      R18,Y+
5263	17066	  0004B0   LD      R16,Y+
5264	17068	  0004B2   LD      R17,Y+
5265	17070	  0004B4   RET
		??FshLrFXOcvWxFmDuuXNxBPLWCwDVn:
5266	17074	  0009C2   ADD     R16,R18
5267	17075	  0009C4   ADC     R17,R19
5268	17076	  0009C6   ST      -Y,R17
5269	17078	  0009C8   ST      -Y,R16
5270	17080	  0009CA   LDI     R17,0x00
5271	17081	  0009CC   LDI     R16,0x01
5272	17082	  0009CE   JMP     ??jQfIqDUhoMDFesmXuNPLmrxiazCBX
		??jQfIqDUhoMDFesmXuNPLmrxiazCBX:
5273	17085	  0008EE   ST      -Y,R18
5274	17087	  0008F0   IN      R18,SREG
5275	17088	  0008F2   ST      -Y,R18
5276	17090	  0008F4   CALL    avmp_handler
		avmp_handler:
5277	17094	  00047A   ST      -Y,R19
5278	17096	  00047C   POP     R19
5279	17098	  00047E   POP     R18
5280	17100	  000480   PUSH    R31
5281	17102	  000482   PUSH    R30
5282	17104	  000484   MOV     R31,R19
5283	17105	  000486   MOV     R30,R18
5284	17106	  000488   ADD     R30,R16
5285	17107	  00048A   ADC     R31,R17
5286	17108	  00048C   LSL     R30
5287	17109	  00048E   ROL     R31
5288	17110	  000490   LSL     R18
5289	17111	  000492   ROL     R19
5290	17112	  000494   LPM      R16,Z+
5291	17115	  000496   LPM      R17,Z
5292	17118	  000498   ADD     R18,R16
5293	17119	  00049A   ADC     R19,R17
5294	17120	  00049C   LSR     R19
5295	17121	  00049E   ROR     R18
5296	17122	  0004A0   POP     R30
5297	17124	  0004A2   POP     R31
5298	17126	  0004A4   PUSH    R18
5299	17128	  0004A6   PUSH    R19
5300	17130	  0004A8   LD      R19,Y+
5301	17132	  0004AA   LD      R18,Y+
5302	17134	  0004AC   OUT     SREG,R18
5303	17135	  0004AE   LD      R18,Y+
5304	17137	  0004B0   LD      R16,Y+
5305	17139	  0004B2   LD      R17,Y+
5306	17141	  0004B4   RET
		??NuUGNYfldTMKgixmgKepKUwcyDkpg:
5307	17145	  000914   ADIW    R28,8
5308	17147	  000916   ST      -Y,R17
5309	17149	  000918   ST      -Y,R16
5310	17151	  00091A   LDI     R17,0x00
5311	17152	  00091C   LDI     R16,0x0D
5312	17153	  00091E   JMP     ??jQfIqDUhoMDFesmXuNPLmrxiazCBX
		??jQfIqDUhoMDFesmXuNPLmrxiazCBX:
5313	17156	  0008EE   ST      -Y,R18
5314	17158	  0008F0   IN      R18,SREG
5315	17159	  0008F2   ST      -Y,R18
5316	17161	  0008F4   CALL    avmp_handler
		avmp_handler:
5317	17165	  00047A   ST      -Y,R19
5318	17167	  00047C   POP     R19
5319	17169	  00047E   POP     R18
5320	17171	  000480   PUSH    R31
5321	17173	  000482   PUSH    R30
5322	17175	  000484   MOV     R31,R19
5323	17176	  000486   MOV     R30,R18
5324	17177	  000488   ADD     R30,R16
5325	17178	  00048A   ADC     R31,R17
5326	17179	  00048C   LSL     R30
5327	17180	  00048E   ROL     R31
5328	17181	  000490   LSL     R18
5329	17182	  000492   ROL     R19
5330	17183	  000494   LPM      R16,Z+
5331	17186	  000496   LPM      R17,Z
5332	17189	  000498   ADD     R18,R16
5333	17190	  00049A   ADC     R19,R17
5334	17191	  00049C   LSR     R19
5335	17192	  00049E   ROR     R18
5336	17193	  0004A0   POP     R30
5337	17195	  0004A2   POP     R31
5338	17197	  0004A4   PUSH    R18
5339	17199	  0004A6   PUSH    R19
5340	17201	  0004A8   LD      R19,Y+
5341	17203	  0004AA   LD      R18,Y+
5342	17205	  0004AC   OUT     SREG,R18
5343	17206	  0004AE   LD      R18,Y+
5344	17208	  0004B0   LD      R16,Y+
5345	17210	  0004B2   LD      R17,Y+
5346	17212	  0004B4   RET
		??KOdnZgIaKOUZbPIWiXJyzZUkFcLYL:
5347	17216	  0009D2   RET
5348	17220	  001220   LD      R18,Y
5349	17222	  001222   ST      -Y,R17
5350	17224	  001224   ST      -Y,R16
5351	17226	  001226   LDI     R17,0x00
5352	17227	  001228   LDI     R16,0x4F
5353	17228	  00122A   JMP     ??qpQLuPnEUlJCOQbkVsgBFJkeFRkBB
		??qpQLuPnEUlJCOQbkVsgBFJkeFRkBB:
5354	17231	  000C24   ST      -Y,R18
5355	17233	  000C26   IN      R18,SREG
5356	17234	  000C28   ST      -Y,R18
5357	17236	  000C2A   CALL    avmp_handler
		avmp_handler:
5358	17240	  00047A   ST      -Y,R19
5359	17242	  00047C   POP     R19
5360	17244	  00047E   POP     R18
5361	17246	  000480   PUSH    R31
5362	17248	  000482   PUSH    R30
5363	17250	  000484   MOV     R31,R19
5364	17251	  000486   MOV     R30,R18
5365	17252	  000488   ADD     R30,R16
5366	17253	  00048A   ADC     R31,R17
5367	17254	  00048C   LSL     R30
5368	17255	  00048E   ROL     R31
5369	17256	  000490   LSL     R18
5370	17257	  000492   ROL     R19
5371	17258	  000494   LPM      R16,Z+
5372	17261	  000496   LPM      R17,Z
5373	17264	  000498   ADD     R18,R16
5374	17265	  00049A   ADC     R19,R17
5375	17266	  00049C   LSR     R19
5376	17267	  00049E   ROR     R18
5377	17268	  0004A0   POP     R30
5378	17270	  0004A2   POP     R31
5379	17272	  0004A4   PUSH    R18
5380	17274	  0004A6   PUSH    R19
5381	17276	  0004A8   LD      R19,Y+
5382	17278	  0004AA   LD      R18,Y+
5383	17280	  0004AC   OUT     SREG,R18
5384	17281	  0004AE   LD      R18,Y+
5385	17283	  0004B0   LD      R16,Y+
5386	17285	  0004B2   LD      R17,Y+
5387	17287	  0004B4   RET
		??cTXxjHsCigAmnGSxpPqNEHeBJgRum:
5388	17291	  00122E   LDD     R19,Y+1
5389	17293	  001230   ADD     R18,R16
5390	17294	  001232   ST      -Y,R17
5391	17296	  001234   ST      -Y,R16
5392	17298	  001236   LDI     R17,0x00
5393	17299	  001238   LDI     R16,0x50
5394	17300	  00123A   JMP     ??qpQLuPnEUlJCOQbkVsgBFJkeFRkBB
		??qpQLuPnEUlJCOQbkVsgBFJkeFRkBB:
5395	17303	  000C24   ST      -Y,R18
5396	17305	  000C26   IN      R18,SREG
5397	17306	  000C28   ST      -Y,R18
5398	17308	  000C2A   CALL    avmp_handler
		avmp_handler:
5399	17312	  00047A   ST      -Y,R19
5400	17314	  00047C   POP     R19
5401	17316	  00047E   POP     R18
5402	17318	  000480   PUSH    R31
5403	17320	  000482   PUSH    R30
5404	17322	  000484   MOV     R31,R19
5405	17323	  000486   MOV     R30,R18
5406	17324	  000488   ADD     R30,R16
5407	17325	  00048A   ADC     R31,R17
5408	17326	  00048C   LSL     R30
5409	17327	  00048E   ROL     R31
5410	17328	  000490   LSL     R18
5411	17329	  000492   ROL     R19
5412	17330	  000494   LPM      R16,Z+
5413	17333	  000496   LPM      R17,Z
5414	17336	  000498   ADD     R18,R16
5415	17337	  00049A   ADC     R19,R17
5416	17338	  00049C   LSR     R19
5417	17339	  00049E   ROR     R18
5418	17340	  0004A0   POP     R30
5419	17342	  0004A2   POP     R31
5420	17344	  0004A4   PUSH    R18
5421	17346	  0004A6   PUSH    R19
5422	17348	  0004A8   LD      R19,Y+
5423	17350	  0004AA   LD      R18,Y+
5424	17352	  0004AC   OUT     SREG,R18
5425	17353	  0004AE   LD      R18,Y+
5426	17355	  0004B0   LD      R16,Y+
5427	17357	  0004B2   LD      R17,Y+
5428	17359	  0004B4   RET
		??UDDgjvjfTZWFOvsnZySKTulhUeZkf:
5429	17363	  00123E   ADC     R19,R17
5430	17364	  001240   ST      Y,R18
5431	17366	  001242   ST      -Y,R17
5432	17368	  001244   ST      -Y,R16
5433	17370	  001246   LDI     R17,0x00
5434	17371	  001248   LDI     R16,0x51
5435	17372	  00124A   JMP     ??qpQLuPnEUlJCOQbkVsgBFJkeFRkBB
		??qpQLuPnEUlJCOQbkVsgBFJkeFRkBB:
5436	17375	  000C24   ST      -Y,R18
5437	17377	  000C26   IN      R18,SREG
5438	17378	  000C28   ST      -Y,R18
5439	17380	  000C2A   CALL    avmp_handler
		avmp_handler:
5440	17384	  00047A   ST      -Y,R19
5441	17386	  00047C   POP     R19
5442	17388	  00047E   POP     R18
5443	17390	  000480   PUSH    R31
5444	17392	  000482   PUSH    R30
5445	17394	  000484   MOV     R31,R19
5446	17395	  000486   MOV     R30,R18
5447	17396	  000488   ADD     R30,R16
5448	17397	  00048A   ADC     R31,R17
5449	17398	  00048C   LSL     R30
5450	17399	  00048E   ROL     R31
5451	17400	  000490   LSL     R18
5452	17401	  000492   ROL     R19
5453	17402	  000494   LPM      R16,Z+
5454	17405	  000496   LPM      R17,Z
5455	17408	  000498   ADD     R18,R16
5456	17409	  00049A   ADC     R19,R17
5457	17410	  00049C   LSR     R19
5458	17411	  00049E   ROR     R18
5459	17412	  0004A0   POP     R30
5460	17414	  0004A2   POP     R31
5461	17416	  0004A4   PUSH    R18
5462	17418	  0004A6   PUSH    R19
5463	17420	  0004A8   LD      R19,Y+
5464	17422	  0004AA   LD      R18,Y+
5465	17424	  0004AC   OUT     SREG,R18
5466	17425	  0004AE   LD      R18,Y+
5467	17427	  0004B0   LD      R16,Y+
5468	17429	  0004B2   LD      R17,Y+
5469	17431	  0004B4   RET
		??VmKZaWYxNtGGlHNycENkLpSSuzGsk:
5470	17435	  00124E   STD     Y+1,R19
5471	17437	  001250   LDI     R16,0x09
5472	17438	  001252   ST      -Y,R17
5473	17440	  001254   ST      -Y,R16
5474	17442	  001256   LDI     R17,0x00
5475	17443	  001258   LDI     R16,0x52
5476	17444	  00125A   JMP     ??qpQLuPnEUlJCOQbkVsgBFJkeFRkBB
		??qpQLuPnEUlJCOQbkVsgBFJkeFRkBB:
5477	17447	  000C24   ST      -Y,R18
5478	17449	  000C26   IN      R18,SREG
5479	17450	  000C28   ST      -Y,R18
5480	17452	  000C2A   CALL    avmp_handler
		avmp_handler:
5481	17456	  00047A   ST      -Y,R19
5482	17458	  00047C   POP     R19
5483	17460	  00047E   POP     R18
5484	17462	  000480   PUSH    R31
5485	17464	  000482   PUSH    R30
5486	17466	  000484   MOV     R31,R19
5487	17467	  000486   MOV     R30,R18
5488	17468	  000488   ADD     R30,R16
5489	17469	  00048A   ADC     R31,R17
5490	17470	  00048C   LSL     R30
5491	17471	  00048E   ROL     R31
5492	17472	  000490   LSL     R18
5493	17473	  000492   ROL     R19
5494	17474	  000494   LPM      R16,Z+
5495	17477	  000496   LPM      R17,Z
5496	17480	  000498   ADD     R18,R16
5497	17481	  00049A   ADC     R19,R17
5498	17482	  00049C   LSR     R19
5499	17483	  00049E   ROR     R18
5500	17484	  0004A0   POP     R30
5501	17486	  0004A2   POP     R31
5502	17488	  0004A4   PUSH    R18
5503	17490	  0004A6   PUSH    R19
5504	17492	  0004A8   LD      R19,Y+
5505	17494	  0004AA   LD      R18,Y+
5506	17496	  0004AC   OUT     SREG,R18
5507	17497	  0004AE   LD      R18,Y+
5508	17499	  0004B0   LD      R16,Y+
5509	17501	  0004B2   LD      R17,Y+
5510	17503	  0004B4   RET
		??pdLaGwjtjBIwgqMKYhRDWXegtPqKt:
5511	17507	  00125E   LDI     R17,0x00
5512	17508	  001260   ST      -Y,R17
5513	17510	  001262   ST      -Y,R17
5514	17512	  001264   ST      -Y,R16
5515	17514	  001266   LDI     R17,0x00
5516	17515	  001268   LDI     R16,0x53
5517	17516	  00126A   JMP     ??qpQLuPnEUlJCOQbkVsgBFJkeFRkBB
		??qpQLuPnEUlJCOQbkVsgBFJkeFRkBB:
5518	17519	  000C24   ST      -Y,R18
5519	17521	  000C26   IN      R18,SREG
5520	17522	  000C28   ST      -Y,R18
5521	17524	  000C2A   CALL    avmp_handler
		avmp_handler:
5522	17528	  00047A   ST      -Y,R19
5523	17530	  00047C   POP     R19
5524	17532	  00047E   POP     R18
5525	17534	  000480   PUSH    R31
5526	17536	  000482   PUSH    R30
5527	17538	  000484   MOV     R31,R19
5528	17539	  000486   MOV     R30,R18
5529	17540	  000488   ADD     R30,R16
5530	17541	  00048A   ADC     R31,R17
5531	17542	  00048C   LSL     R30
5532	17543	  00048E   ROL     R31
5533	17544	  000490   LSL     R18
5534	17545	  000492   ROL     R19
5535	17546	  000494   LPM      R16,Z+
5536	17549	  000496   LPM      R17,Z
5537	17552	  000498   ADD     R18,R16
5538	17553	  00049A   ADC     R19,R17
5539	17554	  00049C   LSR     R19
5540	17555	  00049E   ROR     R18
5541	17556	  0004A0   POP     R30
5542	17558	  0004A2   POP     R31
5543	17560	  0004A4   PUSH    R18
5544	17562	  0004A6   PUSH    R19
5545	17564	  0004A8   LD      R19,Y+
5546	17566	  0004AA   LD      R18,Y+
5547	17568	  0004AC   OUT     SREG,R18
5548	17569	  0004AE   LD      R18,Y+
5549	17571	  0004B0   LD      R16,Y+
5550	17573	  0004B2   LD      R17,Y+
5551	17575	  0004B4   RET
		??uLOFSlcCdwpDQBlIAmsLqIkzAbswb:
5552	17579	  00126E   ST      -Y,R16
5553	17581	  001270   LDI     R16,0x08
5554	17582	  001272   ST      -Y,R17
5555	17584	  001274   ST      -Y,R16
5556	17586	  001276   LDI     R17,0x00
5557	17587	  001278   LDI     R16,0x54
5558	17588	  00127A   JMP     ??qpQLuPnEUlJCOQbkVsgBFJkeFRkBB
		??qpQLuPnEUlJCOQbkVsgBFJkeFRkBB:
5559	17591	  000C24   ST      -Y,R18
5560	17593	  000C26   IN      R18,SREG
5561	17594	  000C28   ST      -Y,R18
5562	17596	  000C2A   CALL    avmp_handler
		avmp_handler:
5563	17600	  00047A   ST      -Y,R19
5564	17602	  00047C   POP     R19
5565	17604	  00047E   POP     R18
5566	17606	  000480   PUSH    R31
5567	17608	  000482   PUSH    R30
5568	17610	  000484   MOV     R31,R19
5569	17611	  000486   MOV     R30,R18
5570	17612	  000488   ADD     R30,R16
5571	17613	  00048A   ADC     R31,R17
5572	17614	  00048C   LSL     R30
5573	17615	  00048E   ROL     R31
5574	17616	  000490   LSL     R18
5575	17617	  000492   ROL     R19
5576	17618	  000494   LPM      R16,Z+
5577	17621	  000496   LPM      R17,Z
5578	17624	  000498   ADD     R18,R16
5579	17625	  00049A   ADC     R19,R17
5580	17626	  00049C   LSR     R19
5581	17627	  00049E   ROR     R18
5582	17628	  0004A0   POP     R30
5583	17630	  0004A2   POP     R31
5584	17632	  0004A4   PUSH    R18
5585	17634	  0004A6   PUSH    R19
5586	17636	  0004A8   LD      R19,Y+
5587	17638	  0004AA   LD      R18,Y+
5588	17640	  0004AC   OUT     SREG,R18
5589	17641	  0004AE   LD      R18,Y+
5590	17643	  0004B0   LD      R16,Y+
5591	17645	  0004B2   LD      R17,Y+
5592	17647	  0004B4   RET
		??ocguyBcUXyoUAvUfJKpRDkgEQmZoQ:
5593	17651	  00127E   LDI     R17,0x00
5594	17652	  001280   ST      -Y,R17
5595	17654	  001282   ST      -Y,R17
5596	17656	  001284   ST      -Y,R16
5597	17658	  001286   LDI     R17,0x00
5598	17659	  001288   LDI     R16,0x55
5599	17660	  00128A   JMP     ??qpQLuPnEUlJCOQbkVsgBFJkeFRkBB
		??qpQLuPnEUlJCOQbkVsgBFJkeFRkBB:
5600	17663	  000C24   ST      -Y,R18
5601	17665	  000C26   IN      R18,SREG
5602	17666	  000C28   ST      -Y,R18
5603	17668	  000C2A   CALL    avmp_handler
		avmp_handler:
5604	17672	  00047A   ST      -Y,R19
5605	17674	  00047C   POP     R19
5606	17676	  00047E   POP     R18
5607	17678	  000480   PUSH    R31
5608	17680	  000482   PUSH    R30
5609	17682	  000484   MOV     R31,R19
5610	17683	  000486   MOV     R30,R18
5611	17684	  000488   ADD     R30,R16
5612	17685	  00048A   ADC     R31,R17
5613	17686	  00048C   LSL     R30
5614	17687	  00048E   ROL     R31
5615	17688	  000490   LSL     R18
5616	17689	  000492   ROL     R19
5617	17690	  000494   LPM      R16,Z+
5618	17693	  000496   LPM      R17,Z
5619	17696	  000498   ADD     R18,R16
5620	17697	  00049A   ADC     R19,R17
5621	17698	  00049C   LSR     R19
5622	17699	  00049E   ROR     R18
5623	17700	  0004A0   POP     R30
5624	17702	  0004A2   POP     R31
5625	17704	  0004A4   PUSH    R18
5626	17706	  0004A6   PUSH    R19
5627	17708	  0004A8   LD      R19,Y+
5628	17710	  0004AA   LD      R18,Y+
5629	17712	  0004AC   OUT     SREG,R18
5630	17713	  0004AE   LD      R18,Y+
5631	17715	  0004B0   LD      R16,Y+
5632	17717	  0004B2   LD      R17,Y+
5633	17719	  0004B4   RET
		??lwcvOtCgyzpVzMKDBNpYfwqNXgPFa:
5634	17723	  00128E   ST      -Y,R16
5635	17725	  001290   LDI     R16,0x07
5636	17726	  001292   ST      -Y,R17
5637	17728	  001294   ST      -Y,R16
5638	17730	  001296   LDI     R17,0x00
5639	17731	  001298   LDI     R16,0x56
5640	17732	  00129A   JMP     ??qpQLuPnEUlJCOQbkVsgBFJkeFRkBB
		??qpQLuPnEUlJCOQbkVsgBFJkeFRkBB:
5641	17735	  000C24   ST      -Y,R18
5642	17737	  000C26   IN      R18,SREG
5643	17738	  000C28   ST      -Y,R18
5644	17740	  000C2A   CALL    avmp_handler
		avmp_handler:
5645	17744	  00047A   ST      -Y,R19
5646	17746	  00047C   POP     R19
5647	17748	  00047E   POP     R18
5648	17750	  000480   PUSH    R31
5649	17752	  000482   PUSH    R30
5650	17754	  000484   MOV     R31,R19
5651	17755	  000486   MOV     R30,R18
5652	17756	  000488   ADD     R30,R16
5653	17757	  00048A   ADC     R31,R17
5654	17758	  00048C   LSL     R30
5655	17759	  00048E   ROL     R31
5656	17760	  000490   LSL     R18
5657	17761	  000492   ROL     R19
5658	17762	  000494   LPM      R16,Z+
5659	17765	  000496   LPM      R17,Z
5660	17768	  000498   ADD     R18,R16
5661	17769	  00049A   ADC     R19,R17
5662	17770	  00049C   LSR     R19
5663	17771	  00049E   ROR     R18
5664	17772	  0004A0   POP     R30
5665	17774	  0004A2   POP     R31
5666	17776	  0004A4   PUSH    R18
5667	17778	  0004A6   PUSH    R19
5668	17780	  0004A8   LD      R19,Y+
5669	17782	  0004AA   LD      R18,Y+
5670	17784	  0004AC   OUT     SREG,R18
5671	17785	  0004AE   LD      R18,Y+
5672	17787	  0004B0   LD      R16,Y+
5673	17789	  0004B2   LD      R17,Y+
5674	17791	  0004B4   RET
		??HkyiDgaghMIIkYiQWoGgQCLQnFUXN:
5675	17795	  00129E   LDI     R17,0x00
5676	17796	  0012A0   ST      -Y,R17
5677	17798	  0012A2   ST      -Y,R17
5678	17800	  0012A4   ST      -Y,R16
5679	17802	  0012A6   LDI     R17,0x00
5680	17803	  0012A8   LDI     R16,0x57
5681	17804	  0012AA   JMP     ??qpQLuPnEUlJCOQbkVsgBFJkeFRkBB
		??qpQLuPnEUlJCOQbkVsgBFJkeFRkBB:
5682	17807	  000C24   ST      -Y,R18
5683	17809	  000C26   IN      R18,SREG
5684	17810	  000C28   ST      -Y,R18
5685	17812	  000C2A   CALL    avmp_handler
		avmp_handler:
5686	17816	  00047A   ST      -Y,R19
5687	17818	  00047C   POP     R19
5688	17820	  00047E   POP     R18
5689	17822	  000480   PUSH    R31
5690	17824	  000482   PUSH    R30
5691	17826	  000484   MOV     R31,R19
5692	17827	  000486   MOV     R30,R18
5693	17828	  000488   ADD     R30,R16
5694	17829	  00048A   ADC     R31,R17
5695	17830	  00048C   LSL     R30
5696	17831	  00048E   ROL     R31
5697	17832	  000490   LSL     R18
5698	17833	  000492   ROL     R19
5699	17834	  000494   LPM      R16,Z+
5700	17837	  000496   LPM      R17,Z
5701	17840	  000498   ADD     R18,R16
5702	17841	  00049A   ADC     R19,R17
5703	17842	  00049C   LSR     R19
5704	17843	  00049E   ROR     R18
5705	17844	  0004A0   POP     R30
5706	17846	  0004A2   POP     R31
5707	17848	  0004A4   PUSH    R18
5708	17850	  0004A6   PUSH    R19
5709	17852	  0004A8   LD      R19,Y+
5710	17854	  0004AA   LD      R18,Y+
5711	17856	  0004AC   OUT     SREG,R18
5712	17857	  0004AE   LD      R18,Y+
5713	17859	  0004B0   LD      R16,Y+
5714	17861	  0004B2   LD      R17,Y+
5715	17863	  0004B4   RET
		??JDSiIWYGMreAMccvXpeJxoyhXKEDX:
5716	17867	  0012AE   ST      -Y,R16
5717	17869	  0012B0   LDI     R16,0x06
5718	17870	  0012B2   ST      -Y,R17
5719	17872	  0012B4   ST      -Y,R16
5720	17874	  0012B6   LDI     R17,0x00
5721	17875	  0012B8   LDI     R16,0x58
5722	17876	  0012BA   JMP     ??qpQLuPnEUlJCOQbkVsgBFJkeFRkBB
		??qpQLuPnEUlJCOQbkVsgBFJkeFRkBB:
5723	17879	  000C24   ST      -Y,R18
5724	17881	  000C26   IN      R18,SREG
5725	17882	  000C28   ST      -Y,R18
5726	17884	  000C2A   CALL    avmp_handler
		avmp_handler:
5727	17888	  00047A   ST      -Y,R19
5728	17890	  00047C   POP     R19
5729	17892	  00047E   POP     R18
5730	17894	  000480   PUSH    R31
5731	17896	  000482   PUSH    R30
5732	17898	  000484   MOV     R31,R19
5733	17899	  000486   MOV     R30,R18
5734	17900	  000488   ADD     R30,R16
5735	17901	  00048A   ADC     R31,R17
5736	17902	  00048C   LSL     R30
5737	17903	  00048E   ROL     R31
5738	17904	  000490   LSL     R18
5739	17905	  000492   ROL     R19
5740	17906	  000494   LPM      R16,Z+
5741	17909	  000496   LPM      R17,Z
5742	17912	  000498   ADD     R18,R16
5743	17913	  00049A   ADC     R19,R17
5744	17914	  00049C   LSR     R19
5745	17915	  00049E   ROR     R18
5746	17916	  0004A0   POP     R30
5747	17918	  0004A2   POP     R31
5748	17920	  0004A4   PUSH    R18
5749	17922	  0004A6   PUSH    R19
5750	17924	  0004A8   LD      R19,Y+
5751	17926	  0004AA   LD      R18,Y+
5752	17928	  0004AC   OUT     SREG,R18
5753	17929	  0004AE   LD      R18,Y+
5754	17931	  0004B0   LD      R16,Y+
5755	17933	  0004B2   LD      R17,Y+
5756	17935	  0004B4   RET
		??vRxvZcxuPDqGJXsfNSIICCPqAiBvG:
5757	17939	  0012BE   LDI     R17,0x00
5758	17940	  0012C0   ST      -Y,R17
5759	17942	  0012C2   ST      -Y,R17
5760	17944	  0012C4   ST      -Y,R16
5761	17946	  0012C6   LDI     R17,0x00
5762	17947	  0012C8   LDI     R16,0x59
5763	17948	  0012CA   JMP     ??qpQLuPnEUlJCOQbkVsgBFJkeFRkBB
		??qpQLuPnEUlJCOQbkVsgBFJkeFRkBB:
5764	17951	  000C24   ST      -Y,R18
5765	17953	  000C26   IN      R18,SREG
5766	17954	  000C28   ST      -Y,R18
5767	17956	  000C2A   CALL    avmp_handler
		avmp_handler:
5768	17960	  00047A   ST      -Y,R19
5769	17962	  00047C   POP     R19
5770	17964	  00047E   POP     R18
5771	17966	  000480   PUSH    R31
5772	17968	  000482   PUSH    R30
5773	17970	  000484   MOV     R31,R19
5774	17971	  000486   MOV     R30,R18
5775	17972	  000488   ADD     R30,R16
5776	17973	  00048A   ADC     R31,R17
5777	17974	  00048C   LSL     R30
5778	17975	  00048E   ROL     R31
5779	17976	  000490   LSL     R18
5780	17977	  000492   ROL     R19
5781	17978	  000494   LPM      R16,Z+
5782	17981	  000496   LPM      R17,Z
5783	17984	  000498   ADD     R18,R16
5784	17985	  00049A   ADC     R19,R17
5785	17986	  00049C   LSR     R19
5786	17987	  00049E   ROR     R18
5787	17988	  0004A0   POP     R30
5788	17990	  0004A2   POP     R31
5789	17992	  0004A4   PUSH    R18
5790	17994	  0004A6   PUSH    R19
5791	17996	  0004A8   LD      R19,Y+
5792	17998	  0004AA   LD      R18,Y+
5793	18000	  0004AC   OUT     SREG,R18
5794	18001	  0004AE   LD      R18,Y+
5795	18003	  0004B0   LD      R16,Y+
5796	18005	  0004B2   LD      R17,Y+
5797	18007	  0004B4   RET
		??qmmyKwomOtMkaNTEebpYTyaVoRNpZ:
5798	18011	  0012CE   ST      -Y,R16
5799	18013	  0012D0   LDI     R16,0x05
5800	18014	  0012D2   ST      -Y,R17
5801	18016	  0012D4   ST      -Y,R16
5802	18018	  0012D6   LDI     R17,0x00
5803	18019	  0012D8   LDI     R16,0x5A
5804	18020	  0012DA   JMP     ??qpQLuPnEUlJCOQbkVsgBFJkeFRkBB
		??qpQLuPnEUlJCOQbkVsgBFJkeFRkBB:
5805	18023	  000C24   ST      -Y,R18
5806	18025	  000C26   IN      R18,SREG
5807	18026	  000C28   ST      -Y,R18
5808	18028	  000C2A   CALL    avmp_handler
		avmp_handler:
5809	18032	  00047A   ST      -Y,R19
5810	18034	  00047C   POP     R19
5811	18036	  00047E   POP     R18
5812	18038	  000480   PUSH    R31
5813	18040	  000482   PUSH    R30
5814	18042	  000484   MOV     R31,R19
5815	18043	  000486   MOV     R30,R18
5816	18044	  000488   ADD     R30,R16
5817	18045	  00048A   ADC     R31,R17
5818	18046	  00048C   LSL     R30
5819	18047	  00048E   ROL     R31
5820	18048	  000490   LSL     R18
5821	18049	  000492   ROL     R19
5822	18050	  000494   LPM      R16,Z+
5823	18053	  000496   LPM      R17,Z
5824	18056	  000498   ADD     R18,R16
5825	18057	  00049A   ADC     R19,R17
5826	18058	  00049C   LSR     R19
5827	18059	  00049E   ROR     R18
5828	18060	  0004A0   POP     R30
5829	18062	  0004A2   POP     R31
5830	18064	  0004A4   PUSH    R18
5831	18066	  0004A6   PUSH    R19
5832	18068	  0004A8   LD      R19,Y+
5833	18070	  0004AA   LD      R18,Y+
5834	18072	  0004AC   OUT     SREG,R18
5835	18073	  0004AE   LD      R18,Y+
5836	18075	  0004B0   LD      R16,Y+
5837	18077	  0004B2   LD      R17,Y+
5838	18079	  0004B4   RET
		??FXFOwIFYKaYEvGgyYOfdZaUtFPHtc:
5839	18083	  0012DE   LDI     R17,0x00
5840	18084	  0012E0   ST      -Y,R17
5841	18086	  0012E2   ST      -Y,R17
5842	18088	  0012E4   ST      -Y,R16
5843	18090	  0012E6   LDI     R17,0x00
5844	18091	  0012E8   LDI     R16,0x5B
5845	18092	  0012EA   JMP     ??qpQLuPnEUlJCOQbkVsgBFJkeFRkBB
		??qpQLuPnEUlJCOQbkVsgBFJkeFRkBB:
5846	18095	  000C24   ST      -Y,R18
5847	18097	  000C26   IN      R18,SREG
5848	18098	  000C28   ST      -Y,R18
5849	18100	  000C2A   CALL    avmp_handler
		avmp_handler:
5850	18104	  00047A   ST      -Y,R19
5851	18106	  00047C   POP     R19
5852	18108	  00047E   POP     R18
5853	18110	  000480   PUSH    R31
5854	18112	  000482   PUSH    R30
5855	18114	  000484   MOV     R31,R19
5856	18115	  000486   MOV     R30,R18
5857	18116	  000488   ADD     R30,R16
5858	18117	  00048A   ADC     R31,R17
5859	18118	  00048C   LSL     R30
5860	18119	  00048E   ROL     R31
5861	18120	  000490   LSL     R18
5862	18121	  000492   ROL     R19
5863	18122	  000494   LPM      R16,Z+
5864	18125	  000496   LPM      R17,Z
5865	18128	  000498   ADD     R18,R16
5866	18129	  00049A   ADC     R19,R17
5867	18130	  00049C   LSR     R19
5868	18131	  00049E   ROR     R18
5869	18132	  0004A0   POP     R30
5870	18134	  0004A2   POP     R31
5871	18136	  0004A4   PUSH    R18
5872	18138	  0004A6   PUSH    R19
5873	18140	  0004A8   LD      R19,Y+
5874	18142	  0004AA   LD      R18,Y+
5875	18144	  0004AC   OUT     SREG,R18
5876	18145	  0004AE   LD      R18,Y+
5877	18147	  0004B0   LD      R16,Y+
5878	18149	  0004B2   LD      R17,Y+
5879	18151	  0004B4   RET
		??wrSDyEQvSHLaUHjqGVULPZUmaNHJM:
5880	18155	  0012EE   ST      -Y,R16
5881	18157	  0012F0   LDI     R22,0x04
5882	18158	  0012F2   ST      -Y,R17
5883	18160	  0012F4   ST      -Y,R16
5884	18162	  0012F6   LDI     R17,0x00
5885	18163	  0012F8   LDI     R16,0x5C
5886	18164	  0012FA   JMP     ??qpQLuPnEUlJCOQbkVsgBFJkeFRkBB
		??qpQLuPnEUlJCOQbkVsgBFJkeFRkBB:
5887	18167	  000C24   ST      -Y,R18
5888	18169	  000C26   IN      R18,SREG
5889	18170	  000C28   ST      -Y,R18
5890	18172	  000C2A   CALL    avmp_handler
		avmp_handler:
5891	18176	  00047A   ST      -Y,R19
5892	18178	  00047C   POP     R19
5893	18180	  00047E   POP     R18
5894	18182	  000480   PUSH    R31
5895	18184	  000482   PUSH    R30
5896	18186	  000484   MOV     R31,R19
5897	18187	  000486   MOV     R30,R18
5898	18188	  000488   ADD     R30,R16
5899	18189	  00048A   ADC     R31,R17
5900	18190	  00048C   LSL     R30
5901	18191	  00048E   ROL     R31
5902	18192	  000490   LSL     R18
5903	18193	  000492   ROL     R19
5904	18194	  000494   LPM      R16,Z+
5905	18197	  000496   LPM      R17,Z
5906	18200	  000498   ADD     R18,R16
5907	18201	  00049A   ADC     R19,R17
5908	18202	  00049C   LSR     R19
5909	18203	  00049E   ROR     R18
5910	18204	  0004A0   POP     R30
5911	18206	  0004A2   POP     R31
5912	18208	  0004A4   PUSH    R18
5913	18210	  0004A6   PUSH    R19
5914	18212	  0004A8   LD      R19,Y+
5915	18214	  0004AA   LD      R18,Y+
5916	18216	  0004AC   OUT     SREG,R18
5917	18217	  0004AE   LD      R18,Y+
5918	18219	  0004B0   LD      R16,Y+
5919	18221	  0004B2   LD      R17,Y+
5920	18223	  0004B4   RET
		??jKWhwCujXrwESPEbMLPfJrehAGZXs:
5921	18227	  0012FE   LDI     R23,0x00
5922	18228	  001300   LDI     R20,0x03
5923	18229	  001302   ST      -Y,R17
5924	18231	  001304   ST      -Y,R16
5925	18233	  001306   LDI     R17,0x00
5926	18234	  001308   LDI     R16,0x5D
5927	18235	  00130A   JMP     ??qpQLuPnEUlJCOQbkVsgBFJkeFRkBB
		??qpQLuPnEUlJCOQbkVsgBFJkeFRkBB:
5928	18238	  000C24   ST      -Y,R18
5929	18240	  000C26   IN      R18,SREG
5930	18241	  000C28   ST      -Y,R18
5931	18243	  000C2A   CALL    avmp_handler
		avmp_handler:
5932	18247	  00047A   ST      -Y,R19
5933	18249	  00047C   POP     R19
5934	18251	  00047E   POP     R18
5935	18253	  000480   PUSH    R31
5936	18255	  000482   PUSH    R30
5937	18257	  000484   MOV     R31,R19
5938	18258	  000486   MOV     R30,R18
5939	18259	  000488   ADD     R30,R16
5940	18260	  00048A   ADC     R31,R17
5941	18261	  00048C   LSL     R30
5942	18262	  00048E   ROL     R31
5943	18263	  000490   LSL     R18
5944	18264	  000492   ROL     R19
5945	18265	  000494   LPM      R16,Z+
5946	18268	  000496   LPM      R17,Z
5947	18271	  000498   ADD     R18,R16
5948	18272	  00049A   ADC     R19,R17
5949	18273	  00049C   LSR     R19
5950	18274	  00049E   ROR     R18
5951	18275	  0004A0   POP     R30
5952	18277	  0004A2   POP     R31
5953	18279	  0004A4   PUSH    R18
5954	18281	  0004A6   PUSH    R19
5955	18283	  0004A8   LD      R19,Y+
5956	18285	  0004AA   LD      R18,Y+
5957	18287	  0004AC   OUT     SREG,R18
5958	18288	  0004AE   LD      R18,Y+
5959	18290	  0004B0   LD      R16,Y+
5960	18292	  0004B2   LD      R17,Y+
5961	18294	  0004B4   RET
		??aovUrURxDfPEEighDgxvElGNVuauQ:
5962	18298	  00130E   LDI     R21,0x00
5963	18299	  001310   LDI     R18,0x02
5964	18300	  001312   ST      -Y,R17
5965	18302	  001314   ST      -Y,R16
5966	18304	  001316   LDI     R17,0x00
5967	18305	  001318   LDI     R16,0x5E
5968	18306	  00131A   JMP     ??qpQLuPnEUlJCOQbkVsgBFJkeFRkBB
		??qpQLuPnEUlJCOQbkVsgBFJkeFRkBB:
5969	18309	  000C24   ST      -Y,R18
5970	18311	  000C26   IN      R18,SREG
5971	18312	  000C28   ST      -Y,R18
5972	18314	  000C2A   CALL    avmp_handler
		avmp_handler:
5973	18318	  00047A   ST      -Y,R19
5974	18320	  00047C   POP     R19
5975	18322	  00047E   POP     R18
5976	18324	  000480   PUSH    R31
5977	18326	  000482   PUSH    R30
5978	18328	  000484   MOV     R31,R19
5979	18329	  000486   MOV     R30,R18
5980	18330	  000488   ADD     R30,R16
5981	18331	  00048A   ADC     R31,R17
5982	18332	  00048C   LSL     R30
5983	18333	  00048E   ROL     R31
5984	18334	  000490   LSL     R18
5985	18335	  000492   ROL     R19
5986	18336	  000494   LPM      R16,Z+
5987	18339	  000496   LPM      R17,Z
5988	18342	  000498   ADD     R18,R16
5989	18343	  00049A   ADC     R19,R17
5990	18344	  00049C   LSR     R19
5991	18345	  00049E   ROR     R18
5992	18346	  0004A0   POP     R30
5993	18348	  0004A2   POP     R31
5994	18350	  0004A4   PUSH    R18
5995	18352	  0004A6   PUSH    R19
5996	18354	  0004A8   LD      R19,Y+
5997	18356	  0004AA   LD      R18,Y+
5998	18358	  0004AC   OUT     SREG,R18
5999	18359	  0004AE   LD      R18,Y+
6000	18361	  0004B0   LD      R16,Y+
6001	18363	  0004B2   LD      R17,Y+
6002	18365	  0004B4   RET
		??amfplBrHwpohGcOwWgoJjmFmnRlag:
6003	18369	  00131E   LDI     R19,0x00
6004	18370	  001320   LDI     R16,0x01
6005	18371	  001322   ST      -Y,R17
6006	18373	  001324   ST      -Y,R16
6007	18375	  001326   LDI     R17,0x00
6008	18376	  001328   LDI     R16,0x5F
6009	18377	  00132A   JMP     ??qpQLuPnEUlJCOQbkVsgBFJkeFRkBB
		??qpQLuPnEUlJCOQbkVsgBFJkeFRkBB:
6010	18380	  000C24   ST      -Y,R18
6011	18382	  000C26   IN      R18,SREG
6012	18383	  000C28   ST      -Y,R18
6013	18385	  000C2A   CALL    avmp_handler
		avmp_handler:
6014	18389	  00047A   ST      -Y,R19
6015	18391	  00047C   POP     R19
6016	18393	  00047E   POP     R18
6017	18395	  000480   PUSH    R31
6018	18397	  000482   PUSH    R30
6019	18399	  000484   MOV     R31,R19
6020	18400	  000486   MOV     R30,R18
6021	18401	  000488   ADD     R30,R16
6022	18402	  00048A   ADC     R31,R17
6023	18403	  00048C   LSL     R30
6024	18404	  00048E   ROL     R31
6025	18405	  000490   LSL     R18
6026	18406	  000492   ROL     R19
6027	18407	  000494   LPM      R16,Z+
6028	18410	  000496   LPM      R17,Z
6029	18413	  000498   ADD     R18,R16
6030	18414	  00049A   ADC     R19,R17
6031	18415	  00049C   LSR     R19
6032	18416	  00049E   ROR     R18
6033	18417	  0004A0   POP     R30
6034	18419	  0004A2   POP     R31
6035	18421	  0004A4   PUSH    R18
6036	18423	  0004A6   PUSH    R19
6037	18425	  0004A8   LD      R19,Y+
6038	18427	  0004AA   LD      R18,Y+
6039	18429	  0004AC   OUT     SREG,R18
6040	18430	  0004AE   LD      R18,Y+
6041	18432	  0004B0   LD      R16,Y+
6042	18434	  0004B2   LD      R17,Y+
6043	18436	  0004B4   RET
		??OXyDQVwHhXEPRmipVQOhWKqEdQOws:
6044	18440	  00132E   LDI     R17,0x00
6045	18441	  001330   CALL    TestParam9
		TestParam9:
6046	18445	  0009D4   ST      -Y,R17
6047	18447	  0009D6   ST      -Y,R16
6048	18449	  0009D8   LDI     R17,0x00
6049	18450	  0009DA   LDI     R16,0x02
		??UvwQMCznRTUekSKIjHowpjvLUiIlv:
6050	18451	  0009DC   ST      -Y,R18
6051	18453	  0009DE   IN      R18,SREG
6052	18454	  0009E0   ST      -Y,R18
6053	18456	  0009E2   CALL    avmp_handler
		avmp_handler:
6054	18460	  00047A   ST      -Y,R19
6055	18462	  00047C   POP     R19
6056	18464	  00047E   POP     R18
6057	18466	  000480   PUSH    R31
6058	18468	  000482   PUSH    R30
6059	18470	  000484   MOV     R31,R19
6060	18471	  000486   MOV     R30,R18
6061	18472	  000488   ADD     R30,R16
6062	18473	  00048A   ADC     R31,R17
6063	18474	  00048C   LSL     R30
6064	18475	  00048E   ROL     R31
6065	18476	  000490   LSL     R18
6066	18477	  000492   ROL     R19
6067	18478	  000494   LPM      R16,Z+
6068	18481	  000496   LPM      R17,Z
6069	18484	  000498   ADD     R18,R16
6070	18485	  00049A   ADC     R19,R17
6071	18486	  00049C   LSR     R19
6072	18487	  00049E   ROR     R18
6073	18488	  0004A0   POP     R30
6074	18490	  0004A2   POP     R31
6075	18492	  0004A4   PUSH    R18
6076	18494	  0004A6   PUSH    R19
6077	18496	  0004A8   LD      R19,Y+
6078	18498	  0004AA   LD      R18,Y+
6079	18500	  0004AC   OUT     SREG,R18
6080	18501	  0004AE   LD      R18,Y+
6081	18503	  0004B0   LD      R16,Y+
6082	18505	  0004B2   LD      R17,Y+
6083	18507	  0004B4   RET
		??GVUAGJAmZhOQKiGQESxSjSKvBNgEC:
6084	18511	  000A14   ADD     R16,R18
6085	18512	  000A16   ADC     R17,R19
6086	18513	  000A18   ST      -Y,R17
6087	18515	  000A1A   ST      -Y,R16
6088	18517	  000A1C   LDI     R17,0x00
6089	18518	  000A1E   LDI     R16,0x03
6090	18519	  000A20   JMP     ??UvwQMCznRTUekSKIjHowpjvLUiIlv
		??UvwQMCznRTUekSKIjHowpjvLUiIlv:
6091	18522	  0009DC   ST      -Y,R18
6092	18524	  0009DE   IN      R18,SREG
6093	18525	  0009E0   ST      -Y,R18
6094	18527	  0009E2   CALL    avmp_handler
		avmp_handler:
6095	18531	  00047A   ST      -Y,R19
6096	18533	  00047C   POP     R19
6097	18535	  00047E   POP     R18
6098	18537	  000480   PUSH    R31
6099	18539	  000482   PUSH    R30
6100	18541	  000484   MOV     R31,R19
6101	18542	  000486   MOV     R30,R18
6102	18543	  000488   ADD     R30,R16
6103	18544	  00048A   ADC     R31,R17
6104	18545	  00048C   LSL     R30
6105	18546	  00048E   ROL     R31
6106	18547	  000490   LSL     R18
6107	18548	  000492   ROL     R19
6108	18549	  000494   LPM      R16,Z+
6109	18552	  000496   LPM      R17,Z
6110	18555	  000498   ADD     R18,R16
6111	18556	  00049A   ADC     R19,R17
6112	18557	  00049C   LSR     R19
6113	18558	  00049E   ROR     R18
6114	18559	  0004A0   POP     R30
6115	18561	  0004A2   POP     R31
6116	18563	  0004A4   PUSH    R18
6117	18565	  0004A6   PUSH    R19
6118	18567	  0004A8   LD      R19,Y+
6119	18569	  0004AA   LD      R18,Y+
6120	18571	  0004AC   OUT     SREG,R18
6121	18572	  0004AE   LD      R18,Y+
6122	18574	  0004B0   LD      R16,Y+
6123	18576	  0004B2   LD      R17,Y+
6124	18578	  0004B4   RET
		??ylVPVMPbCWQzBGtCUxVOSdyGTzYPP:
6125	18582	  000A24   ADD     R16,R20
6126	18583	  000A26   ADC     R17,R21
6127	18584	  000A28   ST      -Y,R17
6128	18586	  000A2A   ST      -Y,R16
6129	18588	  000A2C   LDI     R17,0x00
6130	18589	  000A2E   LDI     R16,0x04
6131	18590	  000A30   JMP     ??UvwQMCznRTUekSKIjHowpjvLUiIlv
		??UvwQMCznRTUekSKIjHowpjvLUiIlv:
6132	18593	  0009DC   ST      -Y,R18
6133	18595	  0009DE   IN      R18,SREG
6134	18596	  0009E0   ST      -Y,R18
6135	18598	  0009E2   CALL    avmp_handler
		avmp_handler:
6136	18602	  00047A   ST      -Y,R19
6137	18604	  00047C   POP     R19
6138	18606	  00047E   POP     R18
6139	18608	  000480   PUSH    R31
6140	18610	  000482   PUSH    R30
6141	18612	  000484   MOV     R31,R19
6142	18613	  000486   MOV     R30,R18
6143	18614	  000488   ADD     R30,R16
6144	18615	  00048A   ADC     R31,R17
6145	18616	  00048C   LSL     R30
6146	18617	  00048E   ROL     R31
6147	18618	  000490   LSL     R18
6148	18619	  000492   ROL     R19
6149	18620	  000494   LPM      R16,Z+
6150	18623	  000496   LPM      R17,Z
6151	18626	  000498   ADD     R18,R16
6152	18627	  00049A   ADC     R19,R17
6153	18628	  00049C   LSR     R19
6154	18629	  00049E   ROR     R18
6155	18630	  0004A0   POP     R30
6156	18632	  0004A2   POP     R31
6157	18634	  0004A4   PUSH    R18
6158	18636	  0004A6   PUSH    R19
6159	18638	  0004A8   LD      R19,Y+
6160	18640	  0004AA   LD      R18,Y+
6161	18642	  0004AC   OUT     SREG,R18
6162	18643	  0004AE   LD      R18,Y+
6163	18645	  0004B0   LD      R16,Y+
6164	18647	  0004B2   LD      R17,Y+
6165	18649	  0004B4   RET
		??WwwoovgSLawgYXVdbnDMGXPbKgpHA:
6166	18653	  000A34   ADD     R16,R22
6167	18654	  000A36   ADC     R17,R23
6168	18655	  000A38   ST      -Y,R17
6169	18657	  000A3A   ST      -Y,R16
6170	18659	  000A3C   LDI     R17,0x00
6171	18660	  000A3E   LDI     R16,0x05
6172	18661	  000A40   JMP     ??UvwQMCznRTUekSKIjHowpjvLUiIlv
		??UvwQMCznRTUekSKIjHowpjvLUiIlv:
6173	18664	  0009DC   ST      -Y,R18
6174	18666	  0009DE   IN      R18,SREG
6175	18667	  0009E0   ST      -Y,R18
6176	18669	  0009E2   CALL    avmp_handler
		avmp_handler:
6177	18673	  00047A   ST      -Y,R19
6178	18675	  00047C   POP     R19
6179	18677	  00047E   POP     R18
6180	18679	  000480   PUSH    R31
6181	18681	  000482   PUSH    R30
6182	18683	  000484   MOV     R31,R19
6183	18684	  000486   MOV     R30,R18
6184	18685	  000488   ADD     R30,R16
6185	18686	  00048A   ADC     R31,R17
6186	18687	  00048C   LSL     R30
6187	18688	  00048E   ROL     R31
6188	18689	  000490   LSL     R18
6189	18690	  000492   ROL     R19
6190	18691	  000494   LPM      R16,Z+
6191	18694	  000496   LPM      R17,Z
6192	18697	  000498   ADD     R18,R16
6193	18698	  00049A   ADC     R19,R17
6194	18699	  00049C   LSR     R19
6195	18700	  00049E   ROR     R18
6196	18701	  0004A0   POP     R30
6197	18703	  0004A2   POP     R31
6198	18705	  0004A4   PUSH    R18
6199	18707	  0004A6   PUSH    R19
6200	18709	  0004A8   LD      R19,Y+
6201	18711	  0004AA   LD      R18,Y+
6202	18713	  0004AC   OUT     SREG,R18
6203	18714	  0004AE   LD      R18,Y+
6204	18716	  0004B0   LD      R16,Y+
6205	18718	  0004B2   LD      R17,Y+
6206	18720	  0004B4   RET
		??nDJmQNzydyWSfCgJrhwvixHtNFBQZ:
6207	18724	  000A44   LD      R18,Y
6208	18726	  000A46   LDD     R19,Y+1
6209	18728	  000A48   ST      -Y,R17
6210	18730	  000A4A   ST      -Y,R16
6211	18732	  000A4C   LDI     R17,0x00
6212	18733	  000A4E   LDI     R16,0x06
6213	18734	  000A50   JMP     ??UvwQMCznRTUekSKIjHowpjvLUiIlv
		??UvwQMCznRTUekSKIjHowpjvLUiIlv:
6214	18737	  0009DC   ST      -Y,R18
6215	18739	  0009DE   IN      R18,SREG
6216	18740	  0009E0   ST      -Y,R18
6217	18742	  0009E2   CALL    avmp_handler
		avmp_handler:
6218	18746	  00047A   ST      -Y,R19
6219	18748	  00047C   POP     R19
6220	18750	  00047E   POP     R18
6221	18752	  000480   PUSH    R31
6222	18754	  000482   PUSH    R30
6223	18756	  000484   MOV     R31,R19
6224	18757	  000486   MOV     R30,R18
6225	18758	  000488   ADD     R30,R16
6226	18759	  00048A   ADC     R31,R17
6227	18760	  00048C   LSL     R30
6228	18761	  00048E   ROL     R31
6229	18762	  000490   LSL     R18
6230	18763	  000492   ROL     R19
6231	18764	  000494   LPM      R16,Z+
6232	18767	  000496   LPM      R17,Z
6233	18770	  000498   ADD     R18,R16
6234	18771	  00049A   ADC     R19,R17
6235	18772	  00049C   LSR     R19
6236	18773	  00049E   ROR     R18
6237	18774	  0004A0   POP     R30
6238	18776	  0004A2   POP     R31
6239	18778	  0004A4   PUSH    R18
6240	18780	  0004A6   PUSH    R19
6241	18782	  0004A8   LD      R19,Y+
6242	18784	  0004AA   LD      R18,Y+
6243	18786	  0004AC   OUT     SREG,R18
6244	18787	  0004AE   LD      R18,Y+
6245	18789	  0004B0   LD      R16,Y+
6246	18791	  0004B2   LD      R17,Y+
6247	18793	  0004B4   RET
		??ERYdsWMDjwjVCtFvThLkuupVgEnDa:
6248	18797	  000A54   ADD     R16,R18
6249	18798	  000A56   ADC     R17,R19
6250	18799	  000A58   ST      -Y,R17
6251	18801	  000A5A   ST      -Y,R16
6252	18803	  000A5C   LDI     R17,0x00
6253	18804	  000A5E   LDI     R16,0x07
6254	18805	  000A60   JMP     ??UvwQMCznRTUekSKIjHowpjvLUiIlv
		??UvwQMCznRTUekSKIjHowpjvLUiIlv:
6255	18808	  0009DC   ST      -Y,R18
6256	18810	  0009DE   IN      R18,SREG
6257	18811	  0009E0   ST      -Y,R18
6258	18813	  0009E2   CALL    avmp_handler
		avmp_handler:
6259	18817	  00047A   ST      -Y,R19
6260	18819	  00047C   POP     R19
6261	18821	  00047E   POP     R18
6262	18823	  000480   PUSH    R31
6263	18825	  000482   PUSH    R30
6264	18827	  000484   MOV     R31,R19
6265	18828	  000486   MOV     R30,R18
6266	18829	  000488   ADD     R30,R16
6267	18830	  00048A   ADC     R31,R17
6268	18831	  00048C   LSL     R30
6269	18832	  00048E   ROL     R31
6270	18833	  000490   LSL     R18
6271	18834	  000492   ROL     R19
6272	18835	  000494   LPM      R16,Z+
6273	18838	  000496   LPM      R17,Z
6274	18841	  000498   ADD     R18,R16
6275	18842	  00049A   ADC     R19,R17
6276	18843	  00049C   LSR     R19
6277	18844	  00049E   ROR     R18
6278	18845	  0004A0   POP     R30
6279	18847	  0004A2   POP     R31
6280	18849	  0004A4   PUSH    R18
6281	18851	  0004A6   PUSH    R19
6282	18853	  0004A8   LD      R19,Y+
6283	18855	  0004AA   LD      R18,Y+
6284	18857	  0004AC   OUT     SREG,R18
6285	18858	  0004AE   LD      R18,Y+
6286	18860	  0004B0   LD      R16,Y+
6287	18862	  0004B2   LD      R17,Y+
6288	18864	  0004B4   RET
		??iKtdYzcVOiOxmutCsxglKaJlnjwTU:
6289	18868	  000A64   LDD     R18,Y+2
6290	18870	  000A66   LDD     R19,Y+3
6291	18872	  000A68   ST      -Y,R17
6292	18874	  000A6A   ST      -Y,R16
6293	18876	  000A6C   LDI     R17,0x00
6294	18877	  000A6E   LDI     R16,0x08
6295	18878	  000A70   JMP     ??UvwQMCznRTUekSKIjHowpjvLUiIlv
		??UvwQMCznRTUekSKIjHowpjvLUiIlv:
6296	18881	  0009DC   ST      -Y,R18
6297	18883	  0009DE   IN      R18,SREG
6298	18884	  0009E0   ST      -Y,R18
6299	18886	  0009E2   CALL    avmp_handler
		avmp_handler:
6300	18890	  00047A   ST      -Y,R19
6301	18892	  00047C   POP     R19
6302	18894	  00047E   POP     R18
6303	18896	  000480   PUSH    R31
6304	18898	  000482   PUSH    R30
6305	18900	  000484   MOV     R31,R19
6306	18901	  000486   MOV     R30,R18
6307	18902	  000488   ADD     R30,R16
6308	18903	  00048A   ADC     R31,R17
6309	18904	  00048C   LSL     R30
6310	18905	  00048E   ROL     R31
6311	18906	  000490   LSL     R18
6312	18907	  000492   ROL     R19
6313	18908	  000494   LPM      R16,Z+
6314	18911	  000496   LPM      R17,Z
6315	18914	  000498   ADD     R18,R16
6316	18915	  00049A   ADC     R19,R17
6317	18916	  00049C   LSR     R19
6318	18917	  00049E   ROR     R18
6319	18918	  0004A0   POP     R30
6320	18920	  0004A2   POP     R31
6321	18922	  0004A4   PUSH    R18
6322	18924	  0004A6   PUSH    R19
6323	18926	  0004A8   LD      R19,Y+
6324	18928	  0004AA   LD      R18,Y+
6325	18930	  0004AC   OUT     SREG,R18
6326	18931	  0004AE   LD      R18,Y+
6327	18933	  0004B0   LD      R16,Y+
6328	18935	  0004B2   LD      R17,Y+
6329	18937	  0004B4   RET
		??vutHImNsoIfLWMSeYQLoainbLlHsK:
6330	18941	  000A74   ADD     R16,R18
6331	18942	  000A76   ADC     R17,R19
6332	18943	  000A78   ST      -Y,R17
6333	18945	  000A7A   ST      -Y,R16
6334	18947	  000A7C   LDI     R17,0x00
6335	18948	  000A7E   LDI     R16,0x09
6336	18949	  000A80   JMP     ??UvwQMCznRTUekSKIjHowpjvLUiIlv
		??UvwQMCznRTUekSKIjHowpjvLUiIlv:
6337	18952	  0009DC   ST      -Y,R18
6338	18954	  0009DE   IN      R18,SREG
6339	18955	  0009E0   ST      -Y,R18
6340	18957	  0009E2   CALL    avmp_handler
		avmp_handler:
6341	18961	  00047A   ST      -Y,R19
6342	18963	  00047C   POP     R19
6343	18965	  00047E   POP     R18
6344	18967	  000480   PUSH    R31
6345	18969	  000482   PUSH    R30
6346	18971	  000484   MOV     R31,R19
6347	18972	  000486   MOV     R30,R18
6348	18973	  000488   ADD     R30,R16
6349	18974	  00048A   ADC     R31,R17
6350	18975	  00048C   LSL     R30
6351	18976	  00048E   ROL     R31
6352	18977	  000490   LSL     R18
6353	18978	  000492   ROL     R19
6354	18979	  000494   LPM      R16,Z+
6355	18982	  000496   LPM      R17,Z
6356	18985	  000498   ADD     R18,R16
6357	18986	  00049A   ADC     R19,R17
6358	18987	  00049C   LSR     R19
6359	18988	  00049E   ROR     R18
6360	18989	  0004A0   POP     R30
6361	18991	  0004A2   POP     R31
6362	18993	  0004A4   PUSH    R18
6363	18995	  0004A6   PUSH    R19
6364	18997	  0004A8   LD      R19,Y+
6365	18999	  0004AA   LD      R18,Y+
6366	19001	  0004AC   OUT     SREG,R18
6367	19002	  0004AE   LD      R18,Y+
6368	19004	  0004B0   LD      R16,Y+
6369	19006	  0004B2   LD      R17,Y+
6370	19008	  0004B4   RET
		??xeTddxmJDYWiCAmzFvBQTFYOHzfyo:
6371	19012	  000A84   LDD     R18,Y+4
6372	19014	  000A86   LDD     R19,Y+5
6373	19016	  000A88   ST      -Y,R17
6374	19018	  000A8A   ST      -Y,R16
6375	19020	  000A8C   LDI     R17,0x00
6376	19021	  000A8E   LDI     R16,0x0A
6377	19022	  000A90   JMP     ??UvwQMCznRTUekSKIjHowpjvLUiIlv
		??UvwQMCznRTUekSKIjHowpjvLUiIlv:
6378	19025	  0009DC   ST      -Y,R18
6379	19027	  0009DE   IN      R18,SREG
6380	19028	  0009E0   ST      -Y,R18
6381	19030	  0009E2   CALL    avmp_handler
		avmp_handler:
6382	19034	  00047A   ST      -Y,R19
6383	19036	  00047C   POP     R19
6384	19038	  00047E   POP     R18
6385	19040	  000480   PUSH    R31
6386	19042	  000482   PUSH    R30
6387	19044	  000484   MOV     R31,R19
6388	19045	  000486   MOV     R30,R18
6389	19046	  000488   ADD     R30,R16
6390	19047	  00048A   ADC     R31,R17
6391	19048	  00048C   LSL     R30
6392	19049	  00048E   ROL     R31
6393	19050	  000490   LSL     R18
6394	19051	  000492   ROL     R19
6395	19052	  000494   LPM      R16,Z+
6396	19055	  000496   LPM      R17,Z
6397	19058	  000498   ADD     R18,R16
6398	19059	  00049A   ADC     R19,R17
6399	19060	  00049C   LSR     R19
6400	19061	  00049E   ROR     R18
6401	19062	  0004A0   POP     R30
6402	19064	  0004A2   POP     R31
6403	19066	  0004A4   PUSH    R18
6404	19068	  0004A6   PUSH    R19
6405	19070	  0004A8   LD      R19,Y+
6406	19072	  0004AA   LD      R18,Y+
6407	19074	  0004AC   OUT     SREG,R18
6408	19075	  0004AE   LD      R18,Y+
6409	19077	  0004B0   LD      R16,Y+
6410	19079	  0004B2   LD      R17,Y+
6411	19081	  0004B4   RET
		??vZkNqEgLeEIKLYgyqpxNczfavXjRL:
6412	19085	  000A94   ADD     R16,R18
6413	19086	  000A96   ADC     R17,R19
6414	19087	  000A98   ST      -Y,R17
6415	19089	  000A9A   ST      -Y,R16
6416	19091	  000A9C   LDI     R17,0x00
6417	19092	  000A9E   LDI     R16,0x0B
6418	19093	  000AA0   JMP     ??UvwQMCznRTUekSKIjHowpjvLUiIlv
		??UvwQMCznRTUekSKIjHowpjvLUiIlv:
6419	19096	  0009DC   ST      -Y,R18
6420	19098	  0009DE   IN      R18,SREG
6421	19099	  0009E0   ST      -Y,R18
6422	19101	  0009E2   CALL    avmp_handler
		avmp_handler:
6423	19105	  00047A   ST      -Y,R19
6424	19107	  00047C   POP     R19
6425	19109	  00047E   POP     R18
6426	19111	  000480   PUSH    R31
6427	19113	  000482   PUSH    R30
6428	19115	  000484   MOV     R31,R19
6429	19116	  000486   MOV     R30,R18
6430	19117	  000488   ADD     R30,R16
6431	19118	  00048A   ADC     R31,R17
6432	19119	  00048C   LSL     R30
6433	19120	  00048E   ROL     R31
6434	19121	  000490   LSL     R18
6435	19122	  000492   ROL     R19
6436	19123	  000494   LPM      R16,Z+
6437	19126	  000496   LPM      R17,Z
6438	19129	  000498   ADD     R18,R16
6439	19130	  00049A   ADC     R19,R17
6440	19131	  00049C   LSR     R19
6441	19132	  00049E   ROR     R18
6442	19133	  0004A0   POP     R30
6443	19135	  0004A2   POP     R31
6444	19137	  0004A4   PUSH    R18
6445	19139	  0004A6   PUSH    R19
6446	19141	  0004A8   LD      R19,Y+
6447	19143	  0004AA   LD      R18,Y+
6448	19145	  0004AC   OUT     SREG,R18
6449	19146	  0004AE   LD      R18,Y+
6450	19148	  0004B0   LD      R16,Y+
6451	19150	  0004B2   LD      R17,Y+
6452	19152	  0004B4   RET
		??JDKjrBNmBnkQAOcGfqzodMMkzDkGq:
6453	19156	  000AA4   LDD     R18,Y+6
6454	19158	  000AA6   LDD     R19,Y+7
6455	19160	  000AA8   ST      -Y,R17
6456	19162	  000AAA   ST      -Y,R16
6457	19164	  000AAC   LDI     R17,0x00
6458	19165	  000AAE   LDI     R16,0x0C
6459	19166	  000AB0   JMP     ??UvwQMCznRTUekSKIjHowpjvLUiIlv
		??UvwQMCznRTUekSKIjHowpjvLUiIlv:
6460	19169	  0009DC   ST      -Y,R18
6461	19171	  0009DE   IN      R18,SREG
6462	19172	  0009E0   ST      -Y,R18
6463	19174	  0009E2   CALL    avmp_handler
		avmp_handler:
6464	19178	  00047A   ST      -Y,R19
6465	19180	  00047C   POP     R19
6466	19182	  00047E   POP     R18
6467	19184	  000480   PUSH    R31
6468	19186	  000482   PUSH    R30
6469	19188	  000484   MOV     R31,R19
6470	19189	  000486   MOV     R30,R18
6471	19190	  000488   ADD     R30,R16
6472	19191	  00048A   ADC     R31,R17
6473	19192	  00048C   LSL     R30
6474	19193	  00048E   ROL     R31
6475	19194	  000490   LSL     R18
6476	19195	  000492   ROL     R19
6477	19196	  000494   LPM      R16,Z+
6478	19199	  000496   LPM      R17,Z
6479	19202	  000498   ADD     R18,R16
6480	19203	  00049A   ADC     R19,R17
6481	19204	  00049C   LSR     R19
6482	19205	  00049E   ROR     R18
6483	19206	  0004A0   POP     R30
6484	19208	  0004A2   POP     R31
6485	19210	  0004A4   PUSH    R18
6486	19212	  0004A6   PUSH    R19
6487	19214	  0004A8   LD      R19,Y+
6488	19216	  0004AA   LD      R18,Y+
6489	19218	  0004AC   OUT     SREG,R18
6490	19219	  0004AE   LD      R18,Y+
6491	19221	  0004B0   LD      R16,Y+
6492	19223	  0004B2   LD      R17,Y+
6493	19225	  0004B4   RET
		??EUvBZGzfBhOCktnPdCvwLlbbgiIMR:
6494	19229	  000AB4   ADD     R16,R18
6495	19230	  000AB6   ADC     R17,R19
6496	19231	  000AB8   ST      -Y,R17
6497	19233	  000ABA   ST      -Y,R16
6498	19235	  000ABC   LDI     R17,0x00
6499	19236	  000ABE   LDI     R16,0x0D
6500	19237	  000AC0   JMP     ??UvwQMCznRTUekSKIjHowpjvLUiIlv
		??UvwQMCznRTUekSKIjHowpjvLUiIlv:
6501	19240	  0009DC   ST      -Y,R18
6502	19242	  0009DE   IN      R18,SREG
6503	19243	  0009E0   ST      -Y,R18
6504	19245	  0009E2   CALL    avmp_handler
		avmp_handler:
6505	19249	  00047A   ST      -Y,R19
6506	19251	  00047C   POP     R19
6507	19253	  00047E   POP     R18
6508	19255	  000480   PUSH    R31
6509	19257	  000482   PUSH    R30
6510	19259	  000484   MOV     R31,R19
6511	19260	  000486   MOV     R30,R18
6512	19261	  000488   ADD     R30,R16
6513	19262	  00048A   ADC     R31,R17
6514	19263	  00048C   LSL     R30
6515	19264	  00048E   ROL     R31
6516	19265	  000490   LSL     R18
6517	19266	  000492   ROL     R19
6518	19267	  000494   LPM      R16,Z+
6519	19270	  000496   LPM      R17,Z
6520	19273	  000498   ADD     R18,R16
6521	19274	  00049A   ADC     R19,R17
6522	19275	  00049C   LSR     R19
6523	19276	  00049E   ROR     R18
6524	19277	  0004A0   POP     R30
6525	19279	  0004A2   POP     R31
6526	19281	  0004A4   PUSH    R18
6527	19283	  0004A6   PUSH    R19
6528	19285	  0004A8   LD      R19,Y+
6529	19287	  0004AA   LD      R18,Y+
6530	19289	  0004AC   OUT     SREG,R18
6531	19290	  0004AE   LD      R18,Y+
6532	19292	  0004B0   LD      R16,Y+
6533	19294	  0004B2   LD      R17,Y+
6534	19296	  0004B4   RET
		??jpChqWIcFPimuCgFTZCtQQdXVJGrw:
6535	19300	  000AC4   LDD     R18,Y+8
6536	19302	  000AC6   LDD     R19,Y+9
6537	19304	  000AC8   ST      -Y,R17
6538	19306	  000ACA   ST      -Y,R16
6539	19308	  000ACC   LDI     R17,0x00
6540	19309	  000ACE   LDI     R16,0x0E
6541	19310	  000AD0   JMP     ??UvwQMCznRTUekSKIjHowpjvLUiIlv
		??UvwQMCznRTUekSKIjHowpjvLUiIlv:
6542	19313	  0009DC   ST      -Y,R18
6543	19315	  0009DE   IN      R18,SREG
6544	19316	  0009E0   ST      -Y,R18
6545	19318	  0009E2   CALL    avmp_handler
		avmp_handler:
6546	19322	  00047A   ST      -Y,R19
6547	19324	  00047C   POP     R19
6548	19326	  00047E   POP     R18
6549	19328	  000480   PUSH    R31
6550	19330	  000482   PUSH    R30
6551	19332	  000484   MOV     R31,R19
6552	19333	  000486   MOV     R30,R18
6553	19334	  000488   ADD     R30,R16
6554	19335	  00048A   ADC     R31,R17
6555	19336	  00048C   LSL     R30
6556	19337	  00048E   ROL     R31
6557	19338	  000490   LSL     R18
6558	19339	  000492   ROL     R19
6559	19340	  000494   LPM      R16,Z+
6560	19343	  000496   LPM      R17,Z
6561	19346	  000498   ADD     R18,R16
6562	19347	  00049A   ADC     R19,R17
6563	19348	  00049C   LSR     R19
6564	19349	  00049E   ROR     R18
6565	19350	  0004A0   POP     R30
6566	19352	  0004A2   POP     R31
6567	19354	  0004A4   PUSH    R18
6568	19356	  0004A6   PUSH    R19
6569	19358	  0004A8   LD      R19,Y+
6570	19360	  0004AA   LD      R18,Y+
6571	19362	  0004AC   OUT     SREG,R18
6572	19363	  0004AE   LD      R18,Y+
6573	19365	  0004B0   LD      R16,Y+
6574	19367	  0004B2   LD      R17,Y+
6575	19369	  0004B4   RET
		??OhwCkVIPBUVfbLLNVMzjSLhAeOKcs:
6576	19373	  000AD4   ADD     R16,R18
6577	19374	  000AD6   ADC     R17,R19
6578	19375	  000AD8   ST      -Y,R17
6579	19377	  000ADA   ST      -Y,R16
6580	19379	  000ADC   LDI     R17,0x00
6581	19380	  000ADE   LDI     R16,0x01
6582	19381	  000AE0   JMP     ??UvwQMCznRTUekSKIjHowpjvLUiIlv
		??UvwQMCznRTUekSKIjHowpjvLUiIlv:
6583	19384	  0009DC   ST      -Y,R18
6584	19386	  0009DE   IN      R18,SREG
6585	19387	  0009E0   ST      -Y,R18
6586	19389	  0009E2   CALL    avmp_handler
		avmp_handler:
6587	19393	  00047A   ST      -Y,R19
6588	19395	  00047C   POP     R19
6589	19397	  00047E   POP     R18
6590	19399	  000480   PUSH    R31
6591	19401	  000482   PUSH    R30
6592	19403	  000484   MOV     R31,R19
6593	19404	  000486   MOV     R30,R18
6594	19405	  000488   ADD     R30,R16
6595	19406	  00048A   ADC     R31,R17
6596	19407	  00048C   LSL     R30
6597	19408	  00048E   ROL     R31
6598	19409	  000490   LSL     R18
6599	19410	  000492   ROL     R19
6600	19411	  000494   LPM      R16,Z+
6601	19414	  000496   LPM      R17,Z
6602	19417	  000498   ADD     R18,R16
6603	19418	  00049A   ADC     R19,R17
6604	19419	  00049C   LSR     R19
6605	19420	  00049E   ROR     R18
6606	19421	  0004A0   POP     R30
6607	19423	  0004A2   POP     R31
6608	19425	  0004A4   PUSH    R18
6609	19427	  0004A6   PUSH    R19
6610	19429	  0004A8   LD      R19,Y+
6611	19431	  0004AA   LD      R18,Y+
6612	19433	  0004AC   OUT     SREG,R18
6613	19434	  0004AE   LD      R18,Y+
6614	19436	  0004B0   LD      R16,Y+
6615	19438	  0004B2   LD      R17,Y+
6616	19440	  0004B4   RET
		??WYmSTVEyvrHJcMWTBuDCYylRLfHPR:
6617	19444	  000A06   ADIW    R28,10
6618	19446	  000A08   ST      -Y,R17
6619	19448	  000A0A   ST      -Y,R16
6620	19450	  000A0C   LDI     R17,0x00
6621	19451	  000A0E   LDI     R16,0x0F
6622	19452	  000A10   JMP     ??UvwQMCznRTUekSKIjHowpjvLUiIlv
		??UvwQMCznRTUekSKIjHowpjvLUiIlv:
6623	19455	  0009DC   ST      -Y,R18
6624	19457	  0009DE   IN      R18,SREG
6625	19458	  0009E0   ST      -Y,R18
6626	19460	  0009E2   CALL    avmp_handler
		avmp_handler:
6627	19464	  00047A   ST      -Y,R19
6628	19466	  00047C   POP     R19
6629	19468	  00047E   POP     R18
6630	19470	  000480   PUSH    R31
6631	19472	  000482   PUSH    R30
6632	19474	  000484   MOV     R31,R19
6633	19475	  000486   MOV     R30,R18
6634	19476	  000488   ADD     R30,R16
6635	19477	  00048A   ADC     R31,R17
6636	19478	  00048C   LSL     R30
6637	19479	  00048E   ROL     R31
6638	19480	  000490   LSL     R18
6639	19481	  000492   ROL     R19
6640	19482	  000494   LPM      R16,Z+
6641	19485	  000496   LPM      R17,Z
6642	19488	  000498   ADD     R18,R16
6643	19489	  00049A   ADC     R19,R17
6644	19490	  00049C   LSR     R19
6645	19491	  00049E   ROR     R18
6646	19492	  0004A0   POP     R30
6647	19494	  0004A2   POP     R31
6648	19496	  0004A4   PUSH    R18
6649	19498	  0004A6   PUSH    R19
6650	19500	  0004A8   LD      R19,Y+
6651	19502	  0004AA   LD      R18,Y+
6652	19504	  0004AC   OUT     SREG,R18
6653	19505	  0004AE   LD      R18,Y+
6654	19507	  0004B0   LD      R16,Y+
6655	19509	  0004B2   LD      R17,Y+
6656	19511	  0004B4   RET
		??NwnUCHdgRIOyJCEKbOCbBKriXDgiv:
6657	19515	  000AE4   RET
6658	19519	  001334   ST      -Y,R17
6659	19521	  001336   ST      -Y,R16
6660	19523	  001338   LDI     R17,0x00
6661	19524	  00133A   LDI     R16,0x60
6662	19525	  00133C   JMP     ??qpQLuPnEUlJCOQbkVsgBFJkeFRkBB
		??qpQLuPnEUlJCOQbkVsgBFJkeFRkBB:
6663	19528	  000C24   ST      -Y,R18
6664	19530	  000C26   IN      R18,SREG
6665	19531	  000C28   ST      -Y,R18
6666	19533	  000C2A   CALL    avmp_handler
		avmp_handler:
6667	19537	  00047A   ST      -Y,R19
6668	19539	  00047C   POP     R19
6669	19541	  00047E   POP     R18
6670	19543	  000480   PUSH    R31
6671	19545	  000482   PUSH    R30
6672	19547	  000484   MOV     R31,R19
6673	19548	  000486   MOV     R30,R18
6674	19549	  000488   ADD     R30,R16
6675	19550	  00048A   ADC     R31,R17
6676	19551	  00048C   LSL     R30
6677	19552	  00048E   ROL     R31
6678	19553	  000490   LSL     R18
6679	19554	  000492   ROL     R19
6680	19555	  000494   LPM      R16,Z+
6681	19558	  000496   LPM      R17,Z
6682	19561	  000498   ADD     R18,R16
6683	19562	  00049A   ADC     R19,R17
6684	19563	  00049C   LSR     R19
6685	19564	  00049E   ROR     R18
6686	19565	  0004A0   POP     R30
6687	19567	  0004A2   POP     R31
6688	19569	  0004A4   PUSH    R18
6689	19571	  0004A6   PUSH    R19
6690	19573	  0004A8   LD      R19,Y+
6691	19575	  0004AA   LD      R18,Y+
6692	19577	  0004AC   OUT     SREG,R18
6693	19578	  0004AE   LD      R18,Y+
6694	19580	  0004B0   LD      R16,Y+
6695	19582	  0004B2   LD      R17,Y+
6696	19584	  0004B4   RET
		??nDKjrYCtmoyubTYHIbuNRtJYQtleJ:
6697	19588	  001340   LD      R18,Y
6698	19590	  001342   LDD     R19,Y+1
6699	19592	  001344   ST      -Y,R17
6700	19594	  001346   ST      -Y,R16
6701	19596	  001348   LDI     R17,0x00
6702	19597	  00134A   LDI     R16,0x61
6703	19598	  00134C   JMP     ??qpQLuPnEUlJCOQbkVsgBFJkeFRkBB
		??qpQLuPnEUlJCOQbkVsgBFJkeFRkBB:
6704	19601	  000C24   ST      -Y,R18
6705	19603	  000C26   IN      R18,SREG
6706	19604	  000C28   ST      -Y,R18
6707	19606	  000C2A   CALL    avmp_handler
		avmp_handler:
6708	19610	  00047A   ST      -Y,R19
6709	19612	  00047C   POP     R19
6710	19614	  00047E   POP     R18
6711	19616	  000480   PUSH    R31
6712	19618	  000482   PUSH    R30
6713	19620	  000484   MOV     R31,R19
6714	19621	  000486   MOV     R30,R18
6715	19622	  000488   ADD     R30,R16
6716	19623	  00048A   ADC     R31,R17
6717	19624	  00048C   LSL     R30
6718	19625	  00048E   ROL     R31
6719	19626	  000490   LSL     R18
6720	19627	  000492   ROL     R19
6721	19628	  000494   LPM      R16,Z+
6722	19631	  000496   LPM      R17,Z
6723	19634	  000498   ADD     R18,R16
6724	19635	  00049A   ADC     R19,R17
6725	19636	  00049C   LSR     R19
6726	19637	  00049E   ROR     R18
6727	19638	  0004A0   POP     R30
6728	19640	  0004A2   POP     R31
6729	19642	  0004A4   PUSH    R18
6730	19644	  0004A6   PUSH    R19
6731	19646	  0004A8   LD      R19,Y+
6732	19648	  0004AA   LD      R18,Y+
6733	19650	  0004AC   OUT     SREG,R18
6734	19651	  0004AE   LD      R18,Y+
6735	19653	  0004B0   LD      R16,Y+
6736	19655	  0004B2   LD      R17,Y+
6737	19657	  0004B4   RET
		??LyZrHjXzsoizebpiQZFPkgbcCvDGa:
6738	19661	  001350   ADD     R18,R16
6739	19662	  001352   ADC     R19,R17
6740	19663	  001354   ST      -Y,R17
6741	19665	  001356   ST      -Y,R16
6742	19667	  001358   LDI     R17,0x00
6743	19668	  00135A   LDI     R16,0x62
6744	19669	  00135C   JMP     ??qpQLuPnEUlJCOQbkVsgBFJkeFRkBB
		??qpQLuPnEUlJCOQbkVsgBFJkeFRkBB:
6745	19672	  000C24   ST      -Y,R18
6746	19674	  000C26   IN      R18,SREG
6747	19675	  000C28   ST      -Y,R18
6748	19677	  000C2A   CALL    avmp_handler
		avmp_handler:
6749	19681	  00047A   ST      -Y,R19
6750	19683	  00047C   POP     R19
6751	19685	  00047E   POP     R18
6752	19687	  000480   PUSH    R31
6753	19689	  000482   PUSH    R30
6754	19691	  000484   MOV     R31,R19
6755	19692	  000486   MOV     R30,R18
6756	19693	  000488   ADD     R30,R16
6757	19694	  00048A   ADC     R31,R17
6758	19695	  00048C   LSL     R30
6759	19696	  00048E   ROL     R31
6760	19697	  000490   LSL     R18
6761	19698	  000492   ROL     R19
6762	19699	  000494   LPM      R16,Z+
6763	19702	  000496   LPM      R17,Z
6764	19705	  000498   ADD     R18,R16
6765	19706	  00049A   ADC     R19,R17
6766	19707	  00049C   LSR     R19
6767	19708	  00049E   ROR     R18
6768	19709	  0004A0   POP     R30
6769	19711	  0004A2   POP     R31
6770	19713	  0004A4   PUSH    R18
6771	19715	  0004A6   PUSH    R19
6772	19717	  0004A8   LD      R19,Y+
6773	19719	  0004AA   LD      R18,Y+
6774	19721	  0004AC   OUT     SREG,R18
6775	19722	  0004AE   LD      R18,Y+
6776	19724	  0004B0   LD      R16,Y+
6777	19726	  0004B2   LD      R17,Y+
6778	19728	  0004B4   RET
		??ERCBqNmPqkwdCSAqIvJechCyVHzkI:
6779	19732	  001360   ST      Y,R18
6780	19734	  001362   STD     Y+1,R19
6781	19736	  001364   ST      -Y,R17
6782	19738	  001366   ST      -Y,R16
6783	19740	  001368   LDI     R17,0x00
6784	19741	  00136A   LDI     R16,0x63
6785	19742	  00136C   JMP     ??qpQLuPnEUlJCOQbkVsgBFJkeFRkBB
		??qpQLuPnEUlJCOQbkVsgBFJkeFRkBB:
6786	19745	  000C24   ST      -Y,R18
6787	19747	  000C26   IN      R18,SREG
6788	19748	  000C28   ST      -Y,R18
6789	19750	  000C2A   CALL    avmp_handler
		avmp_handler:
6790	19754	  00047A   ST      -Y,R19
6791	19756	  00047C   POP     R19
6792	19758	  00047E   POP     R18
6793	19760	  000480   PUSH    R31
6794	19762	  000482   PUSH    R30
6795	19764	  000484   MOV     R31,R19
6796	19765	  000486   MOV     R30,R18
6797	19766	  000488   ADD     R30,R16
6798	19767	  00048A   ADC     R31,R17
6799	19768	  00048C   LSL     R30
6800	19769	  00048E   ROL     R31
6801	19770	  000490   LSL     R18
6802	19771	  000492   ROL     R19
6803	19772	  000494   LPM      R16,Z+
6804	19775	  000496   LPM      R17,Z
6805	19778	  000498   ADD     R18,R16
6806	19779	  00049A   ADC     R19,R17
6807	19780	  00049C   LSR     R19
6808	19781	  00049E   ROR     R18
6809	19782	  0004A0   POP     R30
6810	19784	  0004A2   POP     R31
6811	19786	  0004A4   PUSH    R18
6812	19788	  0004A6   PUSH    R19
6813	19790	  0004A8   LD      R19,Y+
6814	19792	  0004AA   LD      R18,Y+
6815	19794	  0004AC   OUT     SREG,R18
6816	19795	  0004AE   LD      R18,Y+
6817	19797	  0004B0   LD      R16,Y+
6818	19799	  0004B2   LD      R17,Y+
6819	19801	  0004B4   RET
		??ZTCYSCAgwjZAJxRYYHEbYigOoXhKt:
6820	19805	  001370   LDI     R16,0x0A
6821	19806	  001372   LDI     R17,0x00
6822	19807	  001374   ST      -Y,R17
6823	19809	  001376   ST      -Y,R16
6824	19811	  001378   LDI     R17,0x00
6825	19812	  00137A   LDI     R16,0x64
6826	19813	  00137C   JMP     ??qpQLuPnEUlJCOQbkVsgBFJkeFRkBB
		??qpQLuPnEUlJCOQbkVsgBFJkeFRkBB:
6827	19816	  000C24   ST      -Y,R18
6828	19818	  000C26   IN      R18,SREG
6829	19819	  000C28   ST      -Y,R18
6830	19821	  000C2A   CALL    avmp_handler
		avmp_handler:
6831	19825	  00047A   ST      -Y,R19
6832	19827	  00047C   POP     R19
6833	19829	  00047E   POP     R18
6834	19831	  000480   PUSH    R31
6835	19833	  000482   PUSH    R30
6836	19835	  000484   MOV     R31,R19
6837	19836	  000486   MOV     R30,R18
6838	19837	  000488   ADD     R30,R16
6839	19838	  00048A   ADC     R31,R17
6840	19839	  00048C   LSL     R30
6841	19840	  00048E   ROL     R31
6842	19841	  000490   LSL     R18
6843	19842	  000492   ROL     R19
6844	19843	  000494   LPM      R16,Z+
6845	19846	  000496   LPM      R17,Z
6846	19849	  000498   ADD     R18,R16
6847	19850	  00049A   ADC     R19,R17
6848	19851	  00049C   LSR     R19
6849	19852	  00049E   ROR     R18
6850	19853	  0004A0   POP     R30
6851	19855	  0004A2   POP     R31
6852	19857	  0004A4   PUSH    R18
6853	19859	  0004A6   PUSH    R19
6854	19861	  0004A8   LD      R19,Y+
6855	19863	  0004AA   LD      R18,Y+
6856	19865	  0004AC   OUT     SREG,R18
6857	19866	  0004AE   LD      R18,Y+
6858	19868	  0004B0   LD      R16,Y+
6859	19870	  0004B2   LD      R17,Y+
6860	19872	  0004B4   RET
		??qcroLfzuCpgYNPILUvhEAnomQtVir:
6861	19876	  001380   ST      -Y,R17
6862	19878	  001382   ST      -Y,R16
6863	19880	  001384   ST      -Y,R17
6864	19882	  001386   ST      -Y,R16
6865	19884	  001388   LDI     R17,0x00
6866	19885	  00138A   LDI     R16,0x65
6867	19886	  00138C   JMP     ??qpQLuPnEUlJCOQbkVsgBFJkeFRkBB
		??qpQLuPnEUlJCOQbkVsgBFJkeFRkBB:
6868	19889	  000C24   ST      -Y,R18
6869	19891	  000C26   IN      R18,SREG
6870	19892	  000C28   ST      -Y,R18
6871	19894	  000C2A   CALL    avmp_handler
		avmp_handler:
6872	19898	  00047A   ST      -Y,R19
6873	19900	  00047C   POP     R19
6874	19902	  00047E   POP     R18
6875	19904	  000480   PUSH    R31
6876	19906	  000482   PUSH    R30
6877	19908	  000484   MOV     R31,R19
6878	19909	  000486   MOV     R30,R18
6879	19910	  000488   ADD     R30,R16
6880	19911	  00048A   ADC     R31,R17
6881	19912	  00048C   LSL     R30
6882	19913	  00048E   ROL     R31
6883	19914	  000490   LSL     R18
6884	19915	  000492   ROL     R19
6885	19916	  000494   LPM      R16,Z+
6886	19919	  000496   LPM      R17,Z
6887	19922	  000498   ADD     R18,R16
6888	19923	  00049A   ADC     R19,R17
6889	19924	  00049C   LSR     R19
6890	19925	  00049E   ROR     R18
6891	19926	  0004A0   POP     R30
6892	19928	  0004A2   POP     R31
6893	19930	  0004A4   PUSH    R18
6894	19932	  0004A6   PUSH    R19
6895	19934	  0004A8   LD      R19,Y+
6896	19936	  0004AA   LD      R18,Y+
6897	19938	  0004AC   OUT     SREG,R18
6898	19939	  0004AE   LD      R18,Y+
6899	19941	  0004B0   LD      R16,Y+
6900	19943	  0004B2   LD      R17,Y+
6901	19945	  0004B4   RET
		??EwXCjvxhhCJSdYWfBfxTxmTMbHoHF:
6902	19949	  001390   LDI     R16,0x09
6903	19950	  001392   LDI     R17,0x00
6904	19951	  001394   ST      -Y,R17
6905	19953	  001396   ST      -Y,R16
6906	19955	  001398   LDI     R17,0x00
6907	19956	  00139A   LDI     R16,0x66
6908	19957	  00139C   JMP     ??qpQLuPnEUlJCOQbkVsgBFJkeFRkBB
		??qpQLuPnEUlJCOQbkVsgBFJkeFRkBB:
6909	19960	  000C24   ST      -Y,R18
6910	19962	  000C26   IN      R18,SREG
6911	19963	  000C28   ST      -Y,R18
6912	19965	  000C2A   CALL    avmp_handler
		avmp_handler:
6913	19969	  00047A   ST      -Y,R19
6914	19971	  00047C   POP     R19
6915	19973	  00047E   POP     R18
6916	19975	  000480   PUSH    R31
6917	19977	  000482   PUSH    R30
6918	19979	  000484   MOV     R31,R19
6919	19980	  000486   MOV     R30,R18
6920	19981	  000488   ADD     R30,R16
6921	19982	  00048A   ADC     R31,R17
6922	19983	  00048C   LSL     R30
6923	19984	  00048E   ROL     R31
6924	19985	  000490   LSL     R18
6925	19986	  000492   ROL     R19
6926	19987	  000494   LPM      R16,Z+
6927	19990	  000496   LPM      R17,Z
6928	19993	  000498   ADD     R18,R16
6929	19994	  00049A   ADC     R19,R17
6930	19995	  00049C   LSR     R19
6931	19996	  00049E   ROR     R18
6932	19997	  0004A0   POP     R30
6933	19999	  0004A2   POP     R31
6934	20001	  0004A4   PUSH    R18
6935	20003	  0004A6   PUSH    R19
6936	20005	  0004A8   LD      R19,Y+
6937	20007	  0004AA   LD      R18,Y+
6938	20009	  0004AC   OUT     SREG,R18
6939	20010	  0004AE   LD      R18,Y+
6940	20012	  0004B0   LD      R16,Y+
6941	20014	  0004B2   LD      R17,Y+
6942	20016	  0004B4   RET
		??isNkUSRqUyghZYqcKlrTylnLvJpZr:
6943	20020	  0013A0   ST      -Y,R17
6944	20022	  0013A2   ST      -Y,R16
6945	20024	  0013A4   ST      -Y,R17
6946	20026	  0013A6   ST      -Y,R16
6947	20028	  0013A8   LDI     R17,0x00
6948	20029	  0013AA   LDI     R16,0x67
6949	20030	  0013AC   JMP     ??qpQLuPnEUlJCOQbkVsgBFJkeFRkBB
		??qpQLuPnEUlJCOQbkVsgBFJkeFRkBB:
6950	20033	  000C24   ST      -Y,R18
6951	20035	  000C26   IN      R18,SREG
6952	20036	  000C28   ST      -Y,R18
6953	20038	  000C2A   CALL    avmp_handler
		avmp_handler:
6954	20042	  00047A   ST      -Y,R19
6955	20044	  00047C   POP     R19
6956	20046	  00047E   POP     R18
6957	20048	  000480   PUSH    R31
6958	20050	  000482   PUSH    R30
6959	20052	  000484   MOV     R31,R19
6960	20053	  000486   MOV     R30,R18
6961	20054	  000488   ADD     R30,R16
6962	20055	  00048A   ADC     R31,R17
6963	20056	  00048C   LSL     R30
6964	20057	  00048E   ROL     R31
6965	20058	  000490   LSL     R18
6966	20059	  000492   ROL     R19
6967	20060	  000494   LPM      R16,Z+
6968	20063	  000496   LPM      R17,Z
6969	20066	  000498   ADD     R18,R16
6970	20067	  00049A   ADC     R19,R17
6971	20068	  00049C   LSR     R19
6972	20069	  00049E   ROR     R18
6973	20070	  0004A0   POP     R30
6974	20072	  0004A2   POP     R31
6975	20074	  0004A4   PUSH    R18
6976	20076	  0004A6   PUSH    R19
6977	20078	  0004A8   LD      R19,Y+
6978	20080	  0004AA   LD      R18,Y+
6979	20082	  0004AC   OUT     SREG,R18
6980	20083	  0004AE   LD      R18,Y+
6981	20085	  0004B0   LD      R16,Y+
6982	20087	  0004B2   LD      R17,Y+
6983	20089	  0004B4   RET
		??kbVIZwUMvOidRcUfrjSZjbyDbFwhy:
6984	20093	  0013B0   LDI     R16,0x08
6985	20094	  0013B2   LDI     R17,0x00
6986	20095	  0013B4   ST      -Y,R17
6987	20097	  0013B6   ST      -Y,R16
6988	20099	  0013B8   LDI     R17,0x00
6989	20100	  0013BA   LDI     R16,0x68
6990	20101	  0013BC   JMP     ??qpQLuPnEUlJCOQbkVsgBFJkeFRkBB
		??qpQLuPnEUlJCOQbkVsgBFJkeFRkBB:
6991	20104	  000C24   ST      -Y,R18
6992	20106	  000C26   IN      R18,SREG
6993	20107	  000C28   ST      -Y,R18
6994	20109	  000C2A   CALL    avmp_handler
		avmp_handler:
6995	20113	  00047A   ST      -Y,R19
6996	20115	  00047C   POP     R19
6997	20117	  00047E   POP     R18
6998	20119	  000480   PUSH    R31
6999	20121	  000482   PUSH    R30
7000	20123	  000484   MOV     R31,R19
7001	20124	  000486   MOV     R30,R18
7002	20125	  000488   ADD     R30,R16
7003	20126	  00048A   ADC     R31,R17
7004	20127	  00048C   LSL     R30
7005	20128	  00048E   ROL     R31
7006	20129	  000490   LSL     R18
7007	20130	  000492   ROL     R19
7008	20131	  000494   LPM      R16,Z+
7009	20134	  000496   LPM      R17,Z
7010	20137	  000498   ADD     R18,R16
7011	20138	  00049A   ADC     R19,R17
7012	20139	  00049C   LSR     R19
7013	20140	  00049E   ROR     R18
7014	20141	  0004A0   POP     R30
7015	20143	  0004A2   POP     R31
7016	20145	  0004A4   PUSH    R18
7017	20147	  0004A6   PUSH    R19
7018	20149	  0004A8   LD      R19,Y+
7019	20151	  0004AA   LD      R18,Y+
7020	20153	  0004AC   OUT     SREG,R18
7021	20154	  0004AE   LD      R18,Y+
7022	20156	  0004B0   LD      R16,Y+
7023	20158	  0004B2   LD      R17,Y+
7024	20160	  0004B4   RET
		??eNAmmBkbuZlfSrcTEQVjwMLdAdelg:
7025	20164	  0013C0   ST      -Y,R17
7026	20166	  0013C2   ST      -Y,R16
7027	20168	  0013C4   ST      -Y,R17
7028	20170	  0013C6   ST      -Y,R16
7029	20172	  0013C8   LDI     R17,0x00
7030	20173	  0013CA   LDI     R16,0x69
7031	20174	  0013CC   JMP     ??qpQLuPnEUlJCOQbkVsgBFJkeFRkBB
		??qpQLuPnEUlJCOQbkVsgBFJkeFRkBB:
7032	20177	  000C24   ST      -Y,R18
7033	20179	  000C26   IN      R18,SREG
7034	20180	  000C28   ST      -Y,R18
7035	20182	  000C2A   CALL    avmp_handler
		avmp_handler:
7036	20186	  00047A   ST      -Y,R19
7037	20188	  00047C   POP     R19
7038	20190	  00047E   POP     R18
7039	20192	  000480   PUSH    R31
7040	20194	  000482   PUSH    R30
7041	20196	  000484   MOV     R31,R19
7042	20197	  000486   MOV     R30,R18
7043	20198	  000488   ADD     R30,R16
7044	20199	  00048A   ADC     R31,R17
7045	20200	  00048C   LSL     R30
7046	20201	  00048E   ROL     R31
7047	20202	  000490   LSL     R18
7048	20203	  000492   ROL     R19
7049	20204	  000494   LPM      R16,Z+
7050	20207	  000496   LPM      R17,Z
7051	20210	  000498   ADD     R18,R16
7052	20211	  00049A   ADC     R19,R17
7053	20212	  00049C   LSR     R19
7054	20213	  00049E   ROR     R18
7055	20214	  0004A0   POP     R30
7056	20216	  0004A2   POP     R31
7057	20218	  0004A4   PUSH    R18
7058	20220	  0004A6   PUSH    R19
7059	20222	  0004A8   LD      R19,Y+
7060	20224	  0004AA   LD      R18,Y+
7061	20226	  0004AC   OUT     SREG,R18
7062	20227	  0004AE   LD      R18,Y+
7063	20229	  0004B0   LD      R16,Y+
7064	20231	  0004B2   LD      R17,Y+
7065	20233	  0004B4   RET
		??YXZwPijkqYcprFTcukJvRlbEkUBjn:
7066	20237	  0013D0   LDI     R16,0x07
7067	20238	  0013D2   LDI     R17,0x00
7068	20239	  0013D4   ST      -Y,R17
7069	20241	  0013D6   ST      -Y,R16
7070	20243	  0013D8   LDI     R17,0x00
7071	20244	  0013DA   LDI     R16,0x6A
7072	20245	  0013DC   JMP     ??qpQLuPnEUlJCOQbkVsgBFJkeFRkBB
		??qpQLuPnEUlJCOQbkVsgBFJkeFRkBB:
7073	20248	  000C24   ST      -Y,R18
7074	20250	  000C26   IN      R18,SREG
7075	20251	  000C28   ST      -Y,R18
7076	20253	  000C2A   CALL    avmp_handler
		avmp_handler:
7077	20257	  00047A   ST      -Y,R19
7078	20259	  00047C   POP     R19
7079	20261	  00047E   POP     R18
7080	20263	  000480   PUSH    R31
7081	20265	  000482   PUSH    R30
7082	20267	  000484   MOV     R31,R19
7083	20268	  000486   MOV     R30,R18
7084	20269	  000488   ADD     R30,R16
7085	20270	  00048A   ADC     R31,R17
7086	20271	  00048C   LSL     R30
7087	20272	  00048E   ROL     R31
7088	20273	  000490   LSL     R18
7089	20274	  000492   ROL     R19
7090	20275	  000494   LPM      R16,Z+
7091	20278	  000496   LPM      R17,Z
7092	20281	  000498   ADD     R18,R16
7093	20282	  00049A   ADC     R19,R17
7094	20283	  00049C   LSR     R19
7095	20284	  00049E   ROR     R18
7096	20285	  0004A0   POP     R30
7097	20287	  0004A2   POP     R31
7098	20289	  0004A4   PUSH    R18
7099	20291	  0004A6   PUSH    R19
7100	20293	  0004A8   LD      R19,Y+
7101	20295	  0004AA   LD      R18,Y+
7102	20297	  0004AC   OUT     SREG,R18
7103	20298	  0004AE   LD      R18,Y+
7104	20300	  0004B0   LD      R16,Y+
7105	20302	  0004B2   LD      R17,Y+
7106	20304	  0004B4   RET
		??nDwopKYaZVkRIiUvUrMYftMMpjjbb:
7107	20308	  0013E0   ST      -Y,R17
7108	20310	  0013E2   ST      -Y,R16
7109	20312	  0013E4   ST      -Y,R17
7110	20314	  0013E6   ST      -Y,R16
7111	20316	  0013E8   LDI     R17,0x00
7112	20317	  0013EA   LDI     R16,0x6B
7113	20318	  0013EC   JMP     ??qpQLuPnEUlJCOQbkVsgBFJkeFRkBB
		??qpQLuPnEUlJCOQbkVsgBFJkeFRkBB:
7114	20321	  000C24   ST      -Y,R18
7115	20323	  000C26   IN      R18,SREG
7116	20324	  000C28   ST      -Y,R18
7117	20326	  000C2A   CALL    avmp_handler
		avmp_handler:
7118	20330	  00047A   ST      -Y,R19
7119	20332	  00047C   POP     R19
7120	20334	  00047E   POP     R18
7121	20336	  000480   PUSH    R31
7122	20338	  000482   PUSH    R30
7123	20340	  000484   MOV     R31,R19
7124	20341	  000486   MOV     R30,R18
7125	20342	  000488   ADD     R30,R16
7126	20343	  00048A   ADC     R31,R17
7127	20344	  00048C   LSL     R30
7128	20345	  00048E   ROL     R31
7129	20346	  000490   LSL     R18
7130	20347	  000492   ROL     R19
7131	20348	  000494   LPM      R16,Z+
7132	20351	  000496   LPM      R17,Z
7133	20354	  000498   ADD     R18,R16
7134	20355	  00049A   ADC     R19,R17
7135	20356	  00049C   LSR     R19
7136	20357	  00049E   ROR     R18
7137	20358	  0004A0   POP     R30
7138	20360	  0004A2   POP     R31
7139	20362	  0004A4   PUSH    R18
7140	20364	  0004A6   PUSH    R19
7141	20366	  0004A8   LD      R19,Y+
7142	20368	  0004AA   LD      R18,Y+
7143	20370	  0004AC   OUT     SREG,R18
7144	20371	  0004AE   LD      R18,Y+
7145	20373	  0004B0   LD      R16,Y+
7146	20375	  0004B2   LD      R17,Y+
7147	20377	  0004B4   RET
		??WjhpbpnZVafeiXbyKqwOJkUVqEjzy:
7148	20381	  0013F0   LDI     R16,0x06
7149	20382	  0013F2   LDI     R17,0x00
7150	20383	  0013F4   ST      -Y,R17
7151	20385	  0013F6   ST      -Y,R16
7152	20387	  0013F8   LDI     R17,0x00
7153	20388	  0013FA   LDI     R16,0x6C
7154	20389	  0013FC   JMP     ??qpQLuPnEUlJCOQbkVsgBFJkeFRkBB
		??qpQLuPnEUlJCOQbkVsgBFJkeFRkBB:
7155	20392	  000C24   ST      -Y,R18
7156	20394	  000C26   IN      R18,SREG
7157	20395	  000C28   ST      -Y,R18
7158	20397	  000C2A   CALL    avmp_handler
		avmp_handler:
7159	20401	  00047A   ST      -Y,R19
7160	20403	  00047C   POP     R19
7161	20405	  00047E   POP     R18
7162	20407	  000480   PUSH    R31
7163	20409	  000482   PUSH    R30
7164	20411	  000484   MOV     R31,R19
7165	20412	  000486   MOV     R30,R18
7166	20413	  000488   ADD     R30,R16
7167	20414	  00048A   ADC     R31,R17
7168	20415	  00048C   LSL     R30
7169	20416	  00048E   ROL     R31
7170	20417	  000490   LSL     R18
7171	20418	  000492   ROL     R19
7172	20419	  000494   LPM      R16,Z+
7173	20422	  000496   LPM      R17,Z
7174	20425	  000498   ADD     R18,R16
7175	20426	  00049A   ADC     R19,R17
7176	20427	  00049C   LSR     R19
7177	20428	  00049E   ROR     R18
7178	20429	  0004A0   POP     R30
7179	20431	  0004A2   POP     R31
7180	20433	  0004A4   PUSH    R18
7181	20435	  0004A6   PUSH    R19
7182	20437	  0004A8   LD      R19,Y+
7183	20439	  0004AA   LD      R18,Y+
7184	20441	  0004AC   OUT     SREG,R18
7185	20442	  0004AE   LD      R18,Y+
7186	20444	  0004B0   LD      R16,Y+
7187	20446	  0004B2   LD      R17,Y+
7188	20448	  0004B4   RET
		??BOlXFctlGqHtbngToQAiDGDTMlmVO:
7189	20452	  001400   ST      -Y,R17
7190	20454	  001402   ST      -Y,R16
7191	20456	  001404   ST      -Y,R17
7192	20458	  001406   ST      -Y,R16
7193	20460	  001408   LDI     R17,0x00
7194	20461	  00140A   LDI     R16,0x6D
7195	20462	  00140C   JMP     ??qpQLuPnEUlJCOQbkVsgBFJkeFRkBB
		??qpQLuPnEUlJCOQbkVsgBFJkeFRkBB:
7196	20465	  000C24   ST      -Y,R18
7197	20467	  000C26   IN      R18,SREG
7198	20468	  000C28   ST      -Y,R18
7199	20470	  000C2A   CALL    avmp_handler
		avmp_handler:
7200	20474	  00047A   ST      -Y,R19
7201	20476	  00047C   POP     R19
7202	20478	  00047E   POP     R18
7203	20480	  000480   PUSH    R31
7204	20482	  000482   PUSH    R30
7205	20484	  000484   MOV     R31,R19
7206	20485	  000486   MOV     R30,R18
7207	20486	  000488   ADD     R30,R16
7208	20487	  00048A   ADC     R31,R17
7209	20488	  00048C   LSL     R30
7210	20489	  00048E   ROL     R31
7211	20490	  000490   LSL     R18
7212	20491	  000492   ROL     R19
7213	20492	  000494   LPM      R16,Z+
7214	20495	  000496   LPM      R17,Z
7215	20498	  000498   ADD     R18,R16
7216	20499	  00049A   ADC     R19,R17
7217	20500	  00049C   LSR     R19
7218	20501	  00049E   ROR     R18
7219	20502	  0004A0   POP     R30
7220	20504	  0004A2   POP     R31
7221	20506	  0004A4   PUSH    R18
7222	20508	  0004A6   PUSH    R19
7223	20510	  0004A8   LD      R19,Y+
7224	20512	  0004AA   LD      R18,Y+
7225	20514	  0004AC   OUT     SREG,R18
7226	20515	  0004AE   LD      R18,Y+
7227	20517	  0004B0   LD      R16,Y+
7228	20519	  0004B2   LD      R17,Y+
7229	20521	  0004B4   RET
		??dNPzjlJuaZfFNSQFntZjuHjjFVrcK:
7230	20525	  001410   LDI     R16,0x05
7231	20526	  001412   LDI     R17,0x00
7232	20527	  001414   ST      -Y,R17
7233	20529	  001416   ST      -Y,R16
7234	20531	  001418   LDI     R17,0x00
7235	20532	  00141A   LDI     R16,0x6E
7236	20533	  00141C   JMP     ??qpQLuPnEUlJCOQbkVsgBFJkeFRkBB
		??qpQLuPnEUlJCOQbkVsgBFJkeFRkBB:
7237	20536	  000C24   ST      -Y,R18
7238	20538	  000C26   IN      R18,SREG
7239	20539	  000C28   ST      -Y,R18
7240	20541	  000C2A   CALL    avmp_handler
		avmp_handler:
7241	20545	  00047A   ST      -Y,R19
7242	20547	  00047C   POP     R19
7243	20549	  00047E   POP     R18
7244	20551	  000480   PUSH    R31
7245	20553	  000482   PUSH    R30
7246	20555	  000484   MOV     R31,R19
7247	20556	  000486   MOV     R30,R18
7248	20557	  000488   ADD     R30,R16
7249	20558	  00048A   ADC     R31,R17
7250	20559	  00048C   LSL     R30
7251	20560	  00048E   ROL     R31
7252	20561	  000490   LSL     R18
7253	20562	  000492   ROL     R19
7254	20563	  000494   LPM      R16,Z+
7255	20566	  000496   LPM      R17,Z
7256	20569	  000498   ADD     R18,R16
7257	20570	  00049A   ADC     R19,R17
7258	20571	  00049C   LSR     R19
7259	20572	  00049E   ROR     R18
7260	20573	  0004A0   POP     R30
7261	20575	  0004A2   POP     R31
7262	20577	  0004A4   PUSH    R18
7263	20579	  0004A6   PUSH    R19
7264	20581	  0004A8   LD      R19,Y+
7265	20583	  0004AA   LD      R18,Y+
7266	20585	  0004AC   OUT     SREG,R18
7267	20586	  0004AE   LD      R18,Y+
7268	20588	  0004B0   LD      R16,Y+
7269	20590	  0004B2   LD      R17,Y+
7270	20592	  0004B4   RET
		??NuvkCezxroklwcWZVCVRJkCgDxZcC:
7271	20596	  001420   ST      -Y,R17
7272	20598	  001422   ST      -Y,R16
7273	20600	  001424   ST      -Y,R17
7274	20602	  001426   ST      -Y,R16
7275	20604	  001428   LDI     R17,0x00
7276	20605	  00142A   LDI     R16,0x6F
7277	20606	  00142C   JMP     ??qpQLuPnEUlJCOQbkVsgBFJkeFRkBB
		??qpQLuPnEUlJCOQbkVsgBFJkeFRkBB:
7278	20609	  000C24   ST      -Y,R18
7279	20611	  000C26   IN      R18,SREG
7280	20612	  000C28   ST      -Y,R18
7281	20614	  000C2A   CALL    avmp_handler
		avmp_handler:
7282	20618	  00047A   ST      -Y,R19
7283	20620	  00047C   POP     R19
7284	20622	  00047E   POP     R18
7285	20624	  000480   PUSH    R31
7286	20626	  000482   PUSH    R30
7287	20628	  000484   MOV     R31,R19
7288	20629	  000486   MOV     R30,R18
7289	20630	  000488   ADD     R30,R16
7290	20631	  00048A   ADC     R31,R17
7291	20632	  00048C   LSL     R30
7292	20633	  00048E   ROL     R31
7293	20634	  000490   LSL     R18
7294	20635	  000492   ROL     R19
7295	20636	  000494   LPM      R16,Z+
7296	20639	  000496   LPM      R17,Z
7297	20642	  000498   ADD     R18,R16
7298	20643	  00049A   ADC     R19,R17
7299	20644	  00049C   LSR     R19
7300	20645	  00049E   ROR     R18
7301	20646	  0004A0   POP     R30
7302	20648	  0004A2   POP     R31
7303	20650	  0004A4   PUSH    R18
7304	20652	  0004A6   PUSH    R19
7305	20654	  0004A8   LD      R19,Y+
7306	20656	  0004AA   LD      R18,Y+
7307	20658	  0004AC   OUT     SREG,R18
7308	20659	  0004AE   LD      R18,Y+
7309	20661	  0004B0   LD      R16,Y+
7310	20663	  0004B2   LD      R17,Y+
7311	20665	  0004B4   RET
		??dXdGRPzVIiHAyOmJdBaskoevRPvKn:
7312	20669	  001430   LDI     R22,0x04
7313	20670	  001432   LDI     R23,0x00
7314	20671	  001434   ST      -Y,R17
7315	20673	  001436   ST      -Y,R16
7316	20675	  001438   LDI     R17,0x00
7317	20676	  00143A   LDI     R16,0x70
7318	20677	  00143C   JMP     ??qpQLuPnEUlJCOQbkVsgBFJkeFRkBB
		??qpQLuPnEUlJCOQbkVsgBFJkeFRkBB:
7319	20680	  000C24   ST      -Y,R18
7320	20682	  000C26   IN      R18,SREG
7321	20683	  000C28   ST      -Y,R18
7322	20685	  000C2A   CALL    avmp_handler
		avmp_handler:
7323	20689	  00047A   ST      -Y,R19
7324	20691	  00047C   POP     R19
7325	20693	  00047E   POP     R18
7326	20695	  000480   PUSH    R31
7327	20697	  000482   PUSH    R30
7328	20699	  000484   MOV     R31,R19
7329	20700	  000486   MOV     R30,R18
7330	20701	  000488   ADD     R30,R16
7331	20702	  00048A   ADC     R31,R17
7332	20703	  00048C   LSL     R30
7333	20704	  00048E   ROL     R31
7334	20705	  000490   LSL     R18
7335	20706	  000492   ROL     R19
7336	20707	  000494   LPM      R16,Z+
7337	20710	  000496   LPM      R17,Z
7338	20713	  000498   ADD     R18,R16
7339	20714	  00049A   ADC     R19,R17
7340	20715	  00049C   LSR     R19
7341	20716	  00049E   ROR     R18
7342	20717	  0004A0   POP     R30
7343	20719	  0004A2   POP     R31
7344	20721	  0004A4   PUSH    R18
7345	20723	  0004A6   PUSH    R19
7346	20725	  0004A8   LD      R19,Y+
7347	20727	  0004AA   LD      R18,Y+
7348	20729	  0004AC   OUT     SREG,R18
7349	20730	  0004AE   LD      R18,Y+
7350	20732	  0004B0   LD      R16,Y+
7351	20734	  0004B2   LD      R17,Y+
7352	20736	  0004B4   RET
		??lDSdIuKKeTVDhjEHIsHFHHOGUVeYY:
7353	20740	  001440   LDI     R20,0x03
7354	20741	  001442   LDI     R21,0x00
7355	20742	  001444   ST      -Y,R17
7356	20744	  001446   ST      -Y,R16
7357	20746	  001448   LDI     R17,0x00
7358	20747	  00144A   LDI     R16,0x71
7359	20748	  00144C   JMP     ??qpQLuPnEUlJCOQbkVsgBFJkeFRkBB
		??qpQLuPnEUlJCOQbkVsgBFJkeFRkBB:
7360	20751	  000C24   ST      -Y,R18
7361	20753	  000C26   IN      R18,SREG
7362	20754	  000C28   ST      -Y,R18
7363	20756	  000C2A   CALL    avmp_handler
		avmp_handler:
7364	20760	  00047A   ST      -Y,R19
7365	20762	  00047C   POP     R19
7366	20764	  00047E   POP     R18
7367	20766	  000480   PUSH    R31
7368	20768	  000482   PUSH    R30
7369	20770	  000484   MOV     R31,R19
7370	20771	  000486   MOV     R30,R18
7371	20772	  000488   ADD     R30,R16
7372	20773	  00048A   ADC     R31,R17
7373	20774	  00048C   LSL     R30
7374	20775	  00048E   ROL     R31
7375	20776	  000490   LSL     R18
7376	20777	  000492   ROL     R19
7377	20778	  000494   LPM      R16,Z+
7378	20781	  000496   LPM      R17,Z
7379	20784	  000498   ADD     R18,R16
7380	20785	  00049A   ADC     R19,R17
7381	20786	  00049C   LSR     R19
7382	20787	  00049E   ROR     R18
7383	20788	  0004A0   POP     R30
7384	20790	  0004A2   POP     R31
7385	20792	  0004A4   PUSH    R18
7386	20794	  0004A6   PUSH    R19
7387	20796	  0004A8   LD      R19,Y+
7388	20798	  0004AA   LD      R18,Y+
7389	20800	  0004AC   OUT     SREG,R18
7390	20801	  0004AE   LD      R18,Y+
7391	20803	  0004B0   LD      R16,Y+
7392	20805	  0004B2   LD      R17,Y+
7393	20807	  0004B4   RET
		??mHkFktPBHvBIUzFuXXtXGybreysYF:
7394	20811	  001450   LDI     R18,0x02
7395	20812	  001452   LDI     R19,0x00
7396	20813	  001454   ST      -Y,R17
7397	20815	  001456   ST      -Y,R16
7398	20817	  001458   LDI     R17,0x00
7399	20818	  00145A   LDI     R16,0x72
7400	20819	  00145C   JMP     ??qpQLuPnEUlJCOQbkVsgBFJkeFRkBB
		??qpQLuPnEUlJCOQbkVsgBFJkeFRkBB:
7401	20822	  000C24   ST      -Y,R18
7402	20824	  000C26   IN      R18,SREG
7403	20825	  000C28   ST      -Y,R18
7404	20827	  000C2A   CALL    avmp_handler
		avmp_handler:
7405	20831	  00047A   ST      -Y,R19
7406	20833	  00047C   POP     R19
7407	20835	  00047E   POP     R18
7408	20837	  000480   PUSH    R31
7409	20839	  000482   PUSH    R30
7410	20841	  000484   MOV     R31,R19
7411	20842	  000486   MOV     R30,R18
7412	20843	  000488   ADD     R30,R16
7413	20844	  00048A   ADC     R31,R17
7414	20845	  00048C   LSL     R30
7415	20846	  00048E   ROL     R31
7416	20847	  000490   LSL     R18
7417	20848	  000492   ROL     R19
7418	20849	  000494   LPM      R16,Z+
7419	20852	  000496   LPM      R17,Z
7420	20855	  000498   ADD     R18,R16
7421	20856	  00049A   ADC     R19,R17
7422	20857	  00049C   LSR     R19
7423	20858	  00049E   ROR     R18
7424	20859	  0004A0   POP     R30
7425	20861	  0004A2   POP     R31
7426	20863	  0004A4   PUSH    R18
7427	20865	  0004A6   PUSH    R19
7428	20867	  0004A8   LD      R19,Y+
7429	20869	  0004AA   LD      R18,Y+
7430	20871	  0004AC   OUT     SREG,R18
7431	20872	  0004AE   LD      R18,Y+
7432	20874	  0004B0   LD      R16,Y+
7433	20876	  0004B2   LD      R17,Y+
7434	20878	  0004B4   RET
		??yxtbrHewVjgePuoDHwmuaIHRNDwJy:
7435	20882	  001460   LDI     R16,0x01
7436	20883	  001462   LDI     R17,0x00
7437	20884	  001464   ST      -Y,R17
7438	20886	  001466   ST      -Y,R16
7439	20888	  001468   LDI     R17,0x00
7440	20889	  00146A   LDI     R16,0x73
7441	20890	  00146C   JMP     ??qpQLuPnEUlJCOQbkVsgBFJkeFRkBB
		??qpQLuPnEUlJCOQbkVsgBFJkeFRkBB:
7442	20893	  000C24   ST      -Y,R18
7443	20895	  000C26   IN      R18,SREG
7444	20896	  000C28   ST      -Y,R18
7445	20898	  000C2A   CALL    avmp_handler
		avmp_handler:
7446	20902	  00047A   ST      -Y,R19
7447	20904	  00047C   POP     R19
7448	20906	  00047E   POP     R18
7449	20908	  000480   PUSH    R31
7450	20910	  000482   PUSH    R30
7451	20912	  000484   MOV     R31,R19
7452	20913	  000486   MOV     R30,R18
7453	20914	  000488   ADD     R30,R16
7454	20915	  00048A   ADC     R31,R17
7455	20916	  00048C   LSL     R30
7456	20917	  00048E   ROL     R31
7457	20918	  000490   LSL     R18
7458	20919	  000492   ROL     R19
7459	20920	  000494   LPM      R16,Z+
7460	20923	  000496   LPM      R17,Z
7461	20926	  000498   ADD     R18,R16
7462	20927	  00049A   ADC     R19,R17
7463	20928	  00049C   LSR     R19
7464	20929	  00049E   ROR     R18
7465	20930	  0004A0   POP     R30
7466	20932	  0004A2   POP     R31
7467	20934	  0004A4   PUSH    R18
7468	20936	  0004A6   PUSH    R19
7469	20938	  0004A8   LD      R19,Y+
7470	20940	  0004AA   LD      R18,Y+
7471	20942	  0004AC   OUT     SREG,R18
7472	20943	  0004AE   LD      R18,Y+
7473	20945	  0004B0   LD      R16,Y+
7474	20947	  0004B2   LD      R17,Y+
7475	20949	  0004B4   RET
		??nftuXIfZjhsVypdQXNxiudVYoSGkr:
7476	20953	  001470   CALL    TestParam10
		TestParam10:
7477	20957	  000AE6   ST      -Y,R17
7478	20959	  000AE8   ST      -Y,R16
7479	20961	  000AEA   LDI     R17,0x00
7480	20962	  000AEC   LDI     R16,0x02
		??gKlMlphZaDZlHyAoajrQDTHOdbdxL:
7481	20963	  000AEE   ST      -Y,R18
7482	20965	  000AF0   IN      R18,SREG
7483	20966	  000AF2   ST      -Y,R18
7484	20968	  000AF4   CALL    avmp_handler
		avmp_handler:
7485	20972	  00047A   ST      -Y,R19
7486	20974	  00047C   POP     R19
7487	20976	  00047E   POP     R18
7488	20978	  000480   PUSH    R31
7489	20980	  000482   PUSH    R30
7490	20982	  000484   MOV     R31,R19
7491	20983	  000486   MOV     R30,R18
7492	20984	  000488   ADD     R30,R16
7493	20985	  00048A   ADC     R31,R17
7494	20986	  00048C   LSL     R30
7495	20987	  00048E   ROL     R31
7496	20988	  000490   LSL     R18
7497	20989	  000492   ROL     R19
7498	20990	  000494   LPM      R16,Z+
7499	20993	  000496   LPM      R17,Z
7500	20996	  000498   ADD     R18,R16
7501	20997	  00049A   ADC     R19,R17
7502	20998	  00049C   LSR     R19
7503	20999	  00049E   ROR     R18
7504	21000	  0004A0   POP     R30
7505	21002	  0004A2   POP     R31
7506	21004	  0004A4   PUSH    R18
7507	21006	  0004A6   PUSH    R19
7508	21008	  0004A8   LD      R19,Y+
7509	21010	  0004AA   LD      R18,Y+
7510	21012	  0004AC   OUT     SREG,R18
7511	21013	  0004AE   LD      R18,Y+
7512	21015	  0004B0   LD      R16,Y+
7513	21017	  0004B2   LD      R17,Y+
7514	21019	  0004B4   RET
		??mTXrXniwnpnwzyByLAmgRdtFuLdxh:
7515	21023	  000B2A   ADD     R16,R18
7516	21024	  000B2C   ADC     R17,R19
7517	21025	  000B2E   ST      -Y,R17
7518	21027	  000B30   ST      -Y,R16
7519	21029	  000B32   LDI     R17,0x00
7520	21030	  000B34   LDI     R16,0x03
7521	21031	  000B36   JMP     ??gKlMlphZaDZlHyAoajrQDTHOdbdxL
		??gKlMlphZaDZlHyAoajrQDTHOdbdxL:
7522	21034	  000AEE   ST      -Y,R18
7523	21036	  000AF0   IN      R18,SREG
7524	21037	  000AF2   ST      -Y,R18
7525	21039	  000AF4   CALL    avmp_handler
		avmp_handler:
7526	21043	  00047A   ST      -Y,R19
7527	21045	  00047C   POP     R19
7528	21047	  00047E   POP     R18
7529	21049	  000480   PUSH    R31
7530	21051	  000482   PUSH    R30
7531	21053	  000484   MOV     R31,R19
7532	21054	  000486   MOV     R30,R18
7533	21055	  000488   ADD     R30,R16
7534	21056	  00048A   ADC     R31,R17
7535	21057	  00048C   LSL     R30
7536	21058	  00048E   ROL     R31
7537	21059	  000490   LSL     R18
7538	21060	  000492   ROL     R19
7539	21061	  000494   LPM      R16,Z+
7540	21064	  000496   LPM      R17,Z
7541	21067	  000498   ADD     R18,R16
7542	21068	  00049A   ADC     R19,R17
7543	21069	  00049C   LSR     R19
7544	21070	  00049E   ROR     R18
7545	21071	  0004A0   POP     R30
7546	21073	  0004A2   POP     R31
7547	21075	  0004A4   PUSH    R18
7548	21077	  0004A6   PUSH    R19
7549	21079	  0004A8   LD      R19,Y+
7550	21081	  0004AA   LD      R18,Y+
7551	21083	  0004AC   OUT     SREG,R18
7552	21084	  0004AE   LD      R18,Y+
7553	21086	  0004B0   LD      R16,Y+
7554	21088	  0004B2   LD      R17,Y+
7555	21090	  0004B4   RET
		??QULIySheurkKaPNEFNFDtsFtrunel:
7556	21094	  000B3A   ADD     R16,R20
7557	21095	  000B3C   ADC     R17,R21
7558	21096	  000B3E   ST      -Y,R17
7559	21098	  000B40   ST      -Y,R16
7560	21100	  000B42   LDI     R17,0x00
7561	21101	  000B44   LDI     R16,0x04
7562	21102	  000B46   JMP     ??gKlMlphZaDZlHyAoajrQDTHOdbdxL
		??gKlMlphZaDZlHyAoajrQDTHOdbdxL:
7563	21105	  000AEE   ST      -Y,R18
7564	21107	  000AF0   IN      R18,SREG
7565	21108	  000AF2   ST      -Y,R18
7566	21110	  000AF4   CALL    avmp_handler
		avmp_handler:
7567	21114	  00047A   ST      -Y,R19
7568	21116	  00047C   POP     R19
7569	21118	  00047E   POP     R18
7570	21120	  000480   PUSH    R31
7571	21122	  000482   PUSH    R30
7572	21124	  000484   MOV     R31,R19
7573	21125	  000486   MOV     R30,R18
7574	21126	  000488   ADD     R30,R16
7575	21127	  00048A   ADC     R31,R17
7576	21128	  00048C   LSL     R30
7577	21129	  00048E   ROL     R31
7578	21130	  000490   LSL     R18
7579	21131	  000492   ROL     R19
7580	21132	  000494   LPM      R16,Z+
7581	21135	  000496   LPM      R17,Z
7582	21138	  000498   ADD     R18,R16
7583	21139	  00049A   ADC     R19,R17
7584	21140	  00049C   LSR     R19
7585	21141	  00049E   ROR     R18
7586	21142	  0004A0   POP     R30
7587	21144	  0004A2   POP     R31
7588	21146	  0004A4   PUSH    R18
7589	21148	  0004A6   PUSH    R19
7590	21150	  0004A8   LD      R19,Y+
7591	21152	  0004AA   LD      R18,Y+
7592	21154	  0004AC   OUT     SREG,R18
7593	21155	  0004AE   LD      R18,Y+
7594	21157	  0004B0   LD      R16,Y+
7595	21159	  0004B2   LD      R17,Y+
7596	21161	  0004B4   RET
		??fhEkeNzRGxPNhOOAiFzLEeQDABMdv:
7597	21165	  000B4A   ADD     R16,R22
7598	21166	  000B4C   ADC     R17,R23
7599	21167	  000B4E   ST      -Y,R17
7600	21169	  000B50   ST      -Y,R16
7601	21171	  000B52   LDI     R17,0x00
7602	21172	  000B54   LDI     R16,0x05
7603	21173	  000B56   JMP     ??gKlMlphZaDZlHyAoajrQDTHOdbdxL
		??gKlMlphZaDZlHyAoajrQDTHOdbdxL:
7604	21176	  000AEE   ST      -Y,R18
7605	21178	  000AF0   IN      R18,SREG
7606	21179	  000AF2   ST      -Y,R18
7607	21181	  000AF4   CALL    avmp_handler
		avmp_handler:
7608	21185	  00047A   ST      -Y,R19
7609	21187	  00047C   POP     R19
7610	21189	  00047E   POP     R18
7611	21191	  000480   PUSH    R31
7612	21193	  000482   PUSH    R30
7613	21195	  000484   MOV     R31,R19
7614	21196	  000486   MOV     R30,R18
7615	21197	  000488   ADD     R30,R16
7616	21198	  00048A   ADC     R31,R17
7617	21199	  00048C   LSL     R30
7618	21200	  00048E   ROL     R31
7619	21201	  000490   LSL     R18
7620	21202	  000492   ROL     R19
7621	21203	  000494   LPM      R16,Z+
7622	21206	  000496   LPM      R17,Z
7623	21209	  000498   ADD     R18,R16
7624	21210	  00049A   ADC     R19,R17
7625	21211	  00049C   LSR     R19
7626	21212	  00049E   ROR     R18
7627	21213	  0004A0   POP     R30
7628	21215	  0004A2   POP     R31
7629	21217	  0004A4   PUSH    R18
7630	21219	  0004A6   PUSH    R19
7631	21221	  0004A8   LD      R19,Y+
7632	21223	  0004AA   LD      R18,Y+
7633	21225	  0004AC   OUT     SREG,R18
7634	21226	  0004AE   LD      R18,Y+
7635	21228	  0004B0   LD      R16,Y+
7636	21230	  0004B2   LD      R17,Y+
7637	21232	  0004B4   RET
		??SqtMCSMiSutpYBStYofhwLNZlTnNs:
7638	21236	  000B5A   LD      R18,Y
7639	21238	  000B5C   LDD     R19,Y+1
7640	21240	  000B5E   ST      -Y,R17
7641	21242	  000B60   ST      -Y,R16
7642	21244	  000B62   LDI     R17,0x00
7643	21245	  000B64   LDI     R16,0x06
7644	21246	  000B66   JMP     ??gKlMlphZaDZlHyAoajrQDTHOdbdxL
		??gKlMlphZaDZlHyAoajrQDTHOdbdxL:
7645	21249	  000AEE   ST      -Y,R18
7646	21251	  000AF0   IN      R18,SREG
7647	21252	  000AF2   ST      -Y,R18
7648	21254	  000AF4   CALL    avmp_handler
		avmp_handler:
7649	21258	  00047A   ST      -Y,R19
7650	21260	  00047C   POP     R19
7651	21262	  00047E   POP     R18
7652	21264	  000480   PUSH    R31
7653	21266	  000482   PUSH    R30
7654	21268	  000484   MOV     R31,R19
7655	21269	  000486   MOV     R30,R18
7656	21270	  000488   ADD     R30,R16
7657	21271	  00048A   ADC     R31,R17
7658	21272	  00048C   LSL     R30
7659	21273	  00048E   ROL     R31
7660	21274	  000490   LSL     R18
7661	21275	  000492   ROL     R19
7662	21276	  000494   LPM      R16,Z+
7663	21279	  000496   LPM      R17,Z
7664	21282	  000498   ADD     R18,R16
7665	21283	  00049A   ADC     R19,R17
7666	21284	  00049C   LSR     R19
7667	21285	  00049E   ROR     R18
7668	21286	  0004A0   POP     R30
7669	21288	  0004A2   POP     R31
7670	21290	  0004A4   PUSH    R18
7671	21292	  0004A6   PUSH    R19
7672	21294	  0004A8   LD      R19,Y+
7673	21296	  0004AA   LD      R18,Y+
7674	21298	  0004AC   OUT     SREG,R18
7675	21299	  0004AE   LD      R18,Y+
7676	21301	  0004B0   LD      R16,Y+
7677	21303	  0004B2   LD      R17,Y+
7678	21305	  0004B4   RET
		??NZTeeLWXuLYnkYgfqudokIYVWAZGC:
7679	21309	  000B6A   ADD     R16,R18
7680	21310	  000B6C   ADC     R17,R19
7681	21311	  000B6E   ST      -Y,R17
7682	21313	  000B70   ST      -Y,R16
7683	21315	  000B72   LDI     R17,0x00
7684	21316	  000B74   LDI     R16,0x07
7685	21317	  000B76   JMP     ??gKlMlphZaDZlHyAoajrQDTHOdbdxL
		??gKlMlphZaDZlHyAoajrQDTHOdbdxL:
7686	21320	  000AEE   ST      -Y,R18
7687	21322	  000AF0   IN      R18,SREG
7688	21323	  000AF2   ST      -Y,R18
7689	21325	  000AF4   CALL    avmp_handler
		avmp_handler:
7690	21329	  00047A   ST      -Y,R19
7691	21331	  00047C   POP     R19
7692	21333	  00047E   POP     R18
7693	21335	  000480   PUSH    R31
7694	21337	  000482   PUSH    R30
7695	21339	  000484   MOV     R31,R19
7696	21340	  000486   MOV     R30,R18
7697	21341	  000488   ADD     R30,R16
7698	21342	  00048A   ADC     R31,R17
7699	21343	  00048C   LSL     R30
7700	21344	  00048E   ROL     R31
7701	21345	  000490   LSL     R18
7702	21346	  000492   ROL     R19
7703	21347	  000494   LPM      R16,Z+
7704	21350	  000496   LPM      R17,Z
7705	21353	  000498   ADD     R18,R16
7706	21354	  00049A   ADC     R19,R17
7707	21355	  00049C   LSR     R19
7708	21356	  00049E   ROR     R18
7709	21357	  0004A0   POP     R30
7710	21359	  0004A2   POP     R31
7711	21361	  0004A4   PUSH    R18
7712	21363	  0004A6   PUSH    R19
7713	21365	  0004A8   LD      R19,Y+
7714	21367	  0004AA   LD      R18,Y+
7715	21369	  0004AC   OUT     SREG,R18
7716	21370	  0004AE   LD      R18,Y+
7717	21372	  0004B0   LD      R16,Y+
7718	21374	  0004B2   LD      R17,Y+
7719	21376	  0004B4   RET
		??MsMlinXaaiOaDxhrNINghAtqPVAsH:
7720	21380	  000B7A   LDD     R18,Y+2
7721	21382	  000B7C   LDD     R19,Y+3
7722	21384	  000B7E   ST      -Y,R17
7723	21386	  000B80   ST      -Y,R16
7724	21388	  000B82   LDI     R17,0x00
7725	21389	  000B84   LDI     R16,0x08
7726	21390	  000B86   JMP     ??gKlMlphZaDZlHyAoajrQDTHOdbdxL
		??gKlMlphZaDZlHyAoajrQDTHOdbdxL:
7727	21393	  000AEE   ST      -Y,R18
7728	21395	  000AF0   IN      R18,SREG
7729	21396	  000AF2   ST      -Y,R18
7730	21398	  000AF4   CALL    avmp_handler
		avmp_handler:
7731	21402	  00047A   ST      -Y,R19
7732	21404	  00047C   POP     R19
7733	21406	  00047E   POP     R18
7734	21408	  000480   PUSH    R31
7735	21410	  000482   PUSH    R30
7736	21412	  000484   MOV     R31,R19
7737	21413	  000486   MOV     R30,R18
7738	21414	  000488   ADD     R30,R16
7739	21415	  00048A   ADC     R31,R17
7740	21416	  00048C   LSL     R30
7741	21417	  00048E   ROL     R31
7742	21418	  000490   LSL     R18
7743	21419	  000492   ROL     R19
7744	21420	  000494   LPM      R16,Z+
7745	21423	  000496   LPM      R17,Z
7746	21426	  000498   ADD     R18,R16
7747	21427	  00049A   ADC     R19,R17
7748	21428	  00049C   LSR     R19
7749	21429	  00049E   ROR     R18
7750	21430	  0004A0   POP     R30
7751	21432	  0004A2   POP     R31
7752	21434	  0004A4   PUSH    R18
7753	21436	  0004A6   PUSH    R19
7754	21438	  0004A8   LD      R19,Y+
7755	21440	  0004AA   LD      R18,Y+
7756	21442	  0004AC   OUT     SREG,R18
7757	21443	  0004AE   LD      R18,Y+
7758	21445	  0004B0   LD      R16,Y+
7759	21447	  0004B2   LD      R17,Y+
7760	21449	  0004B4   RET
		??ASHNibSmjhLHYOcQctHatzthxwKwi:
7761	21453	  000B8A   ADD     R16,R18
7762	21454	  000B8C   ADC     R17,R19
7763	21455	  000B8E   ST      -Y,R17
7764	21457	  000B90   ST      -Y,R16
7765	21459	  000B92   LDI     R17,0x00
7766	21460	  000B94   LDI     R16,0x09
7767	21461	  000B96   JMP     ??gKlMlphZaDZlHyAoajrQDTHOdbdxL
		??gKlMlphZaDZlHyAoajrQDTHOdbdxL:
7768	21464	  000AEE   ST      -Y,R18
7769	21466	  000AF0   IN      R18,SREG
7770	21467	  000AF2   ST      -Y,R18
7771	21469	  000AF4   CALL    avmp_handler
		avmp_handler:
7772	21473	  00047A   ST      -Y,R19
7773	21475	  00047C   POP     R19
7774	21477	  00047E   POP     R18
7775	21479	  000480   PUSH    R31
7776	21481	  000482   PUSH    R30
7777	21483	  000484   MOV     R31,R19
7778	21484	  000486   MOV     R30,R18
7779	21485	  000488   ADD     R30,R16
7780	21486	  00048A   ADC     R31,R17
7781	21487	  00048C   LSL     R30
7782	21488	  00048E   ROL     R31
7783	21489	  000490   LSL     R18
7784	21490	  000492   ROL     R19
7785	21491	  000494   LPM      R16,Z+
7786	21494	  000496   LPM      R17,Z
7787	21497	  000498   ADD     R18,R16
7788	21498	  00049A   ADC     R19,R17
7789	21499	  00049C   LSR     R19
7790	21500	  00049E   ROR     R18
7791	21501	  0004A0   POP     R30
7792	21503	  0004A2   POP     R31
7793	21505	  0004A4   PUSH    R18
7794	21507	  0004A6   PUSH    R19
7795	21509	  0004A8   LD      R19,Y+
7796	21511	  0004AA   LD      R18,Y+
7797	21513	  0004AC   OUT     SREG,R18
7798	21514	  0004AE   LD      R18,Y+
7799	21516	  0004B0   LD      R16,Y+
7800	21518	  0004B2   LD      R17,Y+
7801	21520	  0004B4   RET
		??IrsKDFrfQEVAgidSndoEatStbLqdE:
7802	21524	  000B9A   LDD     R18,Y+4
7803	21526	  000B9C   LDD     R19,Y+5
7804	21528	  000B9E   ST      -Y,R17
7805	21530	  000BA0   ST      -Y,R16
7806	21532	  000BA2   LDI     R17,0x00
7807	21533	  000BA4   LDI     R16,0x0A
7808	21534	  000BA6   JMP     ??gKlMlphZaDZlHyAoajrQDTHOdbdxL
		??gKlMlphZaDZlHyAoajrQDTHOdbdxL:
7809	21537	  000AEE   ST      -Y,R18
7810	21539	  000AF0   IN      R18,SREG
7811	21540	  000AF2   ST      -Y,R18
7812	21542	  000AF4   CALL    avmp_handler
		avmp_handler:
7813	21546	  00047A   ST      -Y,R19
7814	21548	  00047C   POP     R19
7815	21550	  00047E   POP     R18
7816	21552	  000480   PUSH    R31
7817	21554	  000482   PUSH    R30
7818	21556	  000484   MOV     R31,R19
7819	21557	  000486   MOV     R30,R18
7820	21558	  000488   ADD     R30,R16
7821	21559	  00048A   ADC     R31,R17
7822	21560	  00048C   LSL     R30
7823	21561	  00048E   ROL     R31
7824	21562	  000490   LSL     R18
7825	21563	  000492   ROL     R19
7826	21564	  000494   LPM      R16,Z+
7827	21567	  000496   LPM      R17,Z
7828	21570	  000498   ADD     R18,R16
7829	21571	  00049A   ADC     R19,R17
7830	21572	  00049C   LSR     R19
7831	21573	  00049E   ROR     R18
7832	21574	  0004A0   POP     R30
7833	21576	  0004A2   POP     R31
7834	21578	  0004A4   PUSH    R18
7835	21580	  0004A6   PUSH    R19
7836	21582	  0004A8   LD      R19,Y+
7837	21584	  0004AA   LD      R18,Y+
7838	21586	  0004AC   OUT     SREG,R18
7839	21587	  0004AE   LD      R18,Y+
7840	21589	  0004B0   LD      R16,Y+
7841	21591	  0004B2   LD      R17,Y+
7842	21593	  0004B4   RET
		??kEDZUbqSdZyLUBAJikfsznmlhSATD:
7843	21597	  000BAA   ADD     R16,R18
7844	21598	  000BAC   ADC     R17,R19
7845	21599	  000BAE   ST      -Y,R17
7846	21601	  000BB0   ST      -Y,R16
7847	21603	  000BB2   LDI     R17,0x00
7848	21604	  000BB4   LDI     R16,0x0B
7849	21605	  000BB6   JMP     ??gKlMlphZaDZlHyAoajrQDTHOdbdxL
		??gKlMlphZaDZlHyAoajrQDTHOdbdxL:
7850	21608	  000AEE   ST      -Y,R18
7851	21610	  000AF0   IN      R18,SREG
7852	21611	  000AF2   ST      -Y,R18
7853	21613	  000AF4   CALL    avmp_handler
		avmp_handler:
7854	21617	  00047A   ST      -Y,R19
7855	21619	  00047C   POP     R19
7856	21621	  00047E   POP     R18
7857	21623	  000480   PUSH    R31
7858	21625	  000482   PUSH    R30
7859	21627	  000484   MOV     R31,R19
7860	21628	  000486   MOV     R30,R18
7861	21629	  000488   ADD     R30,R16
7862	21630	  00048A   ADC     R31,R17
7863	21631	  00048C   LSL     R30
7864	21632	  00048E   ROL     R31
7865	21633	  000490   LSL     R18
7866	21634	  000492   ROL     R19
7867	21635	  000494   LPM      R16,Z+
7868	21638	  000496   LPM      R17,Z
7869	21641	  000498   ADD     R18,R16
7870	21642	  00049A   ADC     R19,R17
7871	21643	  00049C   LSR     R19
7872	21644	  00049E   ROR     R18
7873	21645	  0004A0   POP     R30
7874	21647	  0004A2   POP     R31
7875	21649	  0004A4   PUSH    R18
7876	21651	  0004A6   PUSH    R19
7877	21653	  0004A8   LD      R19,Y+
7878	21655	  0004AA   LD      R18,Y+
7879	21657	  0004AC   OUT     SREG,R18
7880	21658	  0004AE   LD      R18,Y+
7881	21660	  0004B0   LD      R16,Y+
7882	21662	  0004B2   LD      R17,Y+
7883	21664	  0004B4   RET
		??FodpyEIOjSBPdoFxpzBqFUhMQnNuG:
7884	21668	  000BBA   LDD     R18,Y+6
7885	21670	  000BBC   LDD     R19,Y+7
7886	21672	  000BBE   ST      -Y,R17
7887	21674	  000BC0   ST      -Y,R16
7888	21676	  000BC2   LDI     R17,0x00
7889	21677	  000BC4   LDI     R16,0x0C
7890	21678	  000BC6   JMP     ??gKlMlphZaDZlHyAoajrQDTHOdbdxL
		??gKlMlphZaDZlHyAoajrQDTHOdbdxL:
7891	21681	  000AEE   ST      -Y,R18
7892	21683	  000AF0   IN      R18,SREG
7893	21684	  000AF2   ST      -Y,R18
7894	21686	  000AF4   CALL    avmp_handler
		avmp_handler:
7895	21690	  00047A   ST      -Y,R19
7896	21692	  00047C   POP     R19
7897	21694	  00047E   POP     R18
7898	21696	  000480   PUSH    R31
7899	21698	  000482   PUSH    R30
7900	21700	  000484   MOV     R31,R19
7901	21701	  000486   MOV     R30,R18
7902	21702	  000488   ADD     R30,R16
7903	21703	  00048A   ADC     R31,R17
7904	21704	  00048C   LSL     R30
7905	21705	  00048E   ROL     R31
7906	21706	  000490   LSL     R18
7907	21707	  000492   ROL     R19
7908	21708	  000494   LPM      R16,Z+
7909	21711	  000496   LPM      R17,Z
7910	21714	  000498   ADD     R18,R16
7911	21715	  00049A   ADC     R19,R17
7912	21716	  00049C   LSR     R19
7913	21717	  00049E   ROR     R18
7914	21718	  0004A0   POP     R30
7915	21720	  0004A2   POP     R31
7916	21722	  0004A4   PUSH    R18
7917	21724	  0004A6   PUSH    R19
7918	21726	  0004A8   LD      R19,Y+
7919	21728	  0004AA   LD      R18,Y+
7920	21730	  0004AC   OUT     SREG,R18
7921	21731	  0004AE   LD      R18,Y+
7922	21733	  0004B0   LD      R16,Y+
7923	21735	  0004B2   LD      R17,Y+
7924	21737	  0004B4   RET
		??JrBKHwEnoaisyhRnZsgEWABXXAcft:
7925	21741	  000BCA   ADD     R16,R18
7926	21742	  000BCC   ADC     R17,R19
7927	21743	  000BCE   ST      -Y,R17
7928	21745	  000BD0   ST      -Y,R16
7929	21747	  000BD2   LDI     R17,0x00
7930	21748	  000BD4   LDI     R16,0x0D
7931	21749	  000BD6   JMP     ??gKlMlphZaDZlHyAoajrQDTHOdbdxL
		??gKlMlphZaDZlHyAoajrQDTHOdbdxL:
7932	21752	  000AEE   ST      -Y,R18
7933	21754	  000AF0   IN      R18,SREG
7934	21755	  000AF2   ST      -Y,R18
7935	21757	  000AF4   CALL    avmp_handler
		avmp_handler:
7936	21761	  00047A   ST      -Y,R19
7937	21763	  00047C   POP     R19
7938	21765	  00047E   POP     R18
7939	21767	  000480   PUSH    R31
7940	21769	  000482   PUSH    R30
7941	21771	  000484   MOV     R31,R19
7942	21772	  000486   MOV     R30,R18
7943	21773	  000488   ADD     R30,R16
7944	21774	  00048A   ADC     R31,R17
7945	21775	  00048C   LSL     R30
7946	21776	  00048E   ROL     R31
7947	21777	  000490   LSL     R18
7948	21778	  000492   ROL     R19
7949	21779	  000494   LPM      R16,Z+
7950	21782	  000496   LPM      R17,Z
7951	21785	  000498   ADD     R18,R16
7952	21786	  00049A   ADC     R19,R17
7953	21787	  00049C   LSR     R19
7954	21788	  00049E   ROR     R18
7955	21789	  0004A0   POP     R30
7956	21791	  0004A2   POP     R31
7957	21793	  0004A4   PUSH    R18
7958	21795	  0004A6   PUSH    R19
7959	21797	  0004A8   LD      R19,Y+
7960	21799	  0004AA   LD      R18,Y+
7961	21801	  0004AC   OUT     SREG,R18
7962	21802	  0004AE   LD      R18,Y+
7963	21804	  0004B0   LD      R16,Y+
7964	21806	  0004B2   LD      R17,Y+
7965	21808	  0004B4   RET
		??mpDMdUGxiduvUunmNlicwEMUmUpBs:
7966	21812	  000BDA   LDD     R18,Y+8
7967	21814	  000BDC   LDD     R19,Y+9
7968	21816	  000BDE   ST      -Y,R17
7969	21818	  000BE0   ST      -Y,R16
7970	21820	  000BE2   LDI     R17,0x00
7971	21821	  000BE4   LDI     R16,0x0E
7972	21822	  000BE6   JMP     ??gKlMlphZaDZlHyAoajrQDTHOdbdxL
		??gKlMlphZaDZlHyAoajrQDTHOdbdxL:
7973	21825	  000AEE   ST      -Y,R18
7974	21827	  000AF0   IN      R18,SREG
7975	21828	  000AF2   ST      -Y,R18
7976	21830	  000AF4   CALL    avmp_handler
		avmp_handler:
7977	21834	  00047A   ST      -Y,R19
7978	21836	  00047C   POP     R19
7979	21838	  00047E   POP     R18
7980	21840	  000480   PUSH    R31
7981	21842	  000482   PUSH    R30
7982	21844	  000484   MOV     R31,R19
7983	21845	  000486   MOV     R30,R18
7984	21846	  000488   ADD     R30,R16
7985	21847	  00048A   ADC     R31,R17
7986	21848	  00048C   LSL     R30
7987	21849	  00048E   ROL     R31
7988	21850	  000490   LSL     R18
7989	21851	  000492   ROL     R19
7990	21852	  000494   LPM      R16,Z+
7991	21855	  000496   LPM      R17,Z
7992	21858	  000498   ADD     R18,R16
7993	21859	  00049A   ADC     R19,R17
7994	21860	  00049C   LSR     R19
7995	21861	  00049E   ROR     R18
7996	21862	  0004A0   POP     R30
7997	21864	  0004A2   POP     R31
7998	21866	  0004A4   PUSH    R18
7999	21868	  0004A6   PUSH    R19
8000	21870	  0004A8   LD      R19,Y+
8001	21872	  0004AA   LD      R18,Y+
8002	21874	  0004AC   OUT     SREG,R18
8003	21875	  0004AE   LD      R18,Y+
8004	21877	  0004B0   LD      R16,Y+
8005	21879	  0004B2   LD      R17,Y+
8006	21881	  0004B4   RET
		??fecIfPTNxDvDhXjOdCmpmGFyNHkYc:
8007	21885	  000BEA   ADD     R16,R18
8008	21886	  000BEC   ADC     R17,R19
8009	21887	  000BEE   ST      -Y,R17
8010	21889	  000BF0   ST      -Y,R16
8011	21891	  000BF2   LDI     R17,0x00
8012	21892	  000BF4   LDI     R16,0x0F
8013	21893	  000BF6   JMP     ??gKlMlphZaDZlHyAoajrQDTHOdbdxL
		??gKlMlphZaDZlHyAoajrQDTHOdbdxL:
8014	21896	  000AEE   ST      -Y,R18
8015	21898	  000AF0   IN      R18,SREG
8016	21899	  000AF2   ST      -Y,R18
8017	21901	  000AF4   CALL    avmp_handler
		avmp_handler:
8018	21905	  00047A   ST      -Y,R19
8019	21907	  00047C   POP     R19
8020	21909	  00047E   POP     R18
8021	21911	  000480   PUSH    R31
8022	21913	  000482   PUSH    R30
8023	21915	  000484   MOV     R31,R19
8024	21916	  000486   MOV     R30,R18
8025	21917	  000488   ADD     R30,R16
8026	21918	  00048A   ADC     R31,R17
8027	21919	  00048C   LSL     R30
8028	21920	  00048E   ROL     R31
8029	21921	  000490   LSL     R18
8030	21922	  000492   ROL     R19
8031	21923	  000494   LPM      R16,Z+
8032	21926	  000496   LPM      R17,Z
8033	21929	  000498   ADD     R18,R16
8034	21930	  00049A   ADC     R19,R17
8035	21931	  00049C   LSR     R19
8036	21932	  00049E   ROR     R18
8037	21933	  0004A0   POP     R30
8038	21935	  0004A2   POP     R31
8039	21937	  0004A4   PUSH    R18
8040	21939	  0004A6   PUSH    R19
8041	21941	  0004A8   LD      R19,Y+
8042	21943	  0004AA   LD      R18,Y+
8043	21945	  0004AC   OUT     SREG,R18
8044	21946	  0004AE   LD      R18,Y+
8045	21948	  0004B0   LD      R16,Y+
8046	21950	  0004B2   LD      R17,Y+
8047	21952	  0004B4   RET
		??NvCZdNhyThnAbiaUGhULNgMRsuRYY:
8048	21956	  000BFA   LDD     R18,Y+10
8049	21958	  000BFC   LDD     R19,Y+11
8050	21960	  000BFE   ST      -Y,R17
8051	21962	  000C00   ST      -Y,R16
8052	21964	  000C02   LDI     R17,0x00
8053	21965	  000C04   LDI     R16,0x10
8054	21966	  000C06   JMP     ??gKlMlphZaDZlHyAoajrQDTHOdbdxL
		??gKlMlphZaDZlHyAoajrQDTHOdbdxL:
8055	21969	  000AEE   ST      -Y,R18
8056	21971	  000AF0   IN      R18,SREG
8057	21972	  000AF2   ST      -Y,R18
8058	21974	  000AF4   CALL    avmp_handler
		avmp_handler:
8059	21978	  00047A   ST      -Y,R19
8060	21980	  00047C   POP     R19
8061	21982	  00047E   POP     R18
8062	21984	  000480   PUSH    R31
8063	21986	  000482   PUSH    R30
8064	21988	  000484   MOV     R31,R19
8065	21989	  000486   MOV     R30,R18
8066	21990	  000488   ADD     R30,R16
8067	21991	  00048A   ADC     R31,R17
8068	21992	  00048C   LSL     R30
8069	21993	  00048E   ROL     R31
8070	21994	  000490   LSL     R18
8071	21995	  000492   ROL     R19
8072	21996	  000494   LPM      R16,Z+
8073	21999	  000496   LPM      R17,Z
8074	22002	  000498   ADD     R18,R16
8075	22003	  00049A   ADC     R19,R17
8076	22004	  00049C   LSR     R19
8077	22005	  00049E   ROR     R18
8078	22006	  0004A0   POP     R30
8079	22008	  0004A2   POP     R31
8080	22010	  0004A4   PUSH    R18
8081	22012	  0004A6   PUSH    R19
8082	22014	  0004A8   LD      R19,Y+
8083	22016	  0004AA   LD      R18,Y+
8084	22018	  0004AC   OUT     SREG,R18
8085	22019	  0004AE   LD      R18,Y+
8086	22021	  0004B0   LD      R16,Y+
8087	22023	  0004B2   LD      R17,Y+
8088	22025	  0004B4   RET
		??qbXHAGmQGGZaBJTHSkpmXFSdIzNaU:
8089	22029	  000C0A   ADD     R16,R18
8090	22030	  000C0C   ADC     R17,R19
8091	22031	  000C0E   ST      -Y,R17
8092	22033	  000C10   ST      -Y,R16
8093	22035	  000C12   LDI     R17,0x00
8094	22036	  000C14   LDI     R16,0x01
8095	22037	  000C16   JMP     ??gKlMlphZaDZlHyAoajrQDTHOdbdxL
		??gKlMlphZaDZlHyAoajrQDTHOdbdxL:
8096	22040	  000AEE   ST      -Y,R18
8097	22042	  000AF0   IN      R18,SREG
8098	22043	  000AF2   ST      -Y,R18
8099	22045	  000AF4   CALL    avmp_handler
		avmp_handler:
8100	22049	  00047A   ST      -Y,R19
8101	22051	  00047C   POP     R19
8102	22053	  00047E   POP     R18
8103	22055	  000480   PUSH    R31
8104	22057	  000482   PUSH    R30
8105	22059	  000484   MOV     R31,R19
8106	22060	  000486   MOV     R30,R18
8107	22061	  000488   ADD     R30,R16
8108	22062	  00048A   ADC     R31,R17
8109	22063	  00048C   LSL     R30
8110	22064	  00048E   ROL     R31
8111	22065	  000490   LSL     R18
8112	22066	  000492   ROL     R19
8113	22067	  000494   LPM      R16,Z+
8114	22070	  000496   LPM      R17,Z
8115	22073	  000498   ADD     R18,R16
8116	22074	  00049A   ADC     R19,R17
8117	22075	  00049C   LSR     R19
8118	22076	  00049E   ROR     R18
8119	22077	  0004A0   POP     R30
8120	22079	  0004A2   POP     R31
8121	22081	  0004A4   PUSH    R18
8122	22083	  0004A6   PUSH    R19
8123	22085	  0004A8   LD      R19,Y+
8124	22087	  0004AA   LD      R18,Y+
8125	22089	  0004AC   OUT     SREG,R18
8126	22090	  0004AE   LD      R18,Y+
8127	22092	  0004B0   LD      R16,Y+
8128	22094	  0004B2   LD      R17,Y+
8129	22096	  0004B4   RET
		??QoVeoDoQMNkjUNQVWfFWKRLaevxJQ:
8130	22100	  000B1C   ADIW    R28,12
8131	22102	  000B1E   ST      -Y,R17
8132	22104	  000B20   ST      -Y,R16
8133	22106	  000B22   LDI     R17,0x00
8134	22107	  000B24   LDI     R16,0x11
8135	22108	  000B26   JMP     ??gKlMlphZaDZlHyAoajrQDTHOdbdxL
		??gKlMlphZaDZlHyAoajrQDTHOdbdxL:
8136	22111	  000AEE   ST      -Y,R18
8137	22113	  000AF0   IN      R18,SREG
8138	22114	  000AF2   ST      -Y,R18
8139	22116	  000AF4   CALL    avmp_handler
		avmp_handler:
8140	22120	  00047A   ST      -Y,R19
8141	22122	  00047C   POP     R19
8142	22124	  00047E   POP     R18
8143	22126	  000480   PUSH    R31
8144	22128	  000482   PUSH    R30
8145	22130	  000484   MOV     R31,R19
8146	22131	  000486   MOV     R30,R18
8147	22132	  000488   ADD     R30,R16
8148	22133	  00048A   ADC     R31,R17
8149	22134	  00048C   LSL     R30
8150	22135	  00048E   ROL     R31
8151	22136	  000490   LSL     R18
8152	22137	  000492   ROL     R19
8153	22138	  000494   LPM      R16,Z+
8154	22141	  000496   LPM      R17,Z
8155	22144	  000498   ADD     R18,R16
8156	22145	  00049A   ADC     R19,R17
8157	22146	  00049C   LSR     R19
8158	22147	  00049E   ROR     R18
8159	22148	  0004A0   POP     R30
8160	22150	  0004A2   POP     R31
8161	22152	  0004A4   PUSH    R18
8162	22154	  0004A6   PUSH    R19
8163	22156	  0004A8   LD      R19,Y+
8164	22158	  0004AA   LD      R18,Y+
8165	22160	  0004AC   OUT     SREG,R18
8166	22161	  0004AE   LD      R18,Y+
8167	22163	  0004B0   LD      R16,Y+
8168	22165	  0004B2   LD      R17,Y+
8169	22167	  0004B4   RET
		??gOLGTbyfVyOOgbirbunnmmubQgTNk:
8170	22171	  000C1A   RET
8171	22175	  001474   LD      R18,Y
8172	22177	  001476   ST      -Y,R17
8173	22179	  001478   ST      -Y,R16
8174	22181	  00147A   LDI     R17,0x00
8175	22182	  00147C   LDI     R16,0x74
8176	22183	  00147E   JMP     ??qpQLuPnEUlJCOQbkVsgBFJkeFRkBB
		??qpQLuPnEUlJCOQbkVsgBFJkeFRkBB:
8177	22186	  000C24   ST      -Y,R18
8178	22188	  000C26   IN      R18,SREG
8179	22189	  000C28   ST      -Y,R18
8180	22191	  000C2A   CALL    avmp_handler
		avmp_handler:
8181	22195	  00047A   ST      -Y,R19
8182	22197	  00047C   POP     R19
8183	22199	  00047E   POP     R18
8184	22201	  000480   PUSH    R31
8185	22203	  000482   PUSH    R30
8186	22205	  000484   MOV     R31,R19
8187	22206	  000486   MOV     R30,R18
8188	22207	  000488   ADD     R30,R16
8189	22208	  00048A   ADC     R31,R17
8190	22209	  00048C   LSL     R30
8191	22210	  00048E   ROL     R31
8192	22211	  000490   LSL     R18
8193	22212	  000492   ROL     R19
8194	22213	  000494   LPM      R16,Z+
8195	22216	  000496   LPM      R17,Z
8196	22219	  000498   ADD     R18,R16
8197	22220	  00049A   ADC     R19,R17
8198	22221	  00049C   LSR     R19
8199	22222	  00049E   ROR     R18
8200	22223	  0004A0   POP     R30
8201	22225	  0004A2   POP     R31
8202	22227	  0004A4   PUSH    R18
8203	22229	  0004A6   PUSH    R19
8204	22231	  0004A8   LD      R19,Y+
8205	22233	  0004AA   LD      R18,Y+
8206	22235	  0004AC   OUT     SREG,R18
8207	22236	  0004AE   LD      R18,Y+
8208	22238	  0004B0   LD      R16,Y+
8209	22240	  0004B2   LD      R17,Y+
8210	22242	  0004B4   RET
		??RcCjfsbYxvLxSjgPMVSgqNddgxykB:
8211	22246	  001482   LDD     R19,Y+1
8212	22248	  001484   ADD     R18,R16
8213	22249	  001486   ST      -Y,R17
8214	22251	  001488   ST      -Y,R16
8215	22253	  00148A   LDI     R17,0x00
8216	22254	  00148C   LDI     R16,0x75
8217	22255	  00148E   JMP     ??qpQLuPnEUlJCOQbkVsgBFJkeFRkBB
		??qpQLuPnEUlJCOQbkVsgBFJkeFRkBB:
8218	22258	  000C24   ST      -Y,R18
8219	22260	  000C26   IN      R18,SREG
8220	22261	  000C28   ST      -Y,R18
8221	22263	  000C2A   CALL    avmp_handler
		avmp_handler:
8222	22267	  00047A   ST      -Y,R19
8223	22269	  00047C   POP     R19
8224	22271	  00047E   POP     R18
8225	22273	  000480   PUSH    R31
8226	22275	  000482   PUSH    R30
8227	22277	  000484   MOV     R31,R19
8228	22278	  000486   MOV     R30,R18
8229	22279	  000488   ADD     R30,R16
8230	22280	  00048A   ADC     R31,R17
8231	22281	  00048C   LSL     R30
8232	22282	  00048E   ROL     R31
8233	22283	  000490   LSL     R18
8234	22284	  000492   ROL     R19
8235	22285	  000494   LPM      R16,Z+
8236	22288	  000496   LPM      R17,Z
8237	22291	  000498   ADD     R18,R16
8238	22292	  00049A   ADC     R19,R17
8239	22293	  00049C   LSR     R19
8240	22294	  00049E   ROR     R18
8241	22295	  0004A0   POP     R30
8242	22297	  0004A2   POP     R31
8243	22299	  0004A4   PUSH    R18
8244	22301	  0004A6   PUSH    R19
8245	22303	  0004A8   LD      R19,Y+
8246	22305	  0004AA   LD      R18,Y+
8247	22307	  0004AC   OUT     SREG,R18
8248	22308	  0004AE   LD      R18,Y+
8249	22310	  0004B0   LD      R16,Y+
8250	22312	  0004B2   LD      R17,Y+
8251	22314	  0004B4   RET
		??ytWEAktrkhcfCgWrUYtyDxnHzjpNX:
8252	22318	  001492   ADC     R19,R17
8253	22319	  001494   ST      Y,R18
8254	22321	  001496   ST      -Y,R17
8255	22323	  001498   ST      -Y,R16
8256	22325	  00149A   LDI     R17,0x00
8257	22326	  00149C   LDI     R16,0x76
8258	22327	  00149E   JMP     ??qpQLuPnEUlJCOQbkVsgBFJkeFRkBB
		??qpQLuPnEUlJCOQbkVsgBFJkeFRkBB:
8259	22330	  000C24   ST      -Y,R18
8260	22332	  000C26   IN      R18,SREG
8261	22333	  000C28   ST      -Y,R18
8262	22335	  000C2A   CALL    avmp_handler
		avmp_handler:
8263	22339	  00047A   ST      -Y,R19
8264	22341	  00047C   POP     R19
8265	22343	  00047E   POP     R18
8266	22345	  000480   PUSH    R31
8267	22347	  000482   PUSH    R30
8268	22349	  000484   MOV     R31,R19
8269	22350	  000486   MOV     R30,R18
8270	22351	  000488   ADD     R30,R16
8271	22352	  00048A   ADC     R31,R17
8272	22353	  00048C   LSL     R30
8273	22354	  00048E   ROL     R31
8274	22355	  000490   LSL     R18
8275	22356	  000492   ROL     R19
8276	22357	  000494   LPM      R16,Z+
8277	22360	  000496   LPM      R17,Z
8278	22363	  000498   ADD     R18,R16
8279	22364	  00049A   ADC     R19,R17
8280	22365	  00049C   LSR     R19
8281	22366	  00049E   ROR     R18
8282	22367	  0004A0   POP     R30
8283	22369	  0004A2   POP     R31
8284	22371	  0004A4   PUSH    R18
8285	22373	  0004A6   PUSH    R19
8286	22375	  0004A8   LD      R19,Y+
8287	22377	  0004AA   LD      R18,Y+
8288	22379	  0004AC   OUT     SREG,R18
8289	22380	  0004AE   LD      R18,Y+
8290	22382	  0004B0   LD      R16,Y+
8291	22384	  0004B2   LD      R17,Y+
8292	22386	  0004B4   RET
		??gAcnsnFMfBASOgyVNWTvPrEyTZqbF:
8293	22390	  0014A2   STD     Y+1,R19
8294	22392	  0014A4   LDI     R20,0x02
8295	22393	  0014A6   ST      -Y,R17
8296	22395	  0014A8   ST      -Y,R16
8297	22397	  0014AA   LDI     R17,0x00
8298	22398	  0014AC   LDI     R16,0x77
8299	22399	  0014AE   JMP     ??qpQLuPnEUlJCOQbkVsgBFJkeFRkBB
		??qpQLuPnEUlJCOQbkVsgBFJkeFRkBB:
8300	22402	  000C24   ST      -Y,R18
8301	22404	  000C26   IN      R18,SREG
8302	22405	  000C28   ST      -Y,R18
8303	22407	  000C2A   CALL    avmp_handler
		avmp_handler:
8304	22411	  00047A   ST      -Y,R19
8305	22413	  00047C   POP     R19
8306	22415	  00047E   POP     R18
8307	22417	  000480   PUSH    R31
8308	22419	  000482   PUSH    R30
8309	22421	  000484   MOV     R31,R19
8310	22422	  000486   MOV     R30,R18
8311	22423	  000488   ADD     R30,R16
8312	22424	  00048A   ADC     R31,R17
8313	22425	  00048C   LSL     R30
8314	22426	  00048E   ROL     R31
8315	22427	  000490   LSL     R18
8316	22428	  000492   ROL     R19
8317	22429	  000494   LPM      R16,Z+
8318	22432	  000496   LPM      R17,Z
8319	22435	  000498   ADD     R18,R16
8320	22436	  00049A   ADC     R19,R17
8321	22437	  00049C   LSR     R19
8322	22438	  00049E   ROR     R18
8323	22439	  0004A0   POP     R30
8324	22441	  0004A2   POP     R31
8325	22443	  0004A4   PUSH    R18
8326	22445	  0004A6   PUSH    R19
8327	22447	  0004A8   LD      R19,Y+
8328	22449	  0004AA   LD      R18,Y+
8329	22451	  0004AC   OUT     SREG,R18
8330	22452	  0004AE   LD      R18,Y+
8331	22454	  0004B0   LD      R16,Y+
8332	22456	  0004B2   LD      R17,Y+
8333	22458	  0004B4   RET
		??uDVntJXaGNdeTosreMvYQpjezBROM:
8334	22462	  0014B2   LDI     R21,0x00
8335	22463	  0014B4   LDI     R18,0x00
8336	22464	  0014B6   ST      -Y,R17
8337	22466	  0014B8   ST      -Y,R16
8338	22468	  0014BA   LDI     R17,0x00
8339	22469	  0014BC   LDI     R16,0x78
8340	22470	  0014BE   JMP     ??qpQLuPnEUlJCOQbkVsgBFJkeFRkBB
		??qpQLuPnEUlJCOQbkVsgBFJkeFRkBB:
8341	22473	  000C24   ST      -Y,R18
8342	22475	  000C26   IN      R18,SREG
8343	22476	  000C28   ST      -Y,R18
8344	22478	  000C2A   CALL    avmp_handler
		avmp_handler:
8345	22482	  00047A   ST      -Y,R19
8346	22484	  00047C   POP     R19
8347	22486	  00047E   POP     R18
8348	22488	  000480   PUSH    R31
8349	22490	  000482   PUSH    R30
8350	22492	  000484   MOV     R31,R19
8351	22493	  000486   MOV     R30,R18
8352	22494	  000488   ADD     R30,R16
8353	22495	  00048A   ADC     R31,R17
8354	22496	  00048C   LSL     R30
8355	22497	  00048E   ROL     R31
8356	22498	  000490   LSL     R18
8357	22499	  000492   ROL     R19
8358	22500	  000494   LPM      R16,Z+
8359	22503	  000496   LPM      R17,Z
8360	22506	  000498   ADD     R18,R16
8361	22507	  00049A   ADC     R19,R17
8362	22508	  00049C   LSR     R19
8363	22509	  00049E   ROR     R18
8364	22510	  0004A0   POP     R30
8365	22512	  0004A2   POP     R31
8366	22514	  0004A4   PUSH    R18
8367	22516	  0004A6   PUSH    R19
8368	22518	  0004A8   LD      R19,Y+
8369	22520	  0004AA   LD      R18,Y+
8370	22522	  0004AC   OUT     SREG,R18
8371	22523	  0004AE   LD      R18,Y+
8372	22525	  0004B0   LD      R16,Y+
8373	22527	  0004B2   LD      R17,Y+
8374	22529	  0004B4   RET
		??sRLkHLUdFMdYbLwfUBhrqngPYVmjj:
8375	22533	  0014C2   LDI     R19,0x00
8376	22534	  0014C4   MOVW    R16,R28
8377	22535	  0014C6   ST      -Y,R17
8378	22537	  0014C8   ST      -Y,R16
8379	22539	  0014CA   LDI     R17,0x00
8380	22540	  0014CC   LDI     R16,0x79
8381	22541	  0014CE   JMP     ??qpQLuPnEUlJCOQbkVsgBFJkeFRkBB
		??qpQLuPnEUlJCOQbkVsgBFJkeFRkBB:
8382	22544	  000C24   ST      -Y,R18
8383	22546	  000C26   IN      R18,SREG
8384	22547	  000C28   ST      -Y,R18
8385	22549	  000C2A   CALL    avmp_handler
		avmp_handler:
8386	22553	  00047A   ST      -Y,R19
8387	22555	  00047C   POP     R19
8388	22557	  00047E   POP     R18
8389	22559	  000480   PUSH    R31
8390	22561	  000482   PUSH    R30
8391	22563	  000484   MOV     R31,R19
8392	22564	  000486   MOV     R30,R18
8393	22565	  000488   ADD     R30,R16
8394	22566	  00048A   ADC     R31,R17
8395	22567	  00048C   LSL     R30
8396	22568	  00048E   ROL     R31
8397	22569	  000490   LSL     R18
8398	22570	  000492   ROL     R19
8399	22571	  000494   LPM      R16,Z+
8400	22574	  000496   LPM      R17,Z
8401	22577	  000498   ADD     R18,R16
8402	22578	  00049A   ADC     R19,R17
8403	22579	  00049C   LSR     R19
8404	22580	  00049E   ROR     R18
8405	22581	  0004A0   POP     R30
8406	22583	  0004A2   POP     R31
8407	22585	  0004A4   PUSH    R18
8408	22587	  0004A6   PUSH    R19
8409	22589	  0004A8   LD      R19,Y+
8410	22591	  0004AA   LD      R18,Y+
8411	22593	  0004AC   OUT     SREG,R18
8412	22594	  0004AE   LD      R18,Y+
8413	22596	  0004B0   LD      R16,Y+
8414	22598	  0004B2   LD      R17,Y+
8415	22600	  0004B4   RET
		??rLQjYHWxtOrKEBHcllJCLjTisYahi:
8416	22604	  0014D2   CALL    memset
		memset:
8417	22608	  001DF8   MOVW    R30,R16
8418	22609	  001DFA   RJMP    0x1E02
8419	22611	  001E02   MOV     R19,R20
8420	22612	  001E04   OR      R19,R21
8421	22613	  001E06   BRNE    0x1DFC
8422	22615	  001DFC   ST      Z+,R18
8423	22617	  001DFE   SUBI    R20,0x01
8424	22618	  001E00   SBCI    R21,0x00
8425	22619	  001E02   MOV     R19,R20
8426	22620	  001E04   OR      R19,R21
8427	22621	  001E06   BRNE    0x1DFC
8428	22623	  001DFC   ST      Z+,R18
8429	22625	  001DFE   SUBI    R20,0x01
8430	22626	  001E00   SBCI    R21,0x00
8431	22627	  001E02   MOV     R19,R20
8432	22628	  001E04   OR      R19,R21
8433	22629	  001E06   BRNE    0x1DFC
8434	22630	  001E08   RET
8435	22634	  0014D6   MOVW    R16,R28
8436	22635	  0014D8   ST      -Y,R17
8437	22637	  0014DA   ST      -Y,R16
8438	22639	  0014DC   LDI     R17,0x00
8439	22640	  0014DE   LDI     R16,0x7A
8440	22641	  0014E0   JMP     ??qpQLuPnEUlJCOQbkVsgBFJkeFRkBB
		??qpQLuPnEUlJCOQbkVsgBFJkeFRkBB:
8441	22644	  000C24   ST      -Y,R18
8442	22646	  000C26   IN      R18,SREG
8443	22647	  000C28   ST      -Y,R18
8444	22649	  000C2A   CALL    avmp_handler
		avmp_handler:
8445	22653	  00047A   ST      -Y,R19
8446	22655	  00047C   POP     R19
8447	22657	  00047E   POP     R18
8448	22659	  000480   PUSH    R31
8449	22661	  000482   PUSH    R30
8450	22663	  000484   MOV     R31,R19
8451	22664	  000486   MOV     R30,R18
8452	22665	  000488   ADD     R30,R16
8453	22666	  00048A   ADC     R31,R17
8454	22667	  00048C   LSL     R30
8455	22668	  00048E   ROL     R31
8456	22669	  000490   LSL     R18
8457	22670	  000492   ROL     R19
8458	22671	  000494   LPM      R16,Z+
8459	22674	  000496   LPM      R17,Z
8460	22677	  000498   ADD     R18,R16
8461	22678	  00049A   ADC     R19,R17
8462	22679	  00049C   LSR     R19
8463	22680	  00049E   ROR     R18
8464	22681	  0004A0   POP     R30
8465	22683	  0004A2   POP     R31
8466	22685	  0004A4   PUSH    R18
8467	22687	  0004A6   PUSH    R19
8468	22689	  0004A8   LD      R19,Y+
8469	22691	  0004AA   LD      R18,Y+
8470	22693	  0004AC   OUT     SREG,R18
8471	22694	  0004AE   LD      R18,Y+
8472	22696	  0004B0   LD      R16,Y+
8473	22698	  0004B2   LD      R17,Y+
8474	22700	  0004B4   RET
		??CjnOqDwfUgsyeKAPfRkHVblWpHsAR:
8475	22704	  0014E4   SUBI    R16,0xFE
8476	22705	  0014E6   SBCI    R17,0xFF
8477	22706	  0014E8   ST      -Y,R17
8478	22708	  0014EA   ST      -Y,R16
8479	22710	  0014EC   LDI     R17,0x00
8480	22711	  0014EE   LDI     R16,0x7B
8481	22712	  0014F0   JMP     ??qpQLuPnEUlJCOQbkVsgBFJkeFRkBB
		??qpQLuPnEUlJCOQbkVsgBFJkeFRkBB:
8482	22715	  000C24   ST      -Y,R18
8483	22717	  000C26   IN      R18,SREG
8484	22718	  000C28   ST      -Y,R18
8485	22720	  000C2A   CALL    avmp_handler
		avmp_handler:
8486	22724	  00047A   ST      -Y,R19
8487	22726	  00047C   POP     R19
8488	22728	  00047E   POP     R18
8489	22730	  000480   PUSH    R31
8490	22732	  000482   PUSH    R30
8491	22734	  000484   MOV     R31,R19
8492	22735	  000486   MOV     R30,R18
8493	22736	  000488   ADD     R30,R16
8494	22737	  00048A   ADC     R31,R17
8495	22738	  00048C   LSL     R30
8496	22739	  00048E   ROL     R31
8497	22740	  000490   LSL     R18
8498	22741	  000492   ROL     R19
8499	22742	  000494   LPM      R16,Z+
8500	22745	  000496   LPM      R17,Z
8501	22748	  000498   ADD     R18,R16
8502	22749	  00049A   ADC     R19,R17
8503	22750	  00049C   LSR     R19
8504	22751	  00049E   ROR     R18
8505	22752	  0004A0   POP     R30
8506	22754	  0004A2   POP     R31
8507	22756	  0004A4   PUSH    R18
8508	22758	  0004A6   PUSH    R19
8509	22760	  0004A8   LD      R19,Y+
8510	22762	  0004AA   LD      R18,Y+
8511	22764	  0004AC   OUT     SREG,R18
8512	22765	  0004AE   LD      R18,Y+
8513	22767	  0004B0   LD      R16,Y+
8514	22769	  0004B2   LD      R17,Y+
8515	22771	  0004B4   RET
		??hPsfIHTSBFyHzrPapnNSHOxIiEEBZ:
8516	22775	  0014F4   MOVW    R30,R16
8517	22776	  0014F6   LDI     R18,0x00
8518	22777	  0014F8   ST      -Y,R17
8519	22779	  0014FA   ST      -Y,R16
8520	22781	  0014FC   LDI     R17,0x00
8521	22782	  0014FE   LDI     R16,0x7C
8522	22783	  001500   JMP     ??qpQLuPnEUlJCOQbkVsgBFJkeFRkBB
		??qpQLuPnEUlJCOQbkVsgBFJkeFRkBB:
8523	22786	  000C24   ST      -Y,R18
8524	22788	  000C26   IN      R18,SREG
8525	22789	  000C28   ST      -Y,R18
8526	22791	  000C2A   CALL    avmp_handler
		avmp_handler:
8527	22795	  00047A   ST      -Y,R19
8528	22797	  00047C   POP     R19
8529	22799	  00047E   POP     R18
8530	22801	  000480   PUSH    R31
8531	22803	  000482   PUSH    R30
8532	22805	  000484   MOV     R31,R19
8533	22806	  000486   MOV     R30,R18
8534	22807	  000488   ADD     R30,R16
8535	22808	  00048A   ADC     R31,R17
8536	22809	  00048C   LSL     R30
8537	22810	  00048E   ROL     R31
8538	22811	  000490   LSL     R18
8539	22812	  000492   ROL     R19
8540	22813	  000494   LPM      R16,Z+
8541	22816	  000496   LPM      R17,Z
8542	22819	  000498   ADD     R18,R16
8543	22820	  00049A   ADC     R19,R17
8544	22821	  00049C   LSR     R19
8545	22822	  00049E   ROR     R18
8546	22823	  0004A0   POP     R30
8547	22825	  0004A2   POP     R31
8548	22827	  0004A4   PUSH    R18
8549	22829	  0004A6   PUSH    R19
8550	22831	  0004A8   LD      R19,Y+
8551	22833	  0004AA   LD      R18,Y+
8552	22835	  0004AC   OUT     SREG,R18
8553	22836	  0004AE   LD      R18,Y+
8554	22838	  0004B0   LD      R16,Y+
8555	22840	  0004B2   LD      R17,Y+
8556	22842	  0004B4   RET
		??AKsOeloyVFHClLArgJchpsPGgdfTM:
8557	22846	  001504   LDI     R26,0x05
		??Test3_0:
8558	22847	  001506   ST      Z+,R18
8559	22849	  001508   ST      -Y,R17
8560	22851	  00150A   ST      -Y,R16
8561	22853	  00150C   LDI     R17,0x00
8562	22854	  00150E   LDI     R16,0x7D
8563	22855	  001510   JMP     ??qpQLuPnEUlJCOQbkVsgBFJkeFRkBB
		??qpQLuPnEUlJCOQbkVsgBFJkeFRkBB:
8564	22858	  000C24   ST      -Y,R18
8565	22860	  000C26   IN      R18,SREG
8566	22861	  000C28   ST      -Y,R18
8567	22863	  000C2A   CALL    avmp_handler
		avmp_handler:
8568	22867	  00047A   ST      -Y,R19
8569	22869	  00047C   POP     R19
8570	22871	  00047E   POP     R18
8571	22873	  000480   PUSH    R31
8572	22875	  000482   PUSH    R30
8573	22877	  000484   MOV     R31,R19
8574	22878	  000486   MOV     R30,R18
8575	22879	  000488   ADD     R30,R16
8576	22880	  00048A   ADC     R31,R17
8577	22881	  00048C   LSL     R30
8578	22882	  00048E   ROL     R31
8579	22883	  000490   LSL     R18
8580	22884	  000492   ROL     R19
8581	22885	  000494   LPM      R16,Z+
8582	22888	  000496   LPM      R17,Z
8583	22891	  000498   ADD     R18,R16
8584	22892	  00049A   ADC     R19,R17
8585	22893	  00049C   LSR     R19
8586	22894	  00049E   ROR     R18
8587	22895	  0004A0   POP     R30
8588	22897	  0004A2   POP     R31
8589	22899	  0004A4   PUSH    R18
8590	22901	  0004A6   PUSH    R19
8591	22903	  0004A8   LD      R19,Y+
8592	22905	  0004AA   LD      R18,Y+
8593	22907	  0004AC   OUT     SREG,R18
8594	22908	  0004AE   LD      R18,Y+
8595	22910	  0004B0   LD      R16,Y+
8596	22912	  0004B2   LD      R17,Y+
8597	22914	  0004B4   RET
		??QpuZgrAIRgudLyoxyipOYGnCJFjOs:
8598	22918	  001514   DEC     R26
8599	22919	  001516   BRNE    ??Test3_993_1_branch_indirect_fix
		??Test3_993_1_branch_indirect_fix:
8600	22921	  00151C   ST      -Y,R18
8601	22923	  00151E   IN      R18,SREG
8602	22924	  001520   ST      -Y,R18
8603	22926	  001522   CALL    avmp_handler2
		avmp_handler2:
8604	22930	  0004B6   ST      -Y,R19
8605	22932	  0004B8   ST      -Y,R17
8606	22934	  0004BA   ST      -Y,R16
8607	22936	  0004BC   POP     R19
8608	22938	  0004BE   POP     R18
8609	22940	  0004C0   PUSH    R31
8610	22942	  0004C2   PUSH    R30
8611	22944	  0004C4   MOV     R31,R19
8612	22945	  0004C6   MOV     R30,R18
8613	22946	  0004C8   LSL     R30
8614	22947	  0004CA   ROL     R31
8615	22948	  0004CC   LSL     R18
8616	22949	  0004CE   ROL     R19
8617	22950	  0004D0   LPM      R16,Z+
8618	22953	  0004D2   LPM      R17,Z
8619	22956	  0004D4   ADD     R18,R16
8620	22957	  0004D6   ADC     R19,R17
8621	22958	  0004D8   LSR     R19
8622	22959	  0004DA   ROR     R18
8623	22960	  0004DC   POP     R30
8624	22962	  0004DE   POP     R31
8625	22964	  0004E0   PUSH    R18
8626	22966	  0004E2   PUSH    R19
8627	22968	  0004E4   LD      R16,Y+
8628	22970	  0004E6   LD      R17,Y+
8629	22972	  0004E8   LD      R19,Y+
8630	22974	  0004EA   LD      R18,Y+
8631	22976	  0004EC   OUT     SREG,R18
8632	22977	  0004EE   LD      R18,Y+
8633	22979	  0004F0   RET
		??Test3_0:
8634	22983	  001506   ST      Z+,R18
8635	22985	  001508   ST      -Y,R17
8636	22987	  00150A   ST      -Y,R16
8637	22989	  00150C   LDI     R17,0x00
8638	22990	  00150E   LDI     R16,0x7D
8639	22991	  001510   JMP     ??qpQLuPnEUlJCOQbkVsgBFJkeFRkBB
		??qpQLuPnEUlJCOQbkVsgBFJkeFRkBB:
8640	22994	  000C24   ST      -Y,R18
8641	22996	  000C26   IN      R18,SREG
8642	22997	  000C28   ST      -Y,R18
8643	22999	  000C2A   CALL    avmp_handler
		avmp_handler:
8644	23003	  00047A   ST      -Y,R19
8645	23005	  00047C   POP     R19
8646	23007	  00047E   POP     R18
8647	23009	  000480   PUSH    R31
8648	23011	  000482   PUSH    R30
8649	23013	  000484   MOV     R31,R19
8650	23014	  000486   MOV     R30,R18
8651	23015	  000488   ADD     R30,R16
8652	23016	  00048A   ADC     R31,R17
8653	23017	  00048C   LSL     R30
8654	23018	  00048E   ROL     R31
8655	23019	  000490   LSL     R18
8656	23020	  000492   ROL     R19
8657	23021	  000494   LPM      R16,Z+
8658	23024	  000496   LPM      R17,Z
8659	23027	  000498   ADD     R18,R16
8660	23028	  00049A   ADC     R19,R17
8661	23029	  00049C   LSR     R19
8662	23030	  00049E   ROR     R18
8663	23031	  0004A0   POP     R30
8664	23033	  0004A2   POP     R31
8665	23035	  0004A4   PUSH    R18
8666	23037	  0004A6   PUSH    R19
8667	23039	  0004A8   LD      R19,Y+
8668	23041	  0004AA   LD      R18,Y+
8669	23043	  0004AC   OUT     SREG,R18
8670	23044	  0004AE   LD      R18,Y+
8671	23046	  0004B0   LD      R16,Y+
8672	23048	  0004B2   LD      R17,Y+
8673	23050	  0004B4   RET
		??QpuZgrAIRgudLyoxyipOYGnCJFjOs:
8674	23054	  001514   DEC     R26
8675	23055	  001516   BRNE    ??Test3_993_1_branch_indirect_fix
		??Test3_993_1_branch_indirect_fix:
8676	23057	  00151C   ST      -Y,R18
8677	23059	  00151E   IN      R18,SREG
8678	23060	  001520   ST      -Y,R18
8679	23062	  001522   CALL    avmp_handler2
		avmp_handler2:
8680	23066	  0004B6   ST      -Y,R19
8681	23068	  0004B8   ST      -Y,R17
8682	23070	  0004BA   ST      -Y,R16
8683	23072	  0004BC   POP     R19
8684	23074	  0004BE   POP     R18
8685	23076	  0004C0   PUSH    R31
8686	23078	  0004C2   PUSH    R30
8687	23080	  0004C4   MOV     R31,R19
8688	23081	  0004C6   MOV     R30,R18
8689	23082	  0004C8   LSL     R30
8690	23083	  0004CA   ROL     R31
8691	23084	  0004CC   LSL     R18
8692	23085	  0004CE   ROL     R19
8693	23086	  0004D0   LPM      R16,Z+
8694	23089	  0004D2   LPM      R17,Z
8695	23092	  0004D4   ADD     R18,R16
8696	23093	  0004D6   ADC     R19,R17
8697	23094	  0004D8   LSR     R19
8698	23095	  0004DA   ROR     R18
8699	23096	  0004DC   POP     R30
8700	23098	  0004DE   POP     R31
8701	23100	  0004E0   PUSH    R18
8702	23102	  0004E2   PUSH    R19
8703	23104	  0004E4   LD      R16,Y+
8704	23106	  0004E6   LD      R17,Y+
8705	23108	  0004E8   LD      R19,Y+
8706	23110	  0004EA   LD      R18,Y+
8707	23112	  0004EC   OUT     SREG,R18
8708	23113	  0004EE   LD      R18,Y+
8709	23115	  0004F0   RET
		??Test3_0:
8710	23119	  001506   ST      Z+,R18
8711	23121	  001508   ST      -Y,R17
8712	23123	  00150A   ST      -Y,R16
8713	23125	  00150C   LDI     R17,0x00
8714	23126	  00150E   LDI     R16,0x7D
8715	23127	  001510   JMP     ??qpQLuPnEUlJCOQbkVsgBFJkeFRkBB
		??qpQLuPnEUlJCOQbkVsgBFJkeFRkBB:
8716	23130	  000C24   ST      -Y,R18
8717	23132	  000C26   IN      R18,SREG
8718	23133	  000C28   ST      -Y,R18
8719	23135	  000C2A   CALL    avmp_handler
		avmp_handler:
8720	23139	  00047A   ST      -Y,R19
8721	23141	  00047C   POP     R19
8722	23143	  00047E   POP     R18
8723	23145	  000480   PUSH    R31
8724	23147	  000482   PUSH    R30
8725	23149	  000484   MOV     R31,R19
8726	23150	  000486   MOV     R30,R18
8727	23151	  000488   ADD     R30,R16
8728	23152	  00048A   ADC     R31,R17
8729	23153	  00048C   LSL     R30
8730	23154	  00048E   ROL     R31
8731	23155	  000490   LSL     R18
8732	23156	  000492   ROL     R19
8733	23157	  000494   LPM      R16,Z+
8734	23160	  000496   LPM      R17,Z
8735	23163	  000498   ADD     R18,R16
8736	23164	  00049A   ADC     R19,R17
8737	23165	  00049C   LSR     R19
8738	23166	  00049E   ROR     R18
8739	23167	  0004A0   POP     R30
8740	23169	  0004A2   POP     R31
8741	23171	  0004A4   PUSH    R18
8742	23173	  0004A6   PUSH    R19
8743	23175	  0004A8   LD      R19,Y+
8744	23177	  0004AA   LD      R18,Y+
8745	23179	  0004AC   OUT     SREG,R18
8746	23180	  0004AE   LD      R18,Y+
8747	23182	  0004B0   LD      R16,Y+
8748	23184	  0004B2   LD      R17,Y+
8749	23186	  0004B4   RET
		??QpuZgrAIRgudLyoxyipOYGnCJFjOs:
8750	23190	  001514   DEC     R26
8751	23191	  001516   BRNE    ??Test3_993_1_branch_indirect_fix
		??Test3_993_1_branch_indirect_fix:
8752	23193	  00151C   ST      -Y,R18
8753	23195	  00151E   IN      R18,SREG
8754	23196	  001520   ST      -Y,R18
8755	23198	  001522   CALL    avmp_handler2
		avmp_handler2:
8756	23202	  0004B6   ST      -Y,R19
8757	23204	  0004B8   ST      -Y,R17
8758	23206	  0004BA   ST      -Y,R16
8759	23208	  0004BC   POP     R19
8760	23210	  0004BE   POP     R18
8761	23212	  0004C0   PUSH    R31
8762	23214	  0004C2   PUSH    R30
8763	23216	  0004C4   MOV     R31,R19
8764	23217	  0004C6   MOV     R30,R18
8765	23218	  0004C8   LSL     R30
8766	23219	  0004CA   ROL     R31
8767	23220	  0004CC   LSL     R18
8768	23221	  0004CE   ROL     R19
8769	23222	  0004D0   LPM      R16,Z+
8770	23225	  0004D2   LPM      R17,Z
8771	23228	  0004D4   ADD     R18,R16
8772	23229	  0004D6   ADC     R19,R17
8773	23230	  0004D8   LSR     R19
8774	23231	  0004DA   ROR     R18
8775	23232	  0004DC   POP     R30
8776	23234	  0004DE   POP     R31
8777	23236	  0004E0   PUSH    R18
8778	23238	  0004E2   PUSH    R19
8779	23240	  0004E4   LD      R16,Y+
8780	23242	  0004E6   LD      R17,Y+
8781	23244	  0004E8   LD      R19,Y+
8782	23246	  0004EA   LD      R18,Y+
8783	23248	  0004EC   OUT     SREG,R18
8784	23249	  0004EE   LD      R18,Y+
8785	23251	  0004F0   RET
		??Test3_0:
8786	23255	  001506   ST      Z+,R18
8787	23257	  001508   ST      -Y,R17
8788	23259	  00150A   ST      -Y,R16
8789	23261	  00150C   LDI     R17,0x00
8790	23262	  00150E   LDI     R16,0x7D
8791	23263	  001510   JMP     ??qpQLuPnEUlJCOQbkVsgBFJkeFRkBB
		??qpQLuPnEUlJCOQbkVsgBFJkeFRkBB:
8792	23266	  000C24   ST      -Y,R18
8793	23268	  000C26   IN      R18,SREG
8794	23269	  000C28   ST      -Y,R18
8795	23271	  000C2A   CALL    avmp_handler
		avmp_handler:
8796	23275	  00047A   ST      -Y,R19
8797	23277	  00047C   POP     R19
8798	23279	  00047E   POP     R18
8799	23281	  000480   PUSH    R31
8800	23283	  000482   PUSH    R30
8801	23285	  000484   MOV     R31,R19
8802	23286	  000486   MOV     R30,R18
8803	23287	  000488   ADD     R30,R16
8804	23288	  00048A   ADC     R31,R17
8805	23289	  00048C   LSL     R30
8806	23290	  00048E   ROL     R31
8807	23291	  000490   LSL     R18
8808	23292	  000492   ROL     R19
8809	23293	  000494   LPM      R16,Z+
8810	23296	  000496   LPM      R17,Z
8811	23299	  000498   ADD     R18,R16
8812	23300	  00049A   ADC     R19,R17
8813	23301	  00049C   LSR     R19
8814	23302	  00049E   ROR     R18
8815	23303	  0004A0   POP     R30
8816	23305	  0004A2   POP     R31
8817	23307	  0004A4   PUSH    R18
8818	23309	  0004A6   PUSH    R19
8819	23311	  0004A8   LD      R19,Y+
8820	23313	  0004AA   LD      R18,Y+
8821	23315	  0004AC   OUT     SREG,R18
8822	23316	  0004AE   LD      R18,Y+
8823	23318	  0004B0   LD      R16,Y+
8824	23320	  0004B2   LD      R17,Y+
8825	23322	  0004B4   RET
		??QpuZgrAIRgudLyoxyipOYGnCJFjOs:
8826	23326	  001514   DEC     R26
8827	23327	  001516   BRNE    ??Test3_993_1_branch_indirect_fix
		??Test3_993_1_branch_indirect_fix:
8828	23329	  00151C   ST      -Y,R18
8829	23331	  00151E   IN      R18,SREG
8830	23332	  001520   ST      -Y,R18
8831	23334	  001522   CALL    avmp_handler2
		avmp_handler2:
8832	23338	  0004B6   ST      -Y,R19
8833	23340	  0004B8   ST      -Y,R17
8834	23342	  0004BA   ST      -Y,R16
8835	23344	  0004BC   POP     R19
8836	23346	  0004BE   POP     R18
8837	23348	  0004C0   PUSH    R31
8838	23350	  0004C2   PUSH    R30
8839	23352	  0004C4   MOV     R31,R19
8840	23353	  0004C6   MOV     R30,R18
8841	23354	  0004C8   LSL     R30
8842	23355	  0004CA   ROL     R31
8843	23356	  0004CC   LSL     R18
8844	23357	  0004CE   ROL     R19
8845	23358	  0004D0   LPM      R16,Z+
8846	23361	  0004D2   LPM      R17,Z
8847	23364	  0004D4   ADD     R18,R16
8848	23365	  0004D6   ADC     R19,R17
8849	23366	  0004D8   LSR     R19
8850	23367	  0004DA   ROR     R18
8851	23368	  0004DC   POP     R30
8852	23370	  0004DE   POP     R31
8853	23372	  0004E0   PUSH    R18
8854	23374	  0004E2   PUSH    R19
8855	23376	  0004E4   LD      R16,Y+
8856	23378	  0004E6   LD      R17,Y+
8857	23380	  0004E8   LD      R19,Y+
8858	23382	  0004EA   LD      R18,Y+
8859	23384	  0004EC   OUT     SREG,R18
8860	23385	  0004EE   LD      R18,Y+
8861	23387	  0004F0   RET
		??Test3_0:
8862	23391	  001506   ST      Z+,R18
8863	23393	  001508   ST      -Y,R17
8864	23395	  00150A   ST      -Y,R16
8865	23397	  00150C   LDI     R17,0x00
8866	23398	  00150E   LDI     R16,0x7D
8867	23399	  001510   JMP     ??qpQLuPnEUlJCOQbkVsgBFJkeFRkBB
		??qpQLuPnEUlJCOQbkVsgBFJkeFRkBB:
8868	23402	  000C24   ST      -Y,R18
8869	23404	  000C26   IN      R18,SREG
8870	23405	  000C28   ST      -Y,R18
8871	23407	  000C2A   CALL    avmp_handler
		avmp_handler:
8872	23411	  00047A   ST      -Y,R19
8873	23413	  00047C   POP     R19
8874	23415	  00047E   POP     R18
8875	23417	  000480   PUSH    R31
8876	23419	  000482   PUSH    R30
8877	23421	  000484   MOV     R31,R19
8878	23422	  000486   MOV     R30,R18
8879	23423	  000488   ADD     R30,R16
8880	23424	  00048A   ADC     R31,R17
8881	23425	  00048C   LSL     R30
8882	23426	  00048E   ROL     R31
8883	23427	  000490   LSL     R18
8884	23428	  000492   ROL     R19
8885	23429	  000494   LPM      R16,Z+
8886	23432	  000496   LPM      R17,Z
8887	23435	  000498   ADD     R18,R16
8888	23436	  00049A   ADC     R19,R17
8889	23437	  00049C   LSR     R19
8890	23438	  00049E   ROR     R18
8891	23439	  0004A0   POP     R30
8892	23441	  0004A2   POP     R31
8893	23443	  0004A4   PUSH    R18
8894	23445	  0004A6   PUSH    R19
8895	23447	  0004A8   LD      R19,Y+
8896	23449	  0004AA   LD      R18,Y+
8897	23451	  0004AC   OUT     SREG,R18
8898	23452	  0004AE   LD      R18,Y+
8899	23454	  0004B0   LD      R16,Y+
8900	23456	  0004B2   LD      R17,Y+
8901	23458	  0004B4   RET
		??QpuZgrAIRgudLyoxyipOYGnCJFjOs:
8902	23462	  001514   DEC     R26
8903	23463	  001516   BRNE    ??Test3_993_1_branch_indirect_fix
8904	23464	  001518   JMP     ??Test3_993_1_branch_skip
		??Test3_993_1_branch_skip:
8905	23467	  001528   ST      -Y,R17
8906	23469	  00152A   ST      -Y,R16
8907	23471	  00152C   LDI     R17,0x00
8908	23472	  00152E   LDI     R16,0x7E
8909	23473	  001530   JMP     ??qpQLuPnEUlJCOQbkVsgBFJkeFRkBB
		??qpQLuPnEUlJCOQbkVsgBFJkeFRkBB:
8910	23476	  000C24   ST      -Y,R18
8911	23478	  000C26   IN      R18,SREG
8912	23479	  000C28   ST      -Y,R18
8913	23481	  000C2A   CALL    avmp_handler
		avmp_handler:
8914	23485	  00047A   ST      -Y,R19
8915	23487	  00047C   POP     R19
8916	23489	  00047E   POP     R18
8917	23491	  000480   PUSH    R31
8918	23493	  000482   PUSH    R30
8919	23495	  000484   MOV     R31,R19
8920	23496	  000486   MOV     R30,R18
8921	23497	  000488   ADD     R30,R16
8922	23498	  00048A   ADC     R31,R17
8923	23499	  00048C   LSL     R30
8924	23500	  00048E   ROL     R31
8925	23501	  000490   LSL     R18
8926	23502	  000492   ROL     R19
8927	23503	  000494   LPM      R16,Z+
8928	23506	  000496   LPM      R17,Z
8929	23509	  000498   ADD     R18,R16
8930	23510	  00049A   ADC     R19,R17
8931	23511	  00049C   LSR     R19
8932	23512	  00049E   ROR     R18
8933	23513	  0004A0   POP     R30
8934	23515	  0004A2   POP     R31
8935	23517	  0004A4   PUSH    R18
8936	23519	  0004A6   PUSH    R19
8937	23521	  0004A8   LD      R19,Y+
8938	23523	  0004AA   LD      R18,Y+
8939	23525	  0004AC   OUT     SREG,R18
8940	23526	  0004AE   LD      R18,Y+
8941	23528	  0004B0   LD      R16,Y+
8942	23530	  0004B2   LD      R17,Y+
8943	23532	  0004B4   RET
		??nCKmbsKrSDcKlcWZlDlMaHmTjpmeJ:
8944	23536	  001534   LDI     R16,0xDA
8945	23537	  001536   LDI     R17,0x01
8946	23538	  001538   ST      -Y,R17
8947	23540	  00153A   ST      -Y,R16
8948	23542	  00153C   LDI     R17,0x00
8949	23543	  00153E   LDI     R16,0x7F
8950	23544	  001540   JMP     ??qpQLuPnEUlJCOQbkVsgBFJkeFRkBB
		??qpQLuPnEUlJCOQbkVsgBFJkeFRkBB:
8951	23547	  000C24   ST      -Y,R18
8952	23549	  000C26   IN      R18,SREG
8953	23550	  000C28   ST      -Y,R18
8954	23552	  000C2A   CALL    avmp_handler
		avmp_handler:
8955	23556	  00047A   ST      -Y,R19
8956	23558	  00047C   POP     R19
8957	23560	  00047E   POP     R18
8958	23562	  000480   PUSH    R31
8959	23564	  000482   PUSH    R30
8960	23566	  000484   MOV     R31,R19
8961	23567	  000486   MOV     R30,R18
8962	23568	  000488   ADD     R30,R16
8963	23569	  00048A   ADC     R31,R17
8964	23570	  00048C   LSL     R30
8965	23571	  00048E   ROL     R31
8966	23572	  000490   LSL     R18
8967	23573	  000492   ROL     R19
8968	23574	  000494   LPM      R16,Z+
8969	23577	  000496   LPM      R17,Z
8970	23580	  000498   ADD     R18,R16
8971	23581	  00049A   ADC     R19,R17
8972	23582	  00049C   LSR     R19
8973	23583	  00049E   ROR     R18
8974	23584	  0004A0   POP     R30
8975	23586	  0004A2   POP     R31
8976	23588	  0004A4   PUSH    R18
8977	23590	  0004A6   PUSH    R19
8978	23592	  0004A8   LD      R19,Y+
8979	23594	  0004AA   LD      R18,Y+
8980	23596	  0004AC   OUT     SREG,R18
8981	23597	  0004AE   LD      R18,Y+
8982	23599	  0004B0   LD      R16,Y+
8983	23601	  0004B2   LD      R17,Y+
8984	23603	  0004B4   RET
		??jTEMOovrDEvJbCmNwXbglnDpZPDTV:
8985	23607	  001544   LD      R18,Y
8986	23609	  001546   LDD     R19,Y+1
8987	23611	  001548   ST      -Y,R17
8988	23613	  00154A   ST      -Y,R16
8989	23615	  00154C   LDI     R17,0x00
8990	23616	  00154E   LDI     R16,0x80
8991	23617	  001550   JMP     ??qpQLuPnEUlJCOQbkVsgBFJkeFRkBB
		??qpQLuPnEUlJCOQbkVsgBFJkeFRkBB:
8992	23620	  000C24   ST      -Y,R18
8993	23622	  000C26   IN      R18,SREG
8994	23623	  000C28   ST      -Y,R18
8995	23625	  000C2A   CALL    avmp_handler
		avmp_handler:
8996	23629	  00047A   ST      -Y,R19
8997	23631	  00047C   POP     R19
8998	23633	  00047E   POP     R18
8999	23635	  000480   PUSH    R31
9000	23637	  000482   PUSH    R30
9001	23639	  000484   MOV     R31,R19
9002	23640	  000486   MOV     R30,R18
9003	23641	  000488   ADD     R30,R16
9004	23642	  00048A   ADC     R31,R17
9005	23643	  00048C   LSL     R30
9006	23644	  00048E   ROL     R31
9007	23645	  000490   LSL     R18
9008	23646	  000492   ROL     R19
9009	23647	  000494   LPM      R16,Z+
9010	23650	  000496   LPM      R17,Z
9011	23653	  000498   ADD     R18,R16
9012	23654	  00049A   ADC     R19,R17
9013	23655	  00049C   LSR     R19
9014	23656	  00049E   ROR     R18
9015	23657	  0004A0   POP     R30
9016	23659	  0004A2   POP     R31
9017	23661	  0004A4   PUSH    R18
9018	23663	  0004A6   PUSH    R19
9019	23665	  0004A8   LD      R19,Y+
9020	23667	  0004AA   LD      R18,Y+
9021	23669	  0004AC   OUT     SREG,R18
9022	23670	  0004AE   LD      R18,Y+
9023	23672	  0004B0   LD      R16,Y+
9024	23674	  0004B2   LD      R17,Y+
9025	23676	  0004B4   RET
		??QEZPZAVgBNhguHUnnyDkpCOpwtDaW:
9026	23680	  001554   ST      -Y,R19
9027	23682	  001556   ST      -Y,R18
9028	23684	  001558   ST      -Y,R17
9029	23686	  00155A   ST      -Y,R16
9030	23688	  00155C   LDI     R17,0x00
9031	23689	  00155E   LDI     R16,0x81
9032	23690	  001560   JMP     ??qpQLuPnEUlJCOQbkVsgBFJkeFRkBB
		??qpQLuPnEUlJCOQbkVsgBFJkeFRkBB:
9033	23693	  000C24   ST      -Y,R18
9034	23695	  000C26   IN      R18,SREG
9035	23696	  000C28   ST      -Y,R18
9036	23698	  000C2A   CALL    avmp_handler
		avmp_handler:
9037	23702	  00047A   ST      -Y,R19
9038	23704	  00047C   POP     R19
9039	23706	  00047E   POP     R18
9040	23708	  000480   PUSH    R31
9041	23710	  000482   PUSH    R30
9042	23712	  000484   MOV     R31,R19
9043	23713	  000486   MOV     R30,R18
9044	23714	  000488   ADD     R30,R16
9045	23715	  00048A   ADC     R31,R17
9046	23716	  00048C   LSL     R30
9047	23717	  00048E   ROL     R31
9048	23718	  000490   LSL     R18
9049	23719	  000492   ROL     R19
9050	23720	  000494   LPM      R16,Z+
9051	23723	  000496   LPM      R17,Z
9052	23726	  000498   ADD     R18,R16
9053	23727	  00049A   ADC     R19,R17
9054	23728	  00049C   LSR     R19
9055	23729	  00049E   ROR     R18
9056	23730	  0004A0   POP     R30
9057	23732	  0004A2   POP     R31
9058	23734	  0004A4   PUSH    R18
9059	23736	  0004A6   PUSH    R19
9060	23738	  0004A8   LD      R19,Y+
9061	23740	  0004AA   LD      R18,Y+
9062	23742	  0004AC   OUT     SREG,R18
9063	23743	  0004AE   LD      R18,Y+
9064	23745	  0004B0   LD      R16,Y+
9065	23747	  0004B2   LD      R17,Y+
9066	23749	  0004B4   RET
		??wTAYYaGSyeNhFTRizMNWYtDuaKICX:
9067	23753	  001564   ST      -Y,R17
9068	23755	  001566   ST      -Y,R16
9069	23757	  001568   ST      -Y,R17
9070	23759	  00156A   ST      -Y,R16
9071	23761	  00156C   LDI     R17,0x00
9072	23762	  00156E   LDI     R16,0x82
9073	23763	  001570   JMP     ??qpQLuPnEUlJCOQbkVsgBFJkeFRkBB
		??qpQLuPnEUlJCOQbkVsgBFJkeFRkBB:
9074	23766	  000C24   ST      -Y,R18
9075	23768	  000C26   IN      R18,SREG
9076	23769	  000C28   ST      -Y,R18
9077	23771	  000C2A   CALL    avmp_handler
		avmp_handler:
9078	23775	  00047A   ST      -Y,R19
9079	23777	  00047C   POP     R19
9080	23779	  00047E   POP     R18
9081	23781	  000480   PUSH    R31
9082	23783	  000482   PUSH    R30
9083	23785	  000484   MOV     R31,R19
9084	23786	  000486   MOV     R30,R18
9085	23787	  000488   ADD     R30,R16
9086	23788	  00048A   ADC     R31,R17
9087	23789	  00048C   LSL     R30
9088	23790	  00048E   ROL     R31
9089	23791	  000490   LSL     R18
9090	23792	  000492   ROL     R19
9091	23793	  000494   LPM      R16,Z+
9092	23796	  000496   LPM      R17,Z
9093	23799	  000498   ADD     R18,R16
9094	23800	  00049A   ADC     R19,R17
9095	23801	  00049C   LSR     R19
9096	23802	  00049E   ROR     R18
9097	23803	  0004A0   POP     R30
9098	23805	  0004A2   POP     R31
9099	23807	  0004A4   PUSH    R18
9100	23809	  0004A6   PUSH    R19
9101	23811	  0004A8   LD      R19,Y+
9102	23813	  0004AA   LD      R18,Y+
9103	23815	  0004AC   OUT     SREG,R18
9104	23816	  0004AE   LD      R18,Y+
9105	23818	  0004B0   LD      R16,Y+
9106	23820	  0004B2   LD      R17,Y+
9107	23822	  0004B4   RET
		??helCskZiYFLrkeMnflGxQGzcVCQzg:
9108	23826	  001574   LDI     R18,0xDD
9109	23827	  001576   LDI     R19,0x01
9110	23828	  001578   ST      -Y,R17
9111	23830	  00157A   ST      -Y,R16
9112	23832	  00157C   LDI     R17,0x00
9113	23833	  00157E   LDI     R16,0x83
9114	23834	  001580   JMP     ??qpQLuPnEUlJCOQbkVsgBFJkeFRkBB
		??qpQLuPnEUlJCOQbkVsgBFJkeFRkBB:
9115	23837	  000C24   ST      -Y,R18
9116	23839	  000C26   IN      R18,SREG
9117	23840	  000C28   ST      -Y,R18
9118	23842	  000C2A   CALL    avmp_handler
		avmp_handler:
9119	23846	  00047A   ST      -Y,R19
9120	23848	  00047C   POP     R19
9121	23850	  00047E   POP     R18
9122	23852	  000480   PUSH    R31
9123	23854	  000482   PUSH    R30
9124	23856	  000484   MOV     R31,R19
9125	23857	  000486   MOV     R30,R18
9126	23858	  000488   ADD     R30,R16
9127	23859	  00048A   ADC     R31,R17
9128	23860	  00048C   LSL     R30
9129	23861	  00048E   ROL     R31
9130	23862	  000490   LSL     R18
9131	23863	  000492   ROL     R19
9132	23864	  000494   LPM      R16,Z+
9133	23867	  000496   LPM      R17,Z
9134	23870	  000498   ADD     R18,R16
9135	23871	  00049A   ADC     R19,R17
9136	23872	  00049C   LSR     R19
9137	23873	  00049E   ROR     R18
9138	23874	  0004A0   POP     R30
9139	23876	  0004A2   POP     R31
9140	23878	  0004A4   PUSH    R18
9141	23880	  0004A6   PUSH    R19
9142	23882	  0004A8   LD      R19,Y+
9143	23884	  0004AA   LD      R18,Y+
9144	23886	  0004AC   OUT     SREG,R18
9145	23887	  0004AE   LD      R18,Y+
9146	23889	  0004B0   LD      R16,Y+
9147	23891	  0004B2   LD      R17,Y+
9148	23893	  0004B4   RET
		??uvgNotDTGAMGkllkjKlRErtXIWOGm:
9149	23897	  001584   MOVW    R16,R28
9150	23898	  001586   SUBI    R16,0xFA
9151	23899	  001588   ST      -Y,R17
9152	23901	  00158A   ST      -Y,R16
9153	23903	  00158C   LDI     R17,0x00
9154	23904	  00158E   LDI     R16,0x84
9155	23905	  001590   JMP     ??qpQLuPnEUlJCOQbkVsgBFJkeFRkBB
		??qpQLuPnEUlJCOQbkVsgBFJkeFRkBB:
9156	23908	  000C24   ST      -Y,R18
9157	23910	  000C26   IN      R18,SREG
9158	23911	  000C28   ST      -Y,R18
9159	23913	  000C2A   CALL    avmp_handler
		avmp_handler:
9160	23917	  00047A   ST      -Y,R19
9161	23919	  00047C   POP     R19
9162	23921	  00047E   POP     R18
9163	23923	  000480   PUSH    R31
9164	23925	  000482   PUSH    R30
9165	23927	  000484   MOV     R31,R19
9166	23928	  000486   MOV     R30,R18
9167	23929	  000488   ADD     R30,R16
9168	23930	  00048A   ADC     R31,R17
9169	23931	  00048C   LSL     R30
9170	23932	  00048E   ROL     R31
9171	23933	  000490   LSL     R18
9172	23934	  000492   ROL     R19
9173	23935	  000494   LPM      R16,Z+
9174	23938	  000496   LPM      R17,Z
9175	23941	  000498   ADD     R18,R16
9176	23942	  00049A   ADC     R19,R17
9177	23943	  00049C   LSR     R19
9178	23944	  00049E   ROR     R18
9179	23945	  0004A0   POP     R30
9180	23947	  0004A2   POP     R31
9181	23949	  0004A4   PUSH    R18
9182	23951	  0004A6   PUSH    R19
9183	23953	  0004A8   LD      R19,Y+
9184	23955	  0004AA   LD      R18,Y+
9185	23957	  0004AC   OUT     SREG,R18
9186	23958	  0004AE   LD      R18,Y+
9187	23960	  0004B0   LD      R16,Y+
9188	23962	  0004B2   LD      R17,Y+
9189	23964	  0004B4   RET
		??ndGVAqyNganqfLwzLimnYEFDENPmv:
9190	23968	  001594   SBCI    R17,0xFF
9191	23969	  001596   CALL    sprintf
		sprintf:
9192	23973	  001E80   CALL    ?PROLOGUE4_L09
		?PROLOGUE4_L09:
9193	23977	  001C50   ST      -Y,R27
		?PROLOGUE3_L09:
9194	23979	  001C52   ST      -Y,R26
		?PROLOGUE2_L09:
9195	23981	  001C54   ST      -Y,R25
		?PROLOGUE1_L09:
9196	23983	  001C56   ST      -Y,R24
9197	23985	  001C58   RET
9198	23989	  001E84   SBIW    R28,4
9199	23991	  001E86   MOVW    R24,R16
9200	23992	  001E88   MOVW    R16,R28
9201	23993	  001E8A   SUBI    R16,0xF8
9202	23994	  001E8C   SBCI    R17,0xFF
9203	23995	  001E8E   STD     Y+2,R16
9204	23997	  001E90   STD     Y+3,R17
9205	23999	  001E92   ST      Y,R24
9206	24001	  001E94   STD     Y+1,R25
9207	24003	  001E96   MOVW    R22,R28
9208	24004	  001E98   SUBI    R22,0xFE
9209	24005	  001E9A   SBCI    R23,0xFF
9210	24006	  001E9C   MOVW    R20,R18
9211	24007	  001E9E   MOVW    R18,R28
9212	24008	  001EA0   LDI     R16,0x80
9213	24009	  001EA2   LDI     R17,0x18
9214	24010	  001EA4   CALL    _PrintfFullNoMb
		_PrintfFullNoMb:
9215	24014	  002BA0   RCALL   0x309A
9216	24017	  00309A   JMP     ?PROLOGUE8_L09
		?PROLOGUE8_L09:
9217	24020	  001C48   ST      -Y,R7
		?PROLOGUE7_L09:
9218	24022	  001C4A   ST      -Y,R6
		?PROLOGUE6_L09:
9219	24024	  001C4C   ST      -Y,R5
		?PROLOGUE5_L09:
9220	24026	  001C4E   ST      -Y,R4
		?PROLOGUE4_L09:
9221	24028	  001C50   ST      -Y,R27
		?PROLOGUE3_L09:
9222	24030	  001C52   ST      -Y,R26
		?PROLOGUE2_L09:
9223	24032	  001C54   ST      -Y,R25
		?PROLOGUE1_L09:
9224	24034	  001C56   ST      -Y,R24
9225	24036	  001C58   RET
9226	24040	  002BA2   SBIW    R28,63
9227	24042	  002BA4   SBIW    R28,32
9228	24044	  002BA6   MOVW    R6,R16
9229	24045	  002BA8   MOVW    R26,R20
9230	24046	  002BAA   MOVW    R4,R22
9231	24047	  002BAC   STD     Y+8,R18
9232	24049	  002BAE   STD     Y+9,R19
9233	24051	  002BB0   LDI     R16,0x00
9234	24052	  002BB2   STD     Y+26,R16
9235	24054	  002BB4   STD     Y+27,R16
9236	24056	  002BB6   LD      R16,X
9237	24058	  002BB8   TST     R16
9238	24059	  002BBA   BRNE    0x2BC2
9239	24061	  002BC2   CPI     R16,0x25
9240	24062	  002BC4   BRNE    0x2BE4
9241	24063	  002BC6   LDI     R16,0x00
9242	24064	  002BC8   STD     Y+14,R16
9243	24066	  002BCA   STD     Y+15,R16
9244	24068	  002BCC   STD     Y+16,R16
9245	24070	  002BCE   STD     Y+17,R16
9246	24072	  002BD0   STD     Y+18,R16
9247	24074	  002BD2   STD     Y+19,R16
9248	24076	  002BD4   STD     Y+20,R16
9249	24078	  002BD6   STD     Y+21,R16
9250	24080	  002BD8   STD     Y+22,R16
9251	24082	  002BDA   STD     Y+23,R16
9252	24084	  002BDC   STD     Y+24,R16
9253	24086	  002BDE   STD     Y+25,R16
9254	24088	  002BE0   RCALL   0x3020
9255	24091	  003020   LDI     R18,0x00
9256	24092	  003022   LDI     R19,0x00
9257	24093	  003024   RET
9258	24097	  002BE2   RJMP    0x2BF0
9259	24099	  002BF0   ADIW    R26,1
9260	24101	  002BF2   LD      R16,X
9261	24103	  002BF4   MOV     R17,R16
9262	24104	  002BF6   SUBI    R17,0x20
9263	24105	  002BF8   BREQ    0x2BEE
9264	24106	  002BFA   SUBI    R17,0x03
9265	24107	  002BFC   BREQ    0x2C14
9266	24108	  002BFE   SUBI    R17,0x08
9267	24109	  002C00   BREQ    0x2C0C
9268	24110	  002C02   SUBI    R17,0x02
9269	24111	  002C04   BREQ    0x2C10
9270	24112	  002C06   SUBI    R17,0x03
9271	24113	  002C08   BREQ    0x2C18
9272	24114	  002C0A   RJMP    0x2C1C
9273	24116	  002C1C   CPI     R16,0x2A
9274	24117	  002C1E   BRNE    0x2C3A
9275	24119	  002C3A   STD     Y+30,R19
9276	24121	  002C3C   STD     Y+31,R19
9277	24123	  002C3E   RJMP    0x2C54
9278	24125	  002C54   RCALL   0x2F4C
9279	24128	  002F4C   LD      R22,X
9280	24130	  002F4E   MOV     R16,R22
9281	24131	  002F50   SUBI    R16,0x30
9282	24132	  002F52   CPI     R16,0x0A
9283	24133	  002F54   RET
9284	24137	  002C56   BRCS    0x2C40
9285	24138	  002C58   LD      R16,X
9286	24140	  002C5A   CPI     R16,0x2E
9287	24141	  002C5C   BREQ    0x2C66
9288	24142	  002C5E   LDI     R16,0xFF
9289	24143	  002C60   STD     Y+28,R16
9290	24145	  002C62   STD     Y+29,R16
9291	24147	  002C64   RJMP    0x2C98
9292	24149	  002C98   STD     Y+32,R18
9293	24151	  002C9A   STD     Y+33,R19
9294	24153	  002C9C   LD      R18,X
9295	24155	  002C9E   LDI     R16,0xE4
9296	24156	  002CA0   LDI     R17,0x01
9297	24157	  002CA2   CALL    __iar_Strchr
		__iar_Strchr:
9298	24161	  001EC4   MOVW    R30,R16
9299	24162	  001EC6   LD      R19,Z+
9300	24164	  001EC8   CP      R19,R18
9301	24165	  001ECA   BREQ    0x1ED6
9302	24166	  001ECC   MOVW    R16,R30
9303	24167	  001ECE   TST     R19
9304	24168	  001ED0   BRNE    __iar_Strchr
		__iar_Strchr:
9305	24170	  001EC4   MOVW    R30,R16
9306	24171	  001EC6   LD      R19,Z+
9307	24173	  001EC8   CP      R19,R18
9308	24174	  001ECA   BREQ    0x1ED6
9309	24175	  001ECC   MOVW    R16,R30
9310	24176	  001ECE   TST     R19
9311	24177	  001ED0   BRNE    __iar_Strchr
		__iar_Strchr:
9312	24179	  001EC4   MOVW    R30,R16
9313	24180	  001EC6   LD      R19,Z+
9314	24182	  001EC8   CP      R19,R18
9315	24183	  001ECA   BREQ    0x1ED6
9316	24184	  001ECC   MOVW    R16,R30
9317	24185	  001ECE   TST     R19
9318	24186	  001ED0   BRNE    __iar_Strchr
		__iar_Strchr:
9319	24188	  001EC4   MOVW    R30,R16
9320	24189	  001EC6   LD      R19,Z+
9321	24191	  001EC8   CP      R19,R18
9322	24192	  001ECA   BREQ    0x1ED6
9323	24193	  001ECC   MOVW    R16,R30
9324	24194	  001ECE   TST     R19
9325	24195	  001ED0   BRNE    __iar_Strchr
		__iar_Strchr:
9326	24197	  001EC4   MOVW    R30,R16
9327	24198	  001EC6   LD      R19,Z+
9328	24200	  001EC8   CP      R19,R18
9329	24201	  001ECA   BREQ    0x1ED6
9330	24202	  001ECC   MOVW    R16,R30
9331	24203	  001ECE   TST     R19
9332	24204	  001ED0   BRNE    __iar_Strchr
		__iar_Strchr:
9333	24206	  001EC4   MOVW    R30,R16
9334	24207	  001EC6   LD      R19,Z+
9335	24209	  001EC8   CP      R19,R18
9336	24210	  001ECA   BREQ    0x1ED6
9337	24211	  001ECC   MOVW    R16,R30
9338	24212	  001ECE   TST     R19
9339	24213	  001ED0   BRNE    __iar_Strchr
		__iar_Strchr:
9340	24215	  001EC4   MOVW    R30,R16
9341	24216	  001EC6   LD      R19,Z+
9342	24218	  001EC8   CP      R19,R18
9343	24219	  001ECA   BREQ    0x1ED6
9344	24220	  001ECC   MOVW    R16,R30
9345	24221	  001ECE   TST     R19
9346	24222	  001ED0   BRNE    __iar_Strchr
9347	24223	  001ED2   LDI     R16,0x00
9348	24224	  001ED4   LDI     R17,0x00
9349	24225	  001ED6   RET
9350	24229	  002CA6   OR      R16,R17
9351	24230	  002CA8   BREQ    0x2CAE
9352	24232	  002CAE   LDI     R16,0x00
9353	24233	  002CB0   STD     Y+34,R16
9354	24235	  002CB2   CPI     R16,0x68
9355	24236	  002CB4   BRNE    0x2CC0
9356	24238	  002CC0   CPI     R16,0x6C
9357	24239	  002CC2   BRNE    0x2CD0
9358	24241	  002CD0   RCALL   0x3062
9359	24244	  003062   MOVW    R16,R28
9360	24245	  003064   SUBI    R16,0xDD
9361	24246	  003066   RJMP    0x2FDC
9362	24248	  002FDC   SBCI    R17,0xFF
9363	24249	  002FDE   RET
9364	24253	  002CD2   STD     Y+12,R16
9365	24255	  002CD4   STD     Y+13,R17
9366	24257	  002CD6   LD      R25,X+
9367	24259	  002CD8   MOV     R16,R25
9368	24260	  002CDA   LDI     R30,0xB6
9369	24261	  002CDC   LDI     R31,0x00
9370	24262	  002CDE   OUT     RAMPZ,R31
9371	24263	  002CE0   LDI     R31,0x00
9372	24264	  002CE2   JMP     ?CV_SWITCH_L06
		?CV_SWITCH_L06:
9373	24267	  001B8A   RCALL   GET_INFO_C
		GET_INFO_C:
9374	24270	  001B7E   ELPM      R20,Z+
9375	24273	  001B80   ELPM      R1,Z+
9376	24276	  001B82   BST     R1,1
9377	24277	  001B84   ELPM      R2,Z+
9378	24280	  001B86   ELPM      R3,Z+
9379	24283	  001B88   RET
9380	24287	  001B8C   SUB     R16,R20
9381	24288	  001B8E   LDI     R17,0x00
9382	24289	  001B90   RJMP    P_0_S
		P_0_S:
9383	24291	  001B98   LDI     R18,0x00
9384	24292	  001B9A   LDI     R19,0x00
9385	24293	  001B9C   RJMP    CHECK_LOW_LIMIT
		CHECK_LOW_LIMIT:
9386	24295	  001B9E   BRCS    0x1BCE
9387	24296	  001BA0   SBRC    R1,0
9388	24297	  001BA2   RJMP    0x1BD2
9389	24299	  001BD2   BRNE    0x1BD8
9390	24301	  001BD8   ADIW    R30,1
9391	24303	  001BDA   BRTS    0x1BDE
9392	24304	  001BDC   ADIW    R30,1
9393	24306	  001BDE   LDI     R21,0x00
9394	24307	  001BE0   LDI     R22,0x00
9395	24308	  001BE2   LDI     R23,0x00
9396	24309	  001BE4   ELPM      R20,Z+
9397	24312	  001BE6   CPI     R20,0xFB
9398	24313	  001BE8   BRCS    0x1BFC
9399	24315	  001BFC   SUB     R16,R20
9400	24316	  001BFE   SBC     R17,R21
9401	24317	  001C00   SBC     R18,R22
9402	24318	  001C02   SBC     R19,R23
9403	24319	  001C04   BREQ    0x1BD4
9404	24320	  001C06   BRCS    0x1BCE
9405	24321	  001C08   RJMP    0x1BD8
9406	24323	  001BD8   ADIW    R30,1
9407	24325	  001BDA   BRTS    0x1BDE
9408	24326	  001BDC   ADIW    R30,1
9409	24328	  001BDE   LDI     R21,0x00
9410	24329	  001BE0   LDI     R22,0x00
9411	24330	  001BE2   LDI     R23,0x00
9412	24331	  001BE4   ELPM      R20,Z+
9413	24334	  001BE6   CPI     R20,0xFB
9414	24335	  001BE8   BRCS    0x1BFC
9415	24337	  001BFC   SUB     R16,R20
9416	24338	  001BFE   SBC     R17,R21
9417	24339	  001C00   SBC     R18,R22
9418	24340	  001C02   SBC     R19,R23
9419	24341	  001C04   BREQ    0x1BD4
9420	24342	  001C06   BRCS    0x1BCE
9421	24343	  001C08   RJMP    0x1BD8
9422	24345	  001BD8   ADIW    R30,1
9423	24347	  001BDA   BRTS    0x1BDE
9424	24348	  001BDC   ADIW    R30,1
9425	24350	  001BDE   LDI     R21,0x00
9426	24351	  001BE0   LDI     R22,0x00
9427	24352	  001BE2   LDI     R23,0x00
9428	24353	  001BE4   ELPM      R20,Z+
9429	24356	  001BE6   CPI     R20,0xFB
9430	24357	  001BE8   BRCS    0x1BFC
9431	24359	  001BFC   SUB     R16,R20
9432	24360	  001BFE   SBC     R17,R21
9433	24361	  001C00   SBC     R18,R22
9434	24362	  001C02   SBC     R19,R23
9435	24363	  001C04   BREQ    0x1BD4
9436	24364	  001C06   BRCS    0x1BCE
9437	24365	  001C08   RJMP    0x1BD8
9438	24367	  001BD8   ADIW    R30,1
9439	24369	  001BDA   BRTS    0x1BDE
9440	24370	  001BDC   ADIW    R30,1
9441	24372	  001BDE   LDI     R21,0x00
9442	24373	  001BE0   LDI     R22,0x00
9443	24374	  001BE2   LDI     R23,0x00
9444	24375	  001BE4   ELPM      R20,Z+
9445	24378	  001BE6   CPI     R20,0xFB
9446	24379	  001BE8   BRCS    0x1BFC
9447	24381	  001BFC   SUB     R16,R20
9448	24382	  001BFE   SBC     R17,R21
9449	24383	  001C00   SBC     R18,R22
9450	24384	  001C02   SBC     R19,R23
9451	24385	  001C04   BREQ    0x1BD4
9452	24386	  001C06   BRCS    0x1BCE
9453	24387	  001C08   RJMP    0x1BD8
9454	24389	  001BD8   ADIW    R30,1
9455	24391	  001BDA   BRTS    0x1BDE
9456	24392	  001BDC   ADIW    R30,1
9457	24394	  001BDE   LDI     R21,0x00
9458	24395	  001BE0   LDI     R22,0x00
9459	24396	  001BE2   LDI     R23,0x00
9460	24397	  001BE4   ELPM      R20,Z+
9461	24400	  001BE6   CPI     R20,0xFB
9462	24401	  001BE8   BRCS    0x1BFC
9463	24403	  001BFC   SUB     R16,R20
9464	24404	  001BFE   SBC     R17,R21
9465	24405	  001C00   SBC     R18,R22
9466	24406	  001C02   SBC     R19,R23
9467	24407	  001C04   BREQ    0x1BD4
9468	24408	  001C06   BRCS    0x1BCE
9469	24409	  001C08   RJMP    0x1BD8
9470	24411	  001BD8   ADIW    R30,1
9471	24413	  001BDA   BRTS    0x1BDE
9472	24414	  001BDC   ADIW    R30,1
9473	24416	  001BDE   LDI     R21,0x00
9474	24417	  001BE0   LDI     R22,0x00
9475	24418	  001BE2   LDI     R23,0x00
9476	24419	  001BE4   ELPM      R20,Z+
9477	24422	  001BE6   CPI     R20,0xFB
9478	24423	  001BE8   BRCS    0x1BFC
9479	24425	  001BFC   SUB     R16,R20
9480	24426	  001BFE   SBC     R17,R21
9481	24427	  001C00   SBC     R18,R22
9482	24428	  001C02   SBC     R19,R23
9483	24429	  001C04   BREQ    0x1BD4
9484	24430	  001C06   BRCS    0x1BCE
9485	24431	  001C08   RJMP    0x1BD8
9486	24433	  001BD8   ADIW    R30,1
9487	24435	  001BDA   BRTS    0x1BDE
9488	24436	  001BDC   ADIW    R30,1
9489	24438	  001BDE   LDI     R21,0x00
9490	24439	  001BE0   LDI     R22,0x00
9491	24440	  001BE2   LDI     R23,0x00
9492	24441	  001BE4   ELPM      R20,Z+
9493	24444	  001BE6   CPI     R20,0xFB
9494	24445	  001BE8   BRCS    0x1BFC
9495	24447	  001BFC   SUB     R16,R20
9496	24448	  001BFE   SBC     R17,R21
9497	24449	  001C00   SBC     R18,R22
9498	24450	  001C02   SBC     R19,R23
9499	24451	  001C04   BREQ    0x1BD4
9500	24452	  001C06   BRCS    0x1BCE
9501	24453	  001C08   RJMP    0x1BD8
9502	24455	  001BD8   ADIW    R30,1
9503	24457	  001BDA   BRTS    0x1BDE
9504	24458	  001BDC   ADIW    R30,1
9505	24460	  001BDE   LDI     R21,0x00
9506	24461	  001BE0   LDI     R22,0x00
9507	24462	  001BE2   LDI     R23,0x00
9508	24463	  001BE4   ELPM      R20,Z+
9509	24466	  001BE6   CPI     R20,0xFB
9510	24467	  001BE8   BRCS    0x1BFC
9511	24469	  001BFC   SUB     R16,R20
9512	24470	  001BFE   SBC     R17,R21
9513	24471	  001C00   SBC     R18,R22
9514	24472	  001C02   SBC     R19,R23
9515	24473	  001C04   BREQ    0x1BD4
9516	24474	  001C06   BRCS    0x1BCE
9517	24475	  001C08   RJMP    0x1BD8
9518	24477	  001BD8   ADIW    R30,1
9519	24479	  001BDA   BRTS    0x1BDE
9520	24480	  001BDC   ADIW    R30,1
9521	24482	  001BDE   LDI     R21,0x00
9522	24483	  001BE0   LDI     R22,0x00
9523	24484	  001BE2   LDI     R23,0x00
9524	24485	  001BE4   ELPM      R20,Z+
9525	24488	  001BE6   CPI     R20,0xFB
9526	24489	  001BE8   BRCS    0x1BFC
9527	24491	  001BFC   SUB     R16,R20
9528	24492	  001BFE   SBC     R17,R21
9529	24493	  001C00   SBC     R18,R22
9530	24494	  001C02   SBC     R19,R23
9531	24495	  001C04   BREQ    0x1BD4
9532	24496	  001C06   BRCS    0x1BCE
9533	24497	  001C08   RJMP    0x1BD8
9534	24499	  001BD8   ADIW    R30,1
9535	24501	  001BDA   BRTS    0x1BDE
9536	24502	  001BDC   ADIW    R30,1
9537	24504	  001BDE   LDI     R21,0x00
9538	24505	  001BE0   LDI     R22,0x00
9539	24506	  001BE2   LDI     R23,0x00
9540	24507	  001BE4   ELPM      R20,Z+
9541	24510	  001BE6   CPI     R20,0xFB
9542	24511	  001BE8   BRCS    0x1BFC
9543	24513	  001BFC   SUB     R16,R20
9544	24514	  001BFE   SBC     R17,R21
9545	24515	  001C00   SBC     R18,R22
9546	24516	  001C02   SBC     R19,R23
9547	24517	  001C04   BREQ    0x1BD4
9548	24518	  001C06   BRCS    0x1BCE
9549	24519	  001C08   RJMP    0x1BD8
9550	24521	  001BD8   ADIW    R30,1
9551	24523	  001BDA   BRTS    0x1BDE
9552	24524	  001BDC   ADIW    R30,1
9553	24526	  001BDE   LDI     R21,0x00
9554	24527	  001BE0   LDI     R22,0x00
9555	24528	  001BE2   LDI     R23,0x00
9556	24529	  001BE4   ELPM      R20,Z+
9557	24532	  001BE6   CPI     R20,0xFB
9558	24533	  001BE8   BRCS    0x1BFC
9559	24535	  001BFC   SUB     R16,R20
9560	24536	  001BFE   SBC     R17,R21
9561	24537	  001C00   SBC     R18,R22
9562	24538	  001C02   SBC     R19,R23
9563	24539	  001C04   BREQ    0x1BD4
9564	24540	  001C06   BRCS    0x1BCE
9565	24541	  001C08   RJMP    0x1BD8
9566	24543	  001BD8   ADIW    R30,1
9567	24545	  001BDA   BRTS    0x1BDE
9568	24546	  001BDC   ADIW    R30,1
9569	24548	  001BDE   LDI     R21,0x00
9570	24549	  001BE0   LDI     R22,0x00
9571	24550	  001BE2   LDI     R23,0x00
9572	24551	  001BE4   ELPM      R20,Z+
9573	24554	  001BE6   CPI     R20,0xFB
9574	24555	  001BE8   BRCS    0x1BFC
9575	24557	  001BFC   SUB     R16,R20
9576	24558	  001BFE   SBC     R17,R21
9577	24559	  001C00   SBC     R18,R22
9578	24560	  001C02   SBC     R19,R23
9579	24561	  001C04   BREQ    0x1BD4
9580	24562	  001C06   BRCS    0x1BCE
9581	24563	  001C08   RJMP    0x1BD8
9582	24565	  001BD8   ADIW    R30,1
9583	24567	  001BDA   BRTS    0x1BDE
9584	24568	  001BDC   ADIW    R30,1
9585	24570	  001BDE   LDI     R21,0x00
9586	24571	  001BE0   LDI     R22,0x00
9587	24572	  001BE2   LDI     R23,0x00
9588	24573	  001BE4   ELPM      R20,Z+
9589	24576	  001BE6   CPI     R20,0xFB
9590	24577	  001BE8   BRCS    0x1BFC
9591	24579	  001BFC   SUB     R16,R20
9592	24580	  001BFE   SBC     R17,R21
9593	24581	  001C00   SBC     R18,R22
9594	24582	  001C02   SBC     R19,R23
9595	24583	  001C04   BREQ    0x1BD4
9596	24584	  001C06   BRCS    0x1BCE
9597	24585	  001C08   RJMP    0x1BD8
9598	24587	  001BD8   ADIW    R30,1
9599	24589	  001BDA   BRTS    0x1BDE
9600	24590	  001BDC   ADIW    R30,1
9601	24592	  001BDE   LDI     R21,0x00
9602	24593	  001BE0   LDI     R22,0x00
9603	24594	  001BE2   LDI     R23,0x00
9604	24595	  001BE4   ELPM      R20,Z+
9605	24598	  001BE6   CPI     R20,0xFB
9606	24599	  001BE8   BRCS    0x1BFC
9607	24601	  001BFC   SUB     R16,R20
9608	24602	  001BFE   SBC     R17,R21
9609	24603	  001C00   SBC     R18,R22
9610	24604	  001C02   SBC     R19,R23
9611	24605	  001C04   BREQ    0x1BD4
9612	24606	  001C06   BRCS    0x1BCE
9613	24607	  001C08   RJMP    0x1BD8
9614	24609	  001BD8   ADIW    R30,1
9615	24611	  001BDA   BRTS    0x1BDE
9616	24612	  001BDC   ADIW    R30,1
9617	24614	  001BDE   LDI     R21,0x00
9618	24615	  001BE0   LDI     R22,0x00
9619	24616	  001BE2   LDI     R23,0x00
9620	24617	  001BE4   ELPM      R20,Z+
9621	24620	  001BE6   CPI     R20,0xFB
9622	24621	  001BE8   BRCS    0x1BFC
9623	24623	  001BFC   SUB     R16,R20
9624	24624	  001BFE   SBC     R17,R21
9625	24625	  001C00   SBC     R18,R22
9626	24626	  001C02   SBC     R19,R23
9627	24627	  001C04   BREQ    0x1BD4
9628	24628	  001C06   BRCS    0x1BCE
9629	24629	  001C08   RJMP    0x1BD8
9630	24631	  001BD8   ADIW    R30,1
9631	24633	  001BDA   BRTS    0x1BDE
9632	24634	  001BDC   ADIW    R30,1
9633	24636	  001BDE   LDI     R21,0x00
9634	24637	  001BE0   LDI     R22,0x00
9635	24638	  001BE2   LDI     R23,0x00
9636	24639	  001BE4   ELPM      R20,Z+
9637	24642	  001BE6   CPI     R20,0xFB
9638	24643	  001BE8   BRCS    0x1BFC
9639	24645	  001BFC   SUB     R16,R20
9640	24646	  001BFE   SBC     R17,R21
9641	24647	  001C00   SBC     R18,R22
9642	24648	  001C02   SBC     R19,R23
9643	24649	  001C04   BREQ    0x1BD4
9644	24651	  001BD4   BRTC    0x1BCA
9645	24653	  001BCA   ELPM      R2,Z+
9646	24656	  001BCC   ELPM      R3,Z+
9647	24659	  001BCE   MOVW    R30,R2
9648	24660	  001BD0   IJMP
9649	24662	  002CEA   RCALL   0x3008
9650	24665	  003008   RCALL   0x2F64
9651	24668	  002F64   RCALL   0x2F6A
9652	24671	  002F6A   MOVW    R30,R4
9653	24672	  002F6C   LD      R16,Z
9654	24674	  002F6E   LDD     R17,Z+1
9655	24676	  002F70   RET
9656	24680	  002F66   MOVW    R18,R16
9657	24681	  002F68   RET
9658	24685	  00300A   RCALL   0x2F96
9659	24688	  002F96   SUBI    R18,0xFE
9660	24689	  002F98   SBCI    R19,0xFF
9661	24690	  002F9A   ST      Z,R18
9662	24692	  002F9C   STD     Z+1,R19
9663	24694	  002F9E   RET
9664	24698	  00300C   MOVW    R30,R16
9665	24699	  00300E   RJMP    0x2F6C
9666	24701	  002F6C   LD      R16,Z
9667	24703	  002F6E   LDD     R17,Z+1
9668	24705	  002F70   RET
9669	24709	  002CEC   STD     Y+10,R16
9670	24711	  002CEE   STD     Y+11,R17
9671	24713	  002CF0   LDD     R17,Y+29
9672	24715	  002CF2   TST     R17
9673	24716	  002CF4   BRPL    0x2D00
9674	24717	  002CF6   LDD     R16,Y+10
9675	24719	  002CF8   LDD     R17,Y+11
9676	24721	  002CFA   CALL    strlen
		strlen:
9677	24725	  001ED8   MOVW    R30,R16
9678	24726	  001EDA   RJMP    0x1EDE
9679	24728	  001EDE   LD      R18,Z
9680	24730	  001EE0   TST     R18
9681	24731	  001EE2   BRNE    0x1EDC
9682	24733	  001EDC   ADIW    R30,1
9683	24735	  001EDE   LD      R18,Z
9684	24737	  001EE0   TST     R18
9685	24738	  001EE2   BRNE    0x1EDC
9686	24740	  001EDC   ADIW    R30,1
9687	24742	  001EDE   LD      R18,Z
9688	24744	  001EE0   TST     R18
9689	24745	  001EE2   BRNE    0x1EDC
9690	24746	  001EE4   SUB     R30,R16
9691	24747	  001EE6   SBC     R31,R17
9692	24748	  001EE8   MOVW    R16,R30
9693	24749	  001EEA   RET
9694	24753	  002CFE   RJMP    0x2D22
9695	24755	  002D22   STD     Y+16,R16
9696	24757	  002D24   STD     Y+17,R17
9697	24759	  002D26   RJMP    0x2EAE
9698	24761	  002EAE   LDD     R24,Y+30
9699	24763	  002EB0   LDD     R25,Y+31
9700	24765	  002EB2   LDD     R16,Y+14
9701	24767	  002EB4   LDD     R17,Y+15
9702	24769	  002EB6   RCALL   0x2F46
9703	24772	  002F46   SUB     R24,R16
9704	24773	  002F48   SBC     R25,R17
9705	24774	  002F4A   RET
9706	24778	  002EB8   LDD     R16,Y+20
9707	24780	  002EBA   LDD     R17,Y+21
9708	24782	  002EBC   RCALL   0x2F46
9709	24785	  002F46   SUB     R24,R16
9710	24786	  002F48   SBC     R25,R17
9711	24787	  002F4A   RET
9712	24791	  002EBE   LDD     R16,Y+16
9713	24793	  002EC0   LDD     R17,Y+17
9714	24795	  002EC2   RCALL   0x2F46
9715	24798	  002F46   SUB     R24,R16
9716	24799	  002F48   SBC     R25,R17
9717	24800	  002F4A   RET
9718	24804	  002EC4   LDD     R16,Y+22
9719	24806	  002EC6   LDD     R17,Y+23
9720	24808	  002EC8   RCALL   0x2F46
9721	24811	  002F46   SUB     R24,R16
9722	24812	  002F48   SBC     R25,R17
9723	24813	  002F4A   RET
9724	24817	  002ECA   LDD     R16,Y+18
9725	24819	  002ECC   LDD     R17,Y+19
9726	24821	  002ECE   RCALL   0x2F46
9727	24824	  002F46   SUB     R24,R16
9728	24825	  002F48   SBC     R25,R17
9729	24826	  002F4A   RET
9730	24830	  002ED0   LDD     R16,Y+24
9731	24832	  002ED2   LDD     R17,Y+25
9732	24834	  002ED4   RCALL   0x2F46
9733	24837	  002F46   SUB     R24,R16
9734	24838	  002F48   SBC     R25,R17
9735	24839	  002F4A   RET
9736	24843	  002ED6   LDD     R16,Y+32
9737	24845	  002ED8   SBRC    R16,2
9738	24847	  002EDC   RCALL   0x2FE0
9739	24850	  002FE0   LDI     R22,0x20
9740	24851	  002FE2   MOVW    R20,R24
9741	24852	  002FE4   MOVW    R18,R28
9742	24853	  002FE6   MOVW    R16,R6
9743	24854	  002FE8   RCALL   pad
		pad:
9744	24857	  003068   RCALL   0x309A
9745	24860	  00309A   JMP     ?PROLOGUE8_L09
		?PROLOGUE8_L09:
9746	24863	  001C48   ST      -Y,R7
		?PROLOGUE7_L09:
9747	24865	  001C4A   ST      -Y,R6
		?PROLOGUE6_L09:
9748	24867	  001C4C   ST      -Y,R5
		?PROLOGUE5_L09:
9749	24869	  001C4E   ST      -Y,R4
		?PROLOGUE4_L09:
9750	24871	  001C50   ST      -Y,R27
		?PROLOGUE3_L09:
9751	24873	  001C52   ST      -Y,R26
		?PROLOGUE2_L09:
9752	24875	  001C54   ST      -Y,R25
		?PROLOGUE1_L09:
9753	24877	  001C56   ST      -Y,R24
9754	24879	  001C58   RET
9755	24883	  00306A   SBIW    R28,1
9756	24885	  00306C   ST      Y,R22
9757	24887	  00306E   MOVW    R6,R16
9758	24888	  003070   MOVW    R4,R18
9759	24889	  003072   MOVW    R26,R20
9760	24890	  003074   LDI     R24,0x00
9761	24891	  003076   LDI     R25,0x00
9762	24892	  003078   RJMP    0x307C
9763	24894	  00307C   CP      R24,R26
9764	24895	  00307E   CPC     R25,R27
9765	24896	  003080   BRGE    0x3092
9766	24898	  003092   LDI     R16,0x01
9767	24899	  003094   LDI     R17,0x00
9768	24900	  003096   ADIW    R28,1
9769	24902	  003098   RJMP    0x2F40
9770	24904	  002F40   LDI     R30,0x08
9771	24905	  002F42   JMP     ?EPILOGUE_B8_L09
		?EPILOGUE_B8_L09:
9772	24908	  001C6A   LDD     R7,Y+7
		?EPILOGUE_B7_L09:
9773	24910	  001C6C   LDD     R6,Y+6
		?EPILOGUE_B6_L09:
9774	24912	  001C6E   LDD     R5,Y+5
		?EPILOGUE_B5_L09:
9775	24914	  001C70   LDD     R4,Y+4
		?EPILOGUE_B4_L09:
9776	24916	  001C72   LDD     R27,Y+3
		?EPILOGUE_B3_L09:
9777	24918	  001C74   LDD     R26,Y+2
		?EPILOGUE_B2_L09:
9778	24920	  001C76   LDD     R25,Y+1
		?EPILOGUE_B1_L09:
9779	24922	  001C78   LD      R24,Y
		?EPILOGUE_B0_L09:
9780	24924	  001C7A   LDI     R31,0x00
9781	24925	  001C7C   ADD     R30,R28
9782	24926	  001C7E   ADC     R31,R29
9783	24927	  001C80   MOVW    R28,R30
9784	24928	  001C82   RET
9785	24932	  002FEA   RJMP    0x2F5C
9786	24934	  002F5C   OR      R16,R17
9787	24935	  002F5E   RET
9788	24939	  002EDE   BREQ    0x2F38
9789	24940	  002EE0   LDD     R22,Y+14
9790	24942	  002EE2   LDD     R23,Y+15
9791	24944	  002EE4   MOVW    R20,R28
9792	24945	  002EE6   SUBI    R20,0xDD
9793	24946	  002EE8   SBCI    R21,0xFF
9794	24947	  002EEA   RCALL   0x2F56
9795	24950	  002F56   MOVW    R18,R28
9796	24951	  002F58   MOVW    R16,R6
9797	24952	  002F5A   RCALL   _PutcharsFullNoMb
		_PutcharsFullNoMb:
9798	24955	  0030D6   RCALL   0x309A
9799	24958	  00309A   JMP     ?PROLOGUE8_L09
		?PROLOGUE8_L09:
9800	24961	  001C48   ST      -Y,R7
		?PROLOGUE7_L09:
9801	24963	  001C4A   ST      -Y,R6
		?PROLOGUE6_L09:
9802	24965	  001C4C   ST      -Y,R5
		?PROLOGUE5_L09:
9803	24967	  001C4E   ST      -Y,R4
		?PROLOGUE4_L09:
9804	24969	  001C50   ST      -Y,R27
		?PROLOGUE3_L09:
9805	24971	  001C52   ST      -Y,R26
		?PROLOGUE2_L09:
9806	24973	  001C54   ST      -Y,R25
		?PROLOGUE1_L09:
9807	24975	  001C56   ST      -Y,R24
9808	24977	  001C58   RET
9809	24981	  0030D8   MOVW    R6,R16
9810	24982	  0030DA   MOVW    R4,R18
9811	24983	  0030DC   MOVW    R26,R20
9812	24984	  0030DE   MOVW    R24,R22
9813	24985	  0030E0   LDI     R16,0x00
9814	24986	  0030E2   LDI     R17,0x00
9815	24987	  0030E4   RJMP    0x30E8
9816	24989	  0030E8   MOV     R18,R24
9817	24990	  0030EA   OR      R18,R25
9818	24991	  0030EC   BREQ    0x30F6
9819	24993	  0030F6   RJMP    0x2F40
9820	24995	  002F40   LDI     R30,0x08
9821	24996	  002F42   JMP     ?EPILOGUE_B8_L09
		?EPILOGUE_B8_L09:
9822	24999	  001C6A   LDD     R7,Y+7
		?EPILOGUE_B7_L09:
9823	25001	  001C6C   LDD     R6,Y+6
		?EPILOGUE_B6_L09:
9824	25003	  001C6E   LDD     R5,Y+5
		?EPILOGUE_B5_L09:
9825	25005	  001C70   LDD     R4,Y+4
		?EPILOGUE_B4_L09:
9826	25007	  001C72   LDD     R27,Y+3
		?EPILOGUE_B3_L09:
9827	25009	  001C74   LDD     R26,Y+2
		?EPILOGUE_B2_L09:
9828	25011	  001C76   LDD     R25,Y+1
		?EPILOGUE_B1_L09:
9829	25013	  001C78   LD      R24,Y
		?EPILOGUE_B0_L09:
9830	25015	  001C7A   LDI     R31,0x00
9831	25016	  001C7C   ADD     R30,R28
9832	25017	  001C7E   ADC     R31,R29
9833	25018	  001C80   MOVW    R28,R30
9834	25019	  001C82   RET
9835	25023	  002F5C   OR      R16,R17
9836	25024	  002F5E   RET
9837	25028	  002EEC   BRNE    0x2F38
9838	25029	  002EEE   LDI     R22,0x30
9839	25030	  002EF0   LDD     R20,Y+20
9840	25032	  002EF2   LDD     R21,Y+21
9841	25034	  002EF4   RCALL   0x2FE4
9842	25037	  002FE4   MOVW    R18,R28
9843	25038	  002FE6   MOVW    R16,R6
9844	25039	  002FE8   RCALL   pad
		pad:
9845	25042	  003068   RCALL   0x309A
9846	25045	  00309A   JMP     ?PROLOGUE8_L09
		?PROLOGUE8_L09:
9847	25048	  001C48   ST      -Y,R7
		?PROLOGUE7_L09:
9848	25050	  001C4A   ST      -Y,R6
		?PROLOGUE6_L09:
9849	25052	  001C4C   ST      -Y,R5
		?PROLOGUE5_L09:
9850	25054	  001C4E   ST      -Y,R4
		?PROLOGUE4_L09:
9851	25056	  001C50   ST      -Y,R27
		?PROLOGUE3_L09:
9852	25058	  001C52   ST      -Y,R26
		?PROLOGUE2_L09:
9853	25060	  001C54   ST      -Y,R25
		?PROLOGUE1_L09:
9854	25062	  001C56   ST      -Y,R24
9855	25064	  001C58   RET
9856	25068	  00306A   SBIW    R28,1
9857	25070	  00306C   ST      Y,R22
9858	25072	  00306E   MOVW    R6,R16
9859	25073	  003070   MOVW    R4,R18
9860	25074	  003072   MOVW    R26,R20
9861	25075	  003074   LDI     R24,0x00
9862	25076	  003076   LDI     R25,0x00
9863	25077	  003078   RJMP    0x307C
9864	25079	  00307C   CP      R24,R26
9865	25080	  00307E   CPC     R25,R27
9866	25081	  003080   BRGE    0x3092
9867	25083	  003092   LDI     R16,0x01
9868	25084	  003094   LDI     R17,0x00
9869	25085	  003096   ADIW    R28,1
9870	25087	  003098   RJMP    0x2F40
9871	25089	  002F40   LDI     R30,0x08
9872	25090	  002F42   JMP     ?EPILOGUE_B8_L09
		?EPILOGUE_B8_L09:
9873	25093	  001C6A   LDD     R7,Y+7
		?EPILOGUE_B7_L09:
9874	25095	  001C6C   LDD     R6,Y+6
		?EPILOGUE_B6_L09:
9875	25097	  001C6E   LDD     R5,Y+5
		?EPILOGUE_B5_L09:
9876	25099	  001C70   LDD     R4,Y+4
		?EPILOGUE_B4_L09:
9877	25101	  001C72   LDD     R27,Y+3
		?EPILOGUE_B3_L09:
9878	25103	  001C74   LDD     R26,Y+2
		?EPILOGUE_B2_L09:
9879	25105	  001C76   LDD     R25,Y+1
		?EPILOGUE_B1_L09:
9880	25107	  001C78   LD      R24,Y
		?EPILOGUE_B0_L09:
9881	25109	  001C7A   LDI     R31,0x00
9882	25110	  001C7C   ADD     R30,R28
9883	25111	  001C7E   ADC     R31,R29
9884	25112	  001C80   MOVW    R28,R30
9885	25113	  001C82   RET
9886	25117	  002FEA   RJMP    0x2F5C
9887	25119	  002F5C   OR      R16,R17
9888	25120	  002F5E   RET
9889	25124	  002EF6   BREQ    0x2F38
9890	25125	  002EF8   LDD     R22,Y+16
9891	25127	  002EFA   LDD     R23,Y+17
9892	25129	  002EFC   LDD     R20,Y+10
9893	25131	  002EFE   LDD     R21,Y+11
9894	25133	  002F00   RCALL   0x2F56
9895	25136	  002F56   MOVW    R18,R28
9896	25137	  002F58   MOVW    R16,R6
9897	25138	  002F5A   RCALL   _PutcharsFullNoMb
		_PutcharsFullNoMb:
9898	25141	  0030D6   RCALL   0x309A
9899	25144	  00309A   JMP     ?PROLOGUE8_L09
		?PROLOGUE8_L09:
9900	25147	  001C48   ST      -Y,R7
		?PROLOGUE7_L09:
9901	25149	  001C4A   ST      -Y,R6
		?PROLOGUE6_L09:
9902	25151	  001C4C   ST      -Y,R5
		?PROLOGUE5_L09:
9903	25153	  001C4E   ST      -Y,R4
		?PROLOGUE4_L09:
9904	25155	  001C50   ST      -Y,R27
		?PROLOGUE3_L09:
9905	25157	  001C52   ST      -Y,R26
		?PROLOGUE2_L09:
9906	25159	  001C54   ST      -Y,R25
		?PROLOGUE1_L09:
9907	25161	  001C56   ST      -Y,R24
9908	25163	  001C58   RET
9909	25167	  0030D8   MOVW    R6,R16
9910	25168	  0030DA   MOVW    R4,R18
9911	25169	  0030DC   MOVW    R26,R20
9912	25170	  0030DE   MOVW    R24,R22
9913	25171	  0030E0   LDI     R16,0x00
9914	25172	  0030E2   LDI     R17,0x00
9915	25173	  0030E4   RJMP    0x30E8
9916	25175	  0030E8   MOV     R18,R24
9917	25176	  0030EA   OR      R18,R25
9918	25177	  0030EC   BREQ    0x30F6
9919	25178	  0030EE   LD      R20,X+
9920	25180	  0030F0   MOVW    R18,R4
9921	25181	  0030F2   RCALL   0x30F8
9922	25184	  0030F8   MOVW    R16,R6
9923	25185	  0030FA   RCALL   _PutcharFullNoMb
		_PutcharFullNoMb:
9924	25188	  00309E   ST      -Y,R27
9925	25190	  0030A0   ST      -Y,R26
9926	25192	  0030A2   MOVW    R30,R16
9927	25193	  0030A4   MOVW    R26,R18
9928	25194	  0030A6   MOV     R18,R20
9929	25195	  0030A8   ADIW    R26,8
9930	25197	  0030AA   LD      R16,X+
9931	25199	  0030AC   LD      R17,X
9932	25201	  0030AE   SBIW    R26,9
9933	25203	  0030B0   ICALL
		_SProut:
9934	25206	  003100   MOV     R19,R27
9935	25207	  003102   MOV     R22,R26
9936	25208	  003104   MOVW    R30,R16
9937	25209	  003106   LD      R26,Z
9938	25211	  003108   LDD     R27,Z+1
9939	25213	  00310A   MOVW    R20,R26
9940	25214	  00310C   SUBI    R20,0xFF
9941	25215	  00310E   SBCI    R21,0xFF
9942	25216	  003110   ST      Z,R20
9943	25218	  003112   STD     Z+1,R21
9944	25220	  003114   ST      X,R18
9945	25222	  003116   MOV     R26,R22
9946	25223	  003118   MOV     R27,R19
9947	25224	  00311A   RET
9948	25228	  0030B2   MOVW    R30,R26
9949	25229	  0030B4   STD     Z+8,R16
9950	25231	  0030B6   STD     Z+9,R17
9951	25233	  0030B8   OR      R16,R17
9952	25234	  0030BA   BREQ    0x30CC
9953	25235	  0030BC   LDD     R16,Z+26
9954	25237	  0030BE   LDD     R17,Z+27
9955	25239	  0030C0   RCALL   0x2FDA
9956	25242	  002FDA   SUBI    R16,0xFF
9957	25243	  002FDC   SBCI    R17,0xFF
9958	25244	  002FDE   RET
9959	25248	  0030C2   STD     Z+26,R16
9960	25250	  0030C4   STD     Z+27,R17
9961	25252	  0030C6   LDI     R16,0x00
9962	25253	  0030C8   LDI     R17,0x00
9963	25254	  0030CA   RJMP    0x30D0
9964	25256	  0030D0   LD      R26,Y+
9965	25258	  0030D2   LD      R27,Y+
9966	25260	  0030D4   RET
9967	25264	  0030FC   TST     R17
9968	25265	  0030FE   RET
9969	25269	  0030F4   BRPL    0x30E6
9970	25271	  0030E6   SBIW    R24,1
9971	25273	  0030E8   MOV     R18,R24
9972	25274	  0030EA   OR      R18,R25
9973	25275	  0030EC   BREQ    0x30F6
9974	25276	  0030EE   LD      R20,X+
9975	25278	  0030F0   MOVW    R18,R4
9976	25279	  0030F2   RCALL   0x30F8
9977	25282	  0030F8   MOVW    R16,R6
9978	25283	  0030FA   RCALL   _PutcharFullNoMb
		_PutcharFullNoMb:
9979	25286	  00309E   ST      -Y,R27
9980	25288	  0030A0   ST      -Y,R26
9981	25290	  0030A2   MOVW    R30,R16
9982	25291	  0030A4   MOVW    R26,R18
9983	25292	  0030A6   MOV     R18,R20
9984	25293	  0030A8   ADIW    R26,8
9985	25295	  0030AA   LD      R16,X+
9986	25297	  0030AC   LD      R17,X
9987	25299	  0030AE   SBIW    R26,9
9988	25301	  0030B0   ICALL
		_SProut:
9989	25304	  003100   MOV     R19,R27
9990	25305	  003102   MOV     R22,R26
9991	25306	  003104   MOVW    R30,R16
9992	25307	  003106   LD      R26,Z
9993	25309	  003108   LDD     R27,Z+1
9994	25311	  00310A   MOVW    R20,R26
9995	25312	  00310C   SUBI    R20,0xFF
9996	25313	  00310E   SBCI    R21,0xFF
9997	25314	  003110   ST      Z,R20
9998	25316	  003112   STD     Z+1,R21
9999	25318	  003114   ST      X,R18
10000	25320	  003116   MOV     R26,R22
10001	25321	  003118   MOV     R27,R19
10002	25322	  00311A   RET
10003	25326	  0030B2   MOVW    R30,R26
10004	25327	  0030B4   STD     Z+8,R16
10005	25329	  0030B6   STD     Z+9,R17
10006	25331	  0030B8   OR      R16,R17
10007	25332	  0030BA   BREQ    0x30CC
10008	25333	  0030BC   LDD     R16,Z+26
10009	25335	  0030BE   LDD     R17,Z+27
10010	25337	  0030C0   RCALL   0x2FDA
10011	25340	  002FDA   SUBI    R16,0xFF
10012	25341	  002FDC   SBCI    R17,0xFF
10013	25342	  002FDE   RET
10014	25346	  0030C2   STD     Z+26,R16
10015	25348	  0030C4   STD     Z+27,R17
10016	25350	  0030C6   LDI     R16,0x00
10017	25351	  0030C8   LDI     R17,0x00
10018	25352	  0030CA   RJMP    0x30D0
10019	25354	  0030D0   LD      R26,Y+
10020	25356	  0030D2   LD      R27,Y+
10021	25358	  0030D4   RET
10022	25362	  0030FC   TST     R17
10023	25363	  0030FE   RET
10024	25367	  0030F4   BRPL    0x30E6
10025	25369	  0030E6   SBIW    R24,1
10026	25371	  0030E8   MOV     R18,R24
10027	25372	  0030EA   OR      R18,R25
10028	25373	  0030EC   BREQ    0x30F6
10029	25375	  0030F6   RJMP    0x2F40
10030	25377	  002F40   LDI     R30,0x08
10031	25378	  002F42   JMP     ?EPILOGUE_B8_L09
		?EPILOGUE_B8_L09:
10032	25381	  001C6A   LDD     R7,Y+7
		?EPILOGUE_B7_L09:
10033	25383	  001C6C   LDD     R6,Y+6
		?EPILOGUE_B6_L09:
10034	25385	  001C6E   LDD     R5,Y+5
		?EPILOGUE_B5_L09:
10035	25387	  001C70   LDD     R4,Y+4
		?EPILOGUE_B4_L09:
10036	25389	  001C72   LDD     R27,Y+3
		?EPILOGUE_B3_L09:
10037	25391	  001C74   LDD     R26,Y+2
		?EPILOGUE_B2_L09:
10038	25393	  001C76   LDD     R25,Y+1
		?EPILOGUE_B1_L09:
10039	25395	  001C78   LD      R24,Y
		?EPILOGUE_B0_L09:
10040	25397	  001C7A   LDI     R31,0x00
10041	25398	  001C7C   ADD     R30,R28
10042	25399	  001C7E   ADC     R31,R29
10043	25400	  001C80   MOVW    R28,R30
10044	25401	  001C82   RET
10045	25405	  002F5C   OR      R16,R17
10046	25406	  002F5E   RET
10047	25410	  002F02   BRNE    0x2F38
10048	25411	  002F04   LDI     R22,0x30
10049	25412	  002F06   LDD     R20,Y+22
10050	25414	  002F08   LDD     R21,Y+23
10051	25416	  002F0A   RCALL   0x2FE4
10052	25419	  002FE4   MOVW    R18,R28
10053	25420	  002FE6   MOVW    R16,R6
10054	25421	  002FE8   RCALL   pad
		pad:
10055	25424	  003068   RCALL   0x309A
10056	25427	  00309A   JMP     ?PROLOGUE8_L09
		?PROLOGUE8_L09:
10057	25430	  001C48   ST      -Y,R7
		?PROLOGUE7_L09:
10058	25432	  001C4A   ST      -Y,R6
		?PROLOGUE6_L09:
10059	25434	  001C4C   ST      -Y,R5
		?PROLOGUE5_L09:
10060	25436	  001C4E   ST      -Y,R4
		?PROLOGUE4_L09:
10061	25438	  001C50   ST      -Y,R27
		?PROLOGUE3_L09:
10062	25440	  001C52   ST      -Y,R26
		?PROLOGUE2_L09:
10063	25442	  001C54   ST      -Y,R25
		?PROLOGUE1_L09:
10064	25444	  001C56   ST      -Y,R24
10065	25446	  001C58   RET
10066	25450	  00306A   SBIW    R28,1
10067	25452	  00306C   ST      Y,R22
10068	25454	  00306E   MOVW    R6,R16
10069	25455	  003070   MOVW    R4,R18
10070	25456	  003072   MOVW    R26,R20
10071	25457	  003074   LDI     R24,0x00
10072	25458	  003076   LDI     R25,0x00
10073	25459	  003078   RJMP    0x307C
10074	25461	  00307C   CP      R24,R26
10075	25462	  00307E   CPC     R25,R27
10076	25463	  003080   BRGE    0x3092
10077	25465	  003092   LDI     R16,0x01
10078	25466	  003094   LDI     R17,0x00
10079	25467	  003096   ADIW    R28,1
10080	25469	  003098   RJMP    0x2F40
10081	25471	  002F40   LDI     R30,0x08
10082	25472	  002F42   JMP     ?EPILOGUE_B8_L09
		?EPILOGUE_B8_L09:
10083	25475	  001C6A   LDD     R7,Y+7
		?EPILOGUE_B7_L09:
10084	25477	  001C6C   LDD     R6,Y+6
		?EPILOGUE_B6_L09:
10085	25479	  001C6E   LDD     R5,Y+5
		?EPILOGUE_B5_L09:
10086	25481	  001C70   LDD     R4,Y+4
		?EPILOGUE_B4_L09:
10087	25483	  001C72   LDD     R27,Y+3
		?EPILOGUE_B3_L09:
10088	25485	  001C74   LDD     R26,Y+2
		?EPILOGUE_B2_L09:
10089	25487	  001C76   LDD     R25,Y+1
		?EPILOGUE_B1_L09:
10090	25489	  001C78   LD      R24,Y
		?EPILOGUE_B0_L09:
10091	25491	  001C7A   LDI     R31,0x00
10092	25492	  001C7C   ADD     R30,R28
10093	25493	  001C7E   ADC     R31,R29
10094	25494	  001C80   MOVW    R28,R30
10095	25495	  001C82   RET
10096	25499	  002FEA   RJMP    0x2F5C
10097	25501	  002F5C   OR      R16,R17
10098	25502	  002F5E   RET
10099	25506	  002F0C   BREQ    0x2F38
10100	25507	  002F0E   LDD     R22,Y+18
10101	25509	  002F10   LDD     R23,Y+19
10102	25511	  002F12   LDD     R20,Y+10
10103	25513	  002F14   LDD     R21,Y+11
10104	25515	  002F16   LDD     R16,Y+16
10105	25517	  002F18   LDD     R17,Y+17
10106	25519	  002F1A   ADD     R20,R16
10107	25520	  002F1C   ADC     R21,R17
10108	25521	  002F1E   RCALL   0x2F56
10109	25524	  002F56   MOVW    R18,R28
10110	25525	  002F58   MOVW    R16,R6
10111	25526	  002F5A   RCALL   _PutcharsFullNoMb
		_PutcharsFullNoMb:
10112	25529	  0030D6   RCALL   0x309A
10113	25532	  00309A   JMP     ?PROLOGUE8_L09
		?PROLOGUE8_L09:
10114	25535	  001C48   ST      -Y,R7
		?PROLOGUE7_L09:
10115	25537	  001C4A   ST      -Y,R6
		?PROLOGUE6_L09:
10116	25539	  001C4C   ST      -Y,R5
		?PROLOGUE5_L09:
10117	25541	  001C4E   ST      -Y,R4
		?PROLOGUE4_L09:
10118	25543	  001C50   ST      -Y,R27
		?PROLOGUE3_L09:
10119	25545	  001C52   ST      -Y,R26
		?PROLOGUE2_L09:
10120	25547	  001C54   ST      -Y,R25
		?PROLOGUE1_L09:
10121	25549	  001C56   ST      -Y,R24
10122	25551	  001C58   RET
10123	25555	  0030D8   MOVW    R6,R16
10124	25556	  0030DA   MOVW    R4,R18
10125	25557	  0030DC   MOVW    R26,R20
10126	25558	  0030DE   MOVW    R24,R22
10127	25559	  0030E0   LDI     R16,0x00
10128	25560	  0030E2   LDI     R17,0x00
10129	25561	  0030E4   RJMP    0x30E8
10130	25563	  0030E8   MOV     R18,R24
10131	25564	  0030EA   OR      R18,R25
10132	25565	  0030EC   BREQ    0x30F6
10133	25567	  0030F6   RJMP    0x2F40
10134	25569	  002F40   LDI     R30,0x08
10135	25570	  002F42   JMP     ?EPILOGUE_B8_L09
		?EPILOGUE_B8_L09:
10136	25573	  001C6A   LDD     R7,Y+7
		?EPILOGUE_B7_L09:
10137	25575	  001C6C   LDD     R6,Y+6
		?EPILOGUE_B6_L09:
10138	25577	  001C6E   LDD     R5,Y+5
		?EPILOGUE_B5_L09:
10139	25579	  001C70   LDD     R4,Y+4
		?EPILOGUE_B4_L09:
10140	25581	  001C72   LDD     R27,Y+3
		?EPILOGUE_B3_L09:
10141	25583	  001C74   LDD     R26,Y+2
		?EPILOGUE_B2_L09:
10142	25585	  001C76   LDD     R25,Y+1
		?EPILOGUE_B1_L09:
10143	25587	  001C78   LD      R24,Y
		?EPILOGUE_B0_L09:
10144	25589	  001C7A   LDI     R31,0x00
10145	25590	  001C7C   ADD     R30,R28
10146	25591	  001C7E   ADC     R31,R29
10147	25592	  001C80   MOVW    R28,R30
10148	25593	  001C82   RET
10149	25597	  002F5C   OR      R16,R17
10150	25598	  002F5E   RET
10151	25602	  002F20   BRNE    0x2F38
10152	25603	  002F22   LDI     R22,0x30
10153	25604	  002F24   LDD     R20,Y+24
10154	25606	  002F26   LDD     R21,Y+25
10155	25608	  002F28   RCALL   0x2FE4
10156	25611	  002FE4   MOVW    R18,R28
10157	25612	  002FE6   MOVW    R16,R6
10158	25613	  002FE8   RCALL   pad
		pad:
10159	25616	  003068   RCALL   0x309A
10160	25619	  00309A   JMP     ?PROLOGUE8_L09
		?PROLOGUE8_L09:
10161	25622	  001C48   ST      -Y,R7
		?PROLOGUE7_L09:
10162	25624	  001C4A   ST      -Y,R6
		?PROLOGUE6_L09:
10163	25626	  001C4C   ST      -Y,R5
		?PROLOGUE5_L09:
10164	25628	  001C4E   ST      -Y,R4
		?PROLOGUE4_L09:
10165	25630	  001C50   ST      -Y,R27
		?PROLOGUE3_L09:
10166	25632	  001C52   ST      -Y,R26
		?PROLOGUE2_L09:
10167	25634	  001C54   ST      -Y,R25
		?PROLOGUE1_L09:
10168	25636	  001C56   ST      -Y,R24
10169	25638	  001C58   RET
10170	25642	  00306A   SBIW    R28,1
10171	25644	  00306C   ST      Y,R22
10172	25646	  00306E   MOVW    R6,R16
10173	25647	  003070   MOVW    R4,R18
10174	25648	  003072   MOVW    R26,R20
10175	25649	  003074   LDI     R24,0x00
10176	25650	  003076   LDI     R25,0x00
10177	25651	  003078   RJMP    0x307C
10178	25653	  00307C   CP      R24,R26
10179	25654	  00307E   CPC     R25,R27
10180	25655	  003080   BRGE    0x3092
10181	25657	  003092   LDI     R16,0x01
10182	25658	  003094   LDI     R17,0x00
10183	25659	  003096   ADIW    R28,1
10184	25661	  003098   RJMP    0x2F40
10185	25663	  002F40   LDI     R30,0x08
10186	25664	  002F42   JMP     ?EPILOGUE_B8_L09
		?EPILOGUE_B8_L09:
10187	25667	  001C6A   LDD     R7,Y+7
		?EPILOGUE_B7_L09:
10188	25669	  001C6C   LDD     R6,Y+6
		?EPILOGUE_B6_L09:
10189	25671	  001C6E   LDD     R5,Y+5
		?EPILOGUE_B5_L09:
10190	25673	  001C70   LDD     R4,Y+4
		?EPILOGUE_B4_L09:
10191	25675	  001C72   LDD     R27,Y+3
		?EPILOGUE_B3_L09:
10192	25677	  001C74   LDD     R26,Y+2
		?EPILOGUE_B2_L09:
10193	25679	  001C76   LDD     R25,Y+1
		?EPILOGUE_B1_L09:
10194	25681	  001C78   LD      R24,Y
		?EPILOGUE_B0_L09:
10195	25683	  001C7A   LDI     R31,0x00
10196	25684	  001C7C   ADD     R30,R28
10197	25685	  001C7E   ADC     R31,R29
10198	25686	  001C80   MOVW    R28,R30
10199	25687	  001C82   RET
10200	25691	  002FEA   RJMP    0x2F5C
10201	25693	  002F5C   OR      R16,R17
10202	25694	  002F5E   RET
10203	25698	  002F2A   BREQ    0x2F38
10204	25699	  002F2C   LDD     R16,Y+32
10205	25701	  002F2E   SBRS    R16,2
10206	25702	  002F30   RJMP    0x2BB6
10207	25704	  002BB6   LD      R16,X
10208	25706	  002BB8   TST     R16
10209	25707	  002BBA   BRNE    0x2BC2
10210	25709	  002BC2   CPI     R16,0x25
10211	25710	  002BC4   BRNE    0x2BE4
10212	25712	  002BE4   LD      R20,X+
10213	25714	  002BE6   MOVW    R18,R28
10214	25715	  002BE8   RCALL   0x30F8
10215	25718	  0030F8   MOVW    R16,R6
10216	25719	  0030FA   RCALL   _PutcharFullNoMb
		_PutcharFullNoMb:
10217	25722	  00309E   ST      -Y,R27
10218	25724	  0030A0   ST      -Y,R26
10219	25726	  0030A2   MOVW    R30,R16
10220	25727	  0030A4   MOVW    R26,R18
10221	25728	  0030A6   MOV     R18,R20
10222	25729	  0030A8   ADIW    R26,8
10223	25731	  0030AA   LD      R16,X+
10224	25733	  0030AC   LD      R17,X
10225	25735	  0030AE   SBIW    R26,9
10226	25737	  0030B0   ICALL
		_SProut:
10227	25740	  003100   MOV     R19,R27
10228	25741	  003102   MOV     R22,R26
10229	25742	  003104   MOVW    R30,R16
10230	25743	  003106   LD      R26,Z
10231	25745	  003108   LDD     R27,Z+1
10232	25747	  00310A   MOVW    R20,R26
10233	25748	  00310C   SUBI    R20,0xFF
10234	25749	  00310E   SBCI    R21,0xFF
10235	25750	  003110   ST      Z,R20
10236	25752	  003112   STD     Z+1,R21
10237	25754	  003114   ST      X,R18
10238	25756	  003116   MOV     R26,R22
10239	25757	  003118   MOV     R27,R19
10240	25758	  00311A   RET
10241	25762	  0030B2   MOVW    R30,R26
10242	25763	  0030B4   STD     Z+8,R16
10243	25765	  0030B6   STD     Z+9,R17
10244	25767	  0030B8   OR      R16,R17
10245	25768	  0030BA   BREQ    0x30CC
10246	25769	  0030BC   LDD     R16,Z+26
10247	25771	  0030BE   LDD     R17,Z+27
10248	25773	  0030C0   RCALL   0x2FDA
10249	25776	  002FDA   SUBI    R16,0xFF
10250	25777	  002FDC   SBCI    R17,0xFF
10251	25778	  002FDE   RET
10252	25782	  0030C2   STD     Z+26,R16
10253	25784	  0030C4   STD     Z+27,R17
10254	25786	  0030C6   LDI     R16,0x00
10255	25787	  0030C8   LDI     R17,0x00
10256	25788	  0030CA   RJMP    0x30D0
10257	25790	  0030D0   LD      R26,Y+
10258	25792	  0030D2   LD      R27,Y+
10259	25794	  0030D4   RET
10260	25798	  0030FC   TST     R17
10261	25799	  0030FE   RET
10262	25803	  002BEA   BRPL    0x2BB6
10263	25805	  002BB6   LD      R16,X
10264	25807	  002BB8   TST     R16
10265	25808	  002BBA   BRNE    0x2BC2
10266	25810	  002BC2   CPI     R16,0x25
10267	25811	  002BC4   BRNE    0x2BE4
10268	25813	  002BE4   LD      R20,X+
10269	25815	  002BE6   MOVW    R18,R28
10270	25816	  002BE8   RCALL   0x30F8
10271	25819	  0030F8   MOVW    R16,R6
10272	25820	  0030FA   RCALL   _PutcharFullNoMb
		_PutcharFullNoMb:
10273	25823	  00309E   ST      -Y,R27
10274	25825	  0030A0   ST      -Y,R26
10275	25827	  0030A2   MOVW    R30,R16
10276	25828	  0030A4   MOVW    R26,R18
10277	25829	  0030A6   MOV     R18,R20
10278	25830	  0030A8   ADIW    R26,8
10279	25832	  0030AA   LD      R16,X+
10280	25834	  0030AC   LD      R17,X
10281	25836	  0030AE   SBIW    R26,9
10282	25838	  0030B0   ICALL
		_SProut:
10283	25841	  003100   MOV     R19,R27
10284	25842	  003102   MOV     R22,R26
10285	25843	  003104   MOVW    R30,R16
10286	25844	  003106   LD      R26,Z
10287	25846	  003108   LDD     R27,Z+1
10288	25848	  00310A   MOVW    R20,R26
10289	25849	  00310C   SUBI    R20,0xFF
10290	25850	  00310E   SBCI    R21,0xFF
10291	25851	  003110   ST      Z,R20
10292	25853	  003112   STD     Z+1,R21
10293	25855	  003114   ST      X,R18
10294	25857	  003116   MOV     R26,R22
10295	25858	  003118   MOV     R27,R19
10296	25859	  00311A   RET
10297	25863	  0030B2   MOVW    R30,R26
10298	25864	  0030B4   STD     Z+8,R16
10299	25866	  0030B6   STD     Z+9,R17
10300	25868	  0030B8   OR      R16,R17
10301	25869	  0030BA   BREQ    0x30CC
10302	25870	  0030BC   LDD     R16,Z+26
10303	25872	  0030BE   LDD     R17,Z+27
10304	25874	  0030C0   RCALL   0x2FDA
10305	25877	  002FDA   SUBI    R16,0xFF
10306	25878	  002FDC   SBCI    R17,0xFF
10307	25879	  002FDE   RET
10308	25883	  0030C2   STD     Z+26,R16
10309	25885	  0030C4   STD     Z+27,R17
10310	25887	  0030C6   LDI     R16,0x00
10311	25888	  0030C8   LDI     R17,0x00
10312	25889	  0030CA   RJMP    0x30D0
10313	25891	  0030D0   LD      R26,Y+
10314	25893	  0030D2   LD      R27,Y+
10315	25895	  0030D4   RET
10316	25899	  0030FC   TST     R17
10317	25900	  0030FE   RET
10318	25904	  002BEA   BRPL    0x2BB6
10319	25906	  002BB6   LD      R16,X
10320	25908	  002BB8   TST     R16
10321	25909	  002BBA   BRNE    0x2BC2
10322	25911	  002BC2   CPI     R16,0x25
10323	25912	  002BC4   BRNE    0x2BE4
10324	25913	  002BC6   LDI     R16,0x00
10325	25914	  002BC8   STD     Y+14,R16
10326	25916	  002BCA   STD     Y+15,R16
10327	25918	  002BCC   STD     Y+16,R16
10328	25920	  002BCE   STD     Y+17,R16
10329	25922	  002BD0   STD     Y+18,R16
10330	25924	  002BD2   STD     Y+19,R16
10331	25926	  002BD4   STD     Y+20,R16
10332	25928	  002BD6   STD     Y+21,R16
10333	25930	  002BD8   STD     Y+22,R16
10334	25932	  002BDA   STD     Y+23,R16
10335	25934	  002BDC   STD     Y+24,R16
10336	25936	  002BDE   STD     Y+25,R16
10337	25938	  002BE0   RCALL   0x3020
10338	25941	  003020   LDI     R18,0x00
10339	25942	  003022   LDI     R19,0x00
10340	25943	  003024   RET
10341	25947	  002BE2   RJMP    0x2BF0
10342	25949	  002BF0   ADIW    R26,1
10343	25951	  002BF2   LD      R16,X
10344	25953	  002BF4   MOV     R17,R16
10345	25954	  002BF6   SUBI    R17,0x20
10346	25955	  002BF8   BREQ    0x2BEE
10347	25956	  002BFA   SUBI    R17,0x03
10348	25957	  002BFC   BREQ    0x2C14
10349	25958	  002BFE   SUBI    R17,0x08
10350	25959	  002C00   BREQ    0x2C0C
10351	25960	  002C02   SUBI    R17,0x02
10352	25961	  002C04   BREQ    0x2C10
10353	25962	  002C06   SUBI    R17,0x03
10354	25963	  002C08   BREQ    0x2C18
10355	25964	  002C0A   RJMP    0x2C1C
10356	25966	  002C1C   CPI     R16,0x2A
10357	25967	  002C1E   BRNE    0x2C3A
10358	25969	  002C3A   STD     Y+30,R19
10359	25971	  002C3C   STD     Y+31,R19
10360	25973	  002C3E   RJMP    0x2C54
10361	25975	  002C54   RCALL   0x2F4C
10362	25978	  002F4C   LD      R22,X
10363	25980	  002F4E   MOV     R16,R22
10364	25981	  002F50   SUBI    R16,0x30
10365	25982	  002F52   CPI     R16,0x0A
10366	25983	  002F54   RET
10367	25987	  002C56   BRCS    0x2C40
10368	25988	  002C58   LD      R16,X
10369	25990	  002C5A   CPI     R16,0x2E
10370	25991	  002C5C   BREQ    0x2C66
10371	25992	  002C5E   LDI     R16,0xFF
10372	25993	  002C60   STD     Y+28,R16
10373	25995	  002C62   STD     Y+29,R16
10374	25997	  002C64   RJMP    0x2C98
10375	25999	  002C98   STD     Y+32,R18
10376	26001	  002C9A   STD     Y+33,R19
10377	26003	  002C9C   LD      R18,X
10378	26005	  002C9E   LDI     R16,0xE4
10379	26006	  002CA0   LDI     R17,0x01
10380	26007	  002CA2   CALL    __iar_Strchr
		__iar_Strchr:
10381	26011	  001EC4   MOVW    R30,R16
10382	26012	  001EC6   LD      R19,Z+
10383	26014	  001EC8   CP      R19,R18
10384	26015	  001ECA   BREQ    0x1ED6
10385	26016	  001ECC   MOVW    R16,R30
10386	26017	  001ECE   TST     R19
10387	26018	  001ED0   BRNE    __iar_Strchr
		__iar_Strchr:
10388	26020	  001EC4   MOVW    R30,R16
10389	26021	  001EC6   LD      R19,Z+
10390	26023	  001EC8   CP      R19,R18
10391	26024	  001ECA   BREQ    0x1ED6
10392	26025	  001ECC   MOVW    R16,R30
10393	26026	  001ECE   TST     R19
10394	26027	  001ED0   BRNE    __iar_Strchr
		__iar_Strchr:
10395	26029	  001EC4   MOVW    R30,R16
10396	26030	  001EC6   LD      R19,Z+
10397	26032	  001EC8   CP      R19,R18
10398	26033	  001ECA   BREQ    0x1ED6
10399	26034	  001ECC   MOVW    R16,R30
10400	26035	  001ECE   TST     R19
10401	26036	  001ED0   BRNE    __iar_Strchr
		__iar_Strchr:
10402	26038	  001EC4   MOVW    R30,R16
10403	26039	  001EC6   LD      R19,Z+
10404	26041	  001EC8   CP      R19,R18
10405	26042	  001ECA   BREQ    0x1ED6
10406	26043	  001ECC   MOVW    R16,R30
10407	26044	  001ECE   TST     R19
10408	26045	  001ED0   BRNE    __iar_Strchr
		__iar_Strchr:
10409	26047	  001EC4   MOVW    R30,R16
10410	26048	  001EC6   LD      R19,Z+
10411	26050	  001EC8   CP      R19,R18
10412	26051	  001ECA   BREQ    0x1ED6
10413	26052	  001ECC   MOVW    R16,R30
10414	26053	  001ECE   TST     R19
10415	26054	  001ED0   BRNE    __iar_Strchr
		__iar_Strchr:
10416	26056	  001EC4   MOVW    R30,R16
10417	26057	  001EC6   LD      R19,Z+
10418	26059	  001EC8   CP      R19,R18
10419	26060	  001ECA   BREQ    0x1ED6
10420	26061	  001ECC   MOVW    R16,R30
10421	26062	  001ECE   TST     R19
10422	26063	  001ED0   BRNE    __iar_Strchr
		__iar_Strchr:
10423	26065	  001EC4   MOVW    R30,R16
10424	26066	  001EC6   LD      R19,Z+
10425	26068	  001EC8   CP      R19,R18
10426	26069	  001ECA   BREQ    0x1ED6
10427	26070	  001ECC   MOVW    R16,R30
10428	26071	  001ECE   TST     R19
10429	26072	  001ED0   BRNE    __iar_Strchr
10430	26073	  001ED2   LDI     R16,0x00
10431	26074	  001ED4   LDI     R17,0x00
10432	26075	  001ED6   RET
10433	26079	  002CA6   OR      R16,R17
10434	26080	  002CA8   BREQ    0x2CAE
10435	26082	  002CAE   LDI     R16,0x00
10436	26083	  002CB0   STD     Y+34,R16
10437	26085	  002CB2   CPI     R16,0x68
10438	26086	  002CB4   BRNE    0x2CC0
10439	26088	  002CC0   CPI     R16,0x6C
10440	26089	  002CC2   BRNE    0x2CD0
10441	26091	  002CD0   RCALL   0x3062
10442	26094	  003062   MOVW    R16,R28
10443	26095	  003064   SUBI    R16,0xDD
10444	26096	  003066   RJMP    0x2FDC
10445	26098	  002FDC   SBCI    R17,0xFF
10446	26099	  002FDE   RET
10447	26103	  002CD2   STD     Y+12,R16
10448	26105	  002CD4   STD     Y+13,R17
10449	26107	  002CD6   LD      R25,X+
10450	26109	  002CD8   MOV     R16,R25
10451	26110	  002CDA   LDI     R30,0xB6
10452	26111	  002CDC   LDI     R31,0x00
10453	26112	  002CDE   OUT     RAMPZ,R31
10454	26113	  002CE0   LDI     R31,0x00
10455	26114	  002CE2   JMP     ?CV_SWITCH_L06
		?CV_SWITCH_L06:
10456	26117	  001B8A   RCALL   GET_INFO_C
		GET_INFO_C:
10457	26120	  001B7E   ELPM      R20,Z+
10458	26123	  001B80   ELPM      R1,Z+
10459	26126	  001B82   BST     R1,1
10460	26127	  001B84   ELPM      R2,Z+
10461	26130	  001B86   ELPM      R3,Z+
10462	26133	  001B88   RET
10463	26137	  001B8C   SUB     R16,R20
10464	26138	  001B8E   LDI     R17,0x00
10465	26139	  001B90   RJMP    P_0_S
		P_0_S:
10466	26141	  001B98   LDI     R18,0x00
10467	26142	  001B9A   LDI     R19,0x00
10468	26143	  001B9C   RJMP    CHECK_LOW_LIMIT
		CHECK_LOW_LIMIT:
10469	26145	  001B9E   BRCS    0x1BCE
10470	26146	  001BA0   SBRC    R1,0
10471	26147	  001BA2   RJMP    0x1BD2
10472	26149	  001BD2   BRNE    0x1BD8
10473	26151	  001BD8   ADIW    R30,1
10474	26153	  001BDA   BRTS    0x1BDE
10475	26154	  001BDC   ADIW    R30,1
10476	26156	  001BDE   LDI     R21,0x00
10477	26157	  001BE0   LDI     R22,0x00
10478	26158	  001BE2   LDI     R23,0x00
10479	26159	  001BE4   ELPM      R20,Z+
10480	26162	  001BE6   CPI     R20,0xFB
10481	26163	  001BE8   BRCS    0x1BFC
10482	26165	  001BFC   SUB     R16,R20
10483	26166	  001BFE   SBC     R17,R21
10484	26167	  001C00   SBC     R18,R22
10485	26168	  001C02   SBC     R19,R23
10486	26169	  001C04   BREQ    0x1BD4
10487	26170	  001C06   BRCS    0x1BCE
10488	26171	  001C08   RJMP    0x1BD8
10489	26173	  001BD8   ADIW    R30,1
10490	26175	  001BDA   BRTS    0x1BDE
10491	26176	  001BDC   ADIW    R30,1
10492	26178	  001BDE   LDI     R21,0x00
10493	26179	  001BE0   LDI     R22,0x00
10494	26180	  001BE2   LDI     R23,0x00
10495	26181	  001BE4   ELPM      R20,Z+
10496	26184	  001BE6   CPI     R20,0xFB
10497	26185	  001BE8   BRCS    0x1BFC
10498	26187	  001BFC   SUB     R16,R20
10499	26188	  001BFE   SBC     R17,R21
10500	26189	  001C00   SBC     R18,R22
10501	26190	  001C02   SBC     R19,R23
10502	26191	  001C04   BREQ    0x1BD4
10503	26192	  001C06   BRCS    0x1BCE
10504	26193	  001C08   RJMP    0x1BD8
10505	26195	  001BD8   ADIW    R30,1
10506	26197	  001BDA   BRTS    0x1BDE
10507	26198	  001BDC   ADIW    R30,1
10508	26200	  001BDE   LDI     R21,0x00
10509	26201	  001BE0   LDI     R22,0x00
10510	26202	  001BE2   LDI     R23,0x00
10511	26203	  001BE4   ELPM      R20,Z+
10512	26206	  001BE6   CPI     R20,0xFB
10513	26207	  001BE8   BRCS    0x1BFC
10514	26209	  001BFC   SUB     R16,R20
10515	26210	  001BFE   SBC     R17,R21
10516	26211	  001C00   SBC     R18,R22
10517	26212	  001C02   SBC     R19,R23
10518	26213	  001C04   BREQ    0x1BD4
10519	26214	  001C06   BRCS    0x1BCE
10520	26215	  001C08   RJMP    0x1BD8
10521	26217	  001BD8   ADIW    R30,1
10522	26219	  001BDA   BRTS    0x1BDE
10523	26220	  001BDC   ADIW    R30,1
10524	26222	  001BDE   LDI     R21,0x00
10525	26223	  001BE0   LDI     R22,0x00
10526	26224	  001BE2   LDI     R23,0x00
10527	26225	  001BE4   ELPM      R20,Z+
10528	26228	  001BE6   CPI     R20,0xFB
10529	26229	  001BE8   BRCS    0x1BFC
10530	26231	  001BFC   SUB     R16,R20
10531	26232	  001BFE   SBC     R17,R21
10532	26233	  001C00   SBC     R18,R22
10533	26234	  001C02   SBC     R19,R23
10534	26235	  001C04   BREQ    0x1BD4
10535	26236	  001C06   BRCS    0x1BCE
10536	26237	  001C08   RJMP    0x1BD8
10537	26239	  001BD8   ADIW    R30,1
10538	26241	  001BDA   BRTS    0x1BDE
10539	26242	  001BDC   ADIW    R30,1
10540	26244	  001BDE   LDI     R21,0x00
10541	26245	  001BE0   LDI     R22,0x00
10542	26246	  001BE2   LDI     R23,0x00
10543	26247	  001BE4   ELPM      R20,Z+
10544	26250	  001BE6   CPI     R20,0xFB
10545	26251	  001BE8   BRCS    0x1BFC
10546	26253	  001BFC   SUB     R16,R20
10547	26254	  001BFE   SBC     R17,R21
10548	26255	  001C00   SBC     R18,R22
10549	26256	  001C02   SBC     R19,R23
10550	26257	  001C04   BREQ    0x1BD4
10551	26258	  001C06   BRCS    0x1BCE
10552	26259	  001C08   RJMP    0x1BD8
10553	26261	  001BD8   ADIW    R30,1
10554	26263	  001BDA   BRTS    0x1BDE
10555	26264	  001BDC   ADIW    R30,1
10556	26266	  001BDE   LDI     R21,0x00
10557	26267	  001BE0   LDI     R22,0x00
10558	26268	  001BE2   LDI     R23,0x00
10559	26269	  001BE4   ELPM      R20,Z+
10560	26272	  001BE6   CPI     R20,0xFB
10561	26273	  001BE8   BRCS    0x1BFC
10562	26275	  001BFC   SUB     R16,R20
10563	26276	  001BFE   SBC     R17,R21
10564	26277	  001C00   SBC     R18,R22
10565	26278	  001C02   SBC     R19,R23
10566	26279	  001C04   BREQ    0x1BD4
10567	26280	  001C06   BRCS    0x1BCE
10568	26281	  001C08   RJMP    0x1BD8
10569	26283	  001BD8   ADIW    R30,1
10570	26285	  001BDA   BRTS    0x1BDE
10571	26286	  001BDC   ADIW    R30,1
10572	26288	  001BDE   LDI     R21,0x00
10573	26289	  001BE0   LDI     R22,0x00
10574	26290	  001BE2   LDI     R23,0x00
10575	26291	  001BE4   ELPM      R20,Z+
10576	26294	  001BE6   CPI     R20,0xFB
10577	26295	  001BE8   BRCS    0x1BFC
10578	26297	  001BFC   SUB     R16,R20
10579	26298	  001BFE   SBC     R17,R21
10580	26299	  001C00   SBC     R18,R22
10581	26300	  001C02   SBC     R19,R23
10582	26301	  001C04   BREQ    0x1BD4
10583	26302	  001C06   BRCS    0x1BCE
10584	26303	  001C08   RJMP    0x1BD8
10585	26305	  001BD8   ADIW    R30,1
10586	26307	  001BDA   BRTS    0x1BDE
10587	26308	  001BDC   ADIW    R30,1
10588	26310	  001BDE   LDI     R21,0x00
10589	26311	  001BE0   LDI     R22,0x00
10590	26312	  001BE2   LDI     R23,0x00
10591	26313	  001BE4   ELPM      R20,Z+
10592	26316	  001BE6   CPI     R20,0xFB
10593	26317	  001BE8   BRCS    0x1BFC
10594	26319	  001BFC   SUB     R16,R20
10595	26320	  001BFE   SBC     R17,R21
10596	26321	  001C00   SBC     R18,R22
10597	26322	  001C02   SBC     R19,R23
10598	26323	  001C04   BREQ    0x1BD4
10599	26325	  001BD4   BRTC    0x1BCA
10600	26327	  001BCA   ELPM      R2,Z+
10601	26330	  001BCC   ELPM      R3,Z+
10602	26333	  001BCE   MOVW    R30,R2
10603	26334	  001BD0   IJMP
10604	26336	  002E66   MOVW    R18,R4
10605	26337	  002E68   LDD     R16,Y+34
10606	26339	  002E6A   RCALL   LoadInt
		LoadInt:
10607	26342	  00217A   MOVW    R0,R26
10608	26343	  00217C   SUBI    R16,0x62
10609	26344	  00217E   BREQ    0x21CA
10610	26345	  002180   SUBI    R16,0x06
10611	26346	  002182   BREQ    0x21E4
10612	26347	  002184   SUBI    R16,0x02
10613	26348	  002186   BREQ    0x21B0
10614	26349	  002188   SUBI    R16,0x02
10615	26350	  00218A   BREQ    0x219A
10616	26351	  00218C   SUBI    R16,0x05
10617	26352	  00218E   BREQ    0x21B0
10618	26353	  002190   SUBI    R16,0x03
10619	26354	  002192   BREQ    0x21E4
10620	26355	  002194   SUBI    R16,0x06
10621	26356	  002196   BREQ    0x21C2
10622	26357	  002198   RJMP    0x21E4
10623	26359	  0021E4   RCALL   0x2210
10624	26362	  002210   RCALL   0x2206
10625	26365	  002206   MOVW    R30,R18
10626	26366	  002208   LD      R26,Z
10627	26368	  00220A   LDD     R27,Z+1
10628	26370	  00220C   MOVW    R16,R26
10629	26371	  00220E   RET
10630	26375	  002212   SUBI    R16,0xFE
10631	26376	  002214   RCALL   0x221A
10632	26379	  00221A   SBCI    R17,0xFF
10633	26380	  00221C   ST      Z,R16
10634	26382	  00221E   STD     Z+1,R17
10635	26384	  002220   LD      R16,X+
10636	26386	  002222   RET
10637	26390	  002216   LD      R17,X
10638	26392	  002218   RET
10639	26396	  0021E6   RCALL   0x296E
10640	26399	  00296E   RCALL   0x2B98
10641	26402	  002B98   MOV     R18,R17
10642	26403	  002B9A   LSL     R18
10643	26404	  002B9C   SBC     R18,R18
10644	26405	  002B9E   RET
10645	26409	  002970   MOV     R19,R18
10646	26410	  002972   RET
10647	26414	  0021E8   MOV     R20,R18
10648	26415	  0021EA   MOV     R21,R18
10649	26416	  0021EC   MOV     R22,R18
10650	26417	  0021EE   MOV     R23,R18
10651	26418	  0021F0   MOVW    R26,R0
10652	26419	  0021F2   RET
10653	26423	  002E6C   RCALL   0x2F72
10654	26426	  002F72   ST      Y,R16
10655	26428	  002F74   STD     Y+1,R17
10656	26430	  002F76   STD     Y+2,R18
10657	26432	  002F78   STD     Y+3,R19
10658	26434	  002F7A   STD     Y+4,R20
10659	26436	  002F7C   STD     Y+5,R21
10660	26438	  002F7E   STD     Y+6,R22
10661	26440	  002F80   STD     Y+7,R23
10662	26442	  002F82   RET
10663	26446	  002E6E   LDI     R30,0xFD
10664	26447	  002E70   LDI     R31,0x01
10665	26448	  002E72   RCALL   0x2F60
10666	26451	  002F60   JMP     ?LL_CMP_L12
		?LL_CMP_L12:
10667	26454	  001D70   LD      R24,Z
10668	26456	  001D72   CP      R16,R24
10669	26457	  001D74   LDD     R24,Z+1
10670	26459	  001D76   CPC     R17,R24
10671	26460	  001D78   LDD     R24,Z+2
10672	26462	  001D7A   CPC     R18,R24
10673	26463	  001D7C   LDD     R24,Z+3
10674	26465	  001D7E   CPC     R19,R24
10675	26466	  001D80   LDD     R24,Z+4
10676	26468	  001D82   CPC     R20,R24
10677	26469	  001D84   LDD     R24,Z+5
10678	26471	  001D86   CPC     R21,R24
10679	26472	  001D88   LDD     R24,Z+6
10680	26474	  001D8A   CPC     R22,R24
10681	26475	  001D8C   LDD     R24,Z+7
10682	26477	  001D8E   CPC     R23,R24
10683	26478	  001D90   RET
10684	26482	  002E74   BRGE    0x2E7A
10685	26484	  002E7A   LDD     R16,Y+32
10686	26486	  002E7C   SBRS    R16,1
10687	26487	  002E7E   RJMP    0x2E84
10688	26489	  002E84   SBRS    R16,0
10689	26490	  002E86   RJMP    0x2E8C
10690	26492	  002E8C   RCALL   0x3050
10691	26495	  003050   RCALL   0x3062
10692	26498	  003062   MOVW    R16,R28
10693	26499	  003064   SUBI    R16,0xDD
10694	26500	  003066   RJMP    0x2FDC
10695	26502	  002FDC   SBCI    R17,0xFF
10696	26503	  002FDE   RET
10697	26507	  003052   LDD     R18,Y+14
10698	26509	  003054   LDD     R19,Y+15
10699	26511	  003056   ADD     R16,R18
10700	26512	  003058   ADC     R17,R19
10701	26513	  00305A   STD     Y+10,R16
10702	26515	  00305C   STD     Y+11,R17
10703	26517	  00305E   MOV     R18,R25
10704	26518	  003060   RET
10705	26522	  002E8E   MOVW    R16,R28
10706	26523	  002E90   RCALL   _LitobFullNoMb
		_LitobFullNoMb:
10707	26526	  00299A   CALL    ?PROLOGUE16_L09
		?PROLOGUE16_L09:
10708	26530	  001C38   ST      -Y,R15
		?PROLOGUE15_L09:
10709	26532	  001C3A   ST      -Y,R14
		?PROLOGUE14_L09:
10710	26534	  001C3C   ST      -Y,R13
		?PROLOGUE13_L09:
10711	26536	  001C3E   ST      -Y,R12
		?PROLOGUE12_L09:
10712	26538	  001C40   ST      -Y,R11
		?PROLOGUE11_L09:
10713	26540	  001C42   ST      -Y,R10
		?PROLOGUE10_L09:
10714	26542	  001C44   ST      -Y,R9
		?PROLOGUE9_L09:
10715	26544	  001C46   ST      -Y,R8
		?PROLOGUE8_L09:
10716	26546	  001C48   ST      -Y,R7
		?PROLOGUE7_L09:
10717	26548	  001C4A   ST      -Y,R6
		?PROLOGUE6_L09:
10718	26550	  001C4C   ST      -Y,R5
		?PROLOGUE5_L09:
10719	26552	  001C4E   ST      -Y,R4
		?PROLOGUE4_L09:
10720	26554	  001C50   ST      -Y,R27
		?PROLOGUE3_L09:
10721	26556	  001C52   ST      -Y,R26
		?PROLOGUE2_L09:
10722	26558	  001C54   ST      -Y,R25
		?PROLOGUE1_L09:
10723	26560	  001C56   ST      -Y,R24
10724	26562	  001C58   RET
10725	26566	  00299E   SBIW    R28,15
10726	26568	  0029A0   RCALL   0x2B56
10727	26571	  002B56   ST      Y,R16
10728	26573	  002B58   STD     Y+1,R17
10729	26575	  002B5A   RET
10730	26579	  0029A2   STD     Y+2,R18
10731	26581	  0029A4   MOV     R26,R16
10732	26582	  0029A6   LDD     R27,Y+1
10733	26584	  0029A8   ADIW    R26,12
10734	26586	  0029AA   LD      R16,X+
10735	26588	  0029AC   LD      R17,X
10736	26590	  0029AE   STD     Y+5,R16
10737	26592	  0029B0   STD     Y+6,R17
10738	26594	  0029B2   LDD     R16,Y+2
10739	26596	  0029B4   CPI     R16,0x6F
10740	26597	  0029B6   BRNE    0x29BC
10741	26599	  0029BC   ORI     R16,0x20
10742	26600	  0029BE   CPI     R16,0x78
10743	26601	  0029C0   BREQ    0x29C6
10744	26602	  0029C2   LDI     R16,0x0A
10745	26603	  0029C4   RJMP    0x29C8
10746	26605	  0029C8   LDI     R17,0x00
10747	26606	  0029CA   STD     Y+3,R16
10748	26608	  0029CC   STD     Y+4,R17
10749	26610	  0029CE   LDI     R16,0x3C
10750	26611	  0029D0   MOV     R4,R16
10751	26612	  0029D2   CLR     R5
10752	26613	  0029D4   RCALL   0x2B4E
10753	26616	  002B4E   LD      R30,Y
10754	26618	  002B50   LDD     R31,Y+1
10755	26620	  002B52   RET
10756	26624	  0029D6   MOVW    R16,R28
10757	26625	  0029D8   SUBI    R16,0xF9
10758	26626	  0029DA   SBCI    R17,0xFF
10759	26627	  0029DC   LDI     R20,0x08
10760	26628	  0029DE   LDI     R21,0x00
10761	26629	  0029E0   CALL    ?ML_SRAM_SRAM_16_L07
		?ML_SRAM_SRAM_16_L07:
10762	26633	  001C0A   PUSH    R26
10763	26635	  001C0C   PUSH    R27
10764	26637	  001C0E   MOVW    R26,R16
10765	26638	  001C10   LD      R0,Z+
10766	26640	  001C12   ST      X+,R0
10767	26642	  001C14   SUBI    R20,0x01
10768	26643	  001C16   SBCI    R21,0x00
10769	26644	  001C18   BRNE    0x1C10
10770	26646	  001C10   LD      R0,Z+
10771	26648	  001C12   ST      X+,R0
10772	26650	  001C14   SUBI    R20,0x01
10773	26651	  001C16   SBCI    R21,0x00
10774	26652	  001C18   BRNE    0x1C10
10775	26654	  001C10   LD      R0,Z+
10776	26656	  001C12   ST      X+,R0
10777	26658	  001C14   SUBI    R20,0x01
10778	26659	  001C16   SBCI    R21,0x00
10779	26660	  001C18   BRNE    0x1C10
10780	26662	  001C10   LD      R0,Z+
10781	26664	  001C12   ST      X+,R0
10782	26666	  001C14   SUBI    R20,0x01
10783	26667	  001C16   SBCI    R21,0x00
10784	26668	  001C18   BRNE    0x1C10
10785	26670	  001C10   LD      R0,Z+
10786	26672	  001C12   ST      X+,R0
10787	26674	  001C14   SUBI    R20,0x01
10788	26675	  001C16   SBCI    R21,0x00
10789	26676	  001C18   BRNE    0x1C10
10790	26678	  001C10   LD      R0,Z+
10791	26680	  001C12   ST      X+,R0
10792	26682	  001C14   SUBI    R20,0x01
10793	26683	  001C16   SBCI    R21,0x00
10794	26684	  001C18   BRNE    0x1C10
10795	26686	  001C10   LD      R0,Z+
10796	26688	  001C12   ST      X+,R0
10797	26690	  001C14   SUBI    R20,0x01
10798	26691	  001C16   SBCI    R21,0x00
10799	26692	  001C18   BRNE    0x1C10
10800	26694	  001C10   LD      R0,Z+
10801	26696	  001C12   ST      X+,R0
10802	26698	  001C14   SUBI    R20,0x01
10803	26699	  001C16   SBCI    R21,0x00
10804	26700	  001C18   BRNE    0x1C10
10805	26701	  001C1A   POP     R27
10806	26703	  001C1C   POP     R26
10807	26705	  001C1E   RET
10808	26709	  0029E4   LDD     R8,Y+7
10809	26711	  0029E6   LDD     R9,Y+8
10810	26713	  0029E8   LDD     R10,Y+9
10811	26715	  0029EA   LDD     R11,Y+10
10812	26717	  0029EC   LDD     R12,Y+11
10813	26719	  0029EE   LDD     R13,Y+12
10814	26721	  0029F0   LDD     R14,Y+13
10815	26723	  0029F2   LDD     R15,Y+14
10816	26725	  0029F4   LDD     R16,Y+2
10817	26727	  0029F6   CPI     R16,0x64
10818	26728	  0029F8   BREQ    0x29FE
10819	26730	  0029FE   MOV     R16,R8
10820	26731	  002A00   ST      -Y,R15
10821	26733	  002A02   ST      -Y,R14
10822	26735	  002A04   ST      -Y,R13
10823	26737	  002A06   ST      -Y,R12
10824	26739	  002A08   ST      -Y,R11
10825	26741	  002A0A   ST      -Y,R10
10826	26743	  002A0C   ST      -Y,R9
10827	26745	  002A0E   ST      -Y,R16
10828	26747	  002A10   LDI     R30,0xFD
10829	26748	  002A12   LDI     R31,0x01
10830	26749	  002A14   ADIW    R28,1
10831	26751	  002A16   LD      R17,Y+
10832	26753	  002A18   LD      R18,Y+
10833	26755	  002A1A   LD      R19,Y+
10834	26757	  002A1C   LD      R20,Y+
10835	26759	  002A1E   LD      R21,Y+
10836	26761	  002A20   LD      R22,Y+
10837	26763	  002A22   LD      R23,Y+
10838	26765	  002A24   RCALL   0x2F60
10839	26768	  002F60   JMP     ?LL_CMP_L12
		?LL_CMP_L12:
10840	26771	  001D70   LD      R24,Z
10841	26773	  001D72   CP      R16,R24
10842	26774	  001D74   LDD     R24,Z+1
10843	26776	  001D76   CPC     R17,R24
10844	26777	  001D78   LDD     R24,Z+2
10845	26779	  001D7A   CPC     R18,R24
10846	26780	  001D7C   LDD     R24,Z+3
10847	26782	  001D7E   CPC     R19,R24
10848	26783	  001D80   LDD     R24,Z+4
10849	26785	  001D82   CPC     R20,R24
10850	26786	  001D84   LDD     R24,Z+5
10851	26788	  001D86   CPC     R21,R24
10852	26789	  001D88   LDD     R24,Z+6
10853	26791	  001D8A   CPC     R22,R24
10854	26792	  001D8C   LDD     R24,Z+7
10855	26794	  001D8E   CPC     R23,R24
10856	26795	  001D90   RET
10857	26799	  002A26   BRGE    0x2A2C
10858	26801	  002A2C   RCALL   0x2B40
10859	26804	  002B40   LDI     R30,0xFD
10860	26805	  002B42   LDI     R31,0x01
10861	26806	  002B44   JMP     ?LL_CMP_R8_L12
		?LL_CMP_R8_L12:
10862	26809	  001D92   LD      R24,Z
10863	26811	  001D94   CP      R8,R24
10864	26812	  001D96   LDD     R24,Z+1
10865	26814	  001D98   CPC     R9,R24
10866	26815	  001D9A   LDD     R24,Z+2
10867	26817	  001D9C   CPC     R10,R24
10868	26818	  001D9E   LDD     R24,Z+3
10869	26820	  001DA0   CPC     R11,R24
10870	26821	  001DA2   LDD     R24,Z+4
10871	26823	  001DA4   CPC     R12,R24
10872	26824	  001DA6   LDD     R24,Z+5
10873	26826	  001DA8   CPC     R13,R24
10874	26827	  001DAA   LDD     R24,Z+6
10875	26829	  001DAC   CPC     R14,R24
10876	26830	  001DAE   LDD     R24,Z+7
10877	26832	  001DB0   CPC     R15,R24
10878	26833	  001DB2   RET
10879	26837	  002A2E   BRNE    0x2A56
10880	26838	  002A30   RCALL   0x2B4E
10881	26841	  002B4E   LD      R30,Y
10882	26843	  002B50   LDD     R31,Y+1
10883	26845	  002B52   RET
10884	26849	  002A32   LDD     R16,Z+28
10885	26851	  002A34   LDD     R17,Z+29
10886	26853	  002A36   OR      R16,R17
10887	26854	  002A38   BRNE    0x2A56
10888	26856	  002A56   RCALL   0x2B66
10889	26859	  002B66   LDI     R16,0xFF
10890	26860	  002B68   ADD     R4,R16
10891	26861	  002B6A   RJMP    0x293C
10892	26863	  00293C   ADC     R5,R16
10893	26864	  00293E   RET
10894	26868	  002A58   RCALL   0x2B80
10895	26871	  002B80   LDD     R16,Y+3
10896	26873	  002B82   LDD     R17,Y+4
10897	26875	  002B84   RCALL   0x2B98
10898	26878	  002B98   MOV     R18,R17
10899	26879	  002B9A   LSL     R18
10900	26880	  002B9C   SBC     R18,R18
10901	26881	  002B9E   RET
10902	26885	  002B86   STD     Y+7,R16
10903	26887	  002B88   STD     Y+8,R17
10904	26889	  002B8A   STD     Y+9,R18
10905	26891	  002B8C   STD     Y+10,R18
10906	26893	  002B8E   STD     Y+11,R18
10907	26895	  002B90   STD     Y+12,R18
10908	26897	  002B92   STD     Y+13,R18
10909	26899	  002B94   STD     Y+14,R18
10910	26901	  002B96   RET
10911	26905	  002A5A   MOVW    R26,R28
10912	26906	  002A5C   ADIW    R26,7
10913	26908	  002A5E   RCALL   0x2B5C
10914	26911	  002B5C   MOVW    R16,R8
10915	26912	  002B5E   MOVW    R18,R10
10916	26913	  002B60   MOVW    R20,R12
10917	26914	  002B62   MOVW    R22,R14
10918	26915	  002B64   RET
10919	26919	  002A60   CALL    ?ULL_MOD_L12
		?ULL_MOD_L12:
10920	26923	  001D46   RCALL   DIV_MOD_PROLOGUE
		DIV_MOD_PROLOGUE:
10921	26926	  001C8A   ST      -Y,R4
10922	26928	  001C8C   ST      -Y,R24
10923	26930	  001C8E   ST      -Y,R25
10924	26932	  001C90   ST      -Y,R26
10925	26934	  001C92   ST      -Y,R27
10926	26936	  001C94   LD      R24,X+
10927	26938	  001C96   LD      R4,X+
10928	26940	  001C98   LD      R30,X+
10929	26942	  001C9A   LD      R31,X+
10930	26944	  001C9C   LD      R0,X+
10931	26946	  001C9E   LD      R1,X+
10932	26948	  001CA0   LD      R2,X+
10933	26950	  001CA2   LD      R3,X
10934	26952	  001CA4   RET
10935	26956	  001D48   RCALL   DIV_MOD_BODY
		DIV_MOD_BODY:
10936	26959	  001CE2   PUSH    R16
10937	26961	  001CE4   PUSH    R17
10938	26963	  001CE6   PUSH    R18
10939	26965	  001CE8   PUSH    R19
10940	26967	  001CEA   PUSH    R20
10941	26969	  001CEC   PUSH    R21
10942	26971	  001CEE   PUSH    R22
10943	26973	  001CF0   PUSH    R23
10944	26975	  001CF2   CLR     R16
10945	26976	  001CF4   CLR     R17
10946	26977	  001CF6   MOVW    R18,R16
10947	26978	  001CF8   MOVW    R20,R16
10948	26979	  001CFA   MOVW    R22,R16
10949	26980	  001CFC   LDI     R27,0x07
10950	26981	  001CFE   LDI     R26,0x08
10951	26982	  001D00   POP     R25
10952	26984	  001D02   DEC     R26
10953	26985	  001D04   BRMI    0x1D3C
10954	26986	  001D06   ROL     R25
10955	26987	  001D08   ROL     R16
10956	26988	  001D0A   ROL     R17
10957	26989	  001D0C   ROL     R18
10958	26990	  001D0E   ROL     R19
10959	26991	  001D10   ROL     R20
10960	26992	  001D12   ROL     R21
10961	26993	  001D14   ROL     R22
10962	26994	  001D16   ROL     R23
10963	26995	  001D18   CP      R16,R24
10964	26996	  001D1A   CPC     R17,R4
10965	26997	  001D1C   CPC     R18,R30
10966	26998	  001D1E   CPC     R19,R31
10967	26999	  001D20   CPC     R20,R0
10968	27000	  001D22   CPC     R21,R1
10969	27001	  001D24   CPC     R22,R2
10970	27002	  001D26   CPC     R23,R3
10971	27003	  001D28   BRCS    0x1D02
10972	27005	  001D02   DEC     R26
10973	27006	  001D04   BRMI    0x1D3C
10974	27007	  001D06   ROL     R25
10975	27008	  001D08   ROL     R16
10976	27009	  001D0A   ROL     R17
10977	27010	  001D0C   ROL     R18
10978	27011	  001D0E   ROL     R19
10979	27012	  001D10   ROL     R20
10980	27013	  001D12   ROL     R21
10981	27014	  001D14   ROL     R22
10982	27015	  001D16   ROL     R23
10983	27016	  001D18   CP      R16,R24
10984	27017	  001D1A   CPC     R17,R4
10985	27018	  001D1C   CPC     R18,R30
10986	27019	  001D1E   CPC     R19,R31
10987	27020	  001D20   CPC     R20,R0
10988	27021	  001D22   CPC     R21,R1
10989	27022	  001D24   CPC     R22,R2
10990	27023	  001D26   CPC     R23,R3
10991	27024	  001D28   BRCS    0x1D02
10992	27026	  001D02   DEC     R26
10993	27027	  001D04   BRMI    0x1D3C
10994	27028	  001D06   ROL     R25
10995	27029	  001D08   ROL     R16
10996	27030	  001D0A   ROL     R17
10997	27031	  001D0C   ROL     R18
10998	27032	  001D0E   ROL     R19
10999	27033	  001D10   ROL     R20
11000	27034	  001D12   ROL     R21
11001	27035	  001D14   ROL     R22
11002	27036	  001D16   ROL     R23
11003	27037	  001D18   CP      R16,R24
11004	27038	  001D1A   CPC     R17,R4
11005	27039	  001D1C   CPC     R18,R30
11006	27040	  001D1E   CPC     R19,R31
11007	27041	  001D20   CPC     R20,R0
11008	27042	  001D22   CPC     R21,R1
11009	27043	  001D24   CPC     R22,R2
11010	27044	  001D26   CPC     R23,R3
11011	27045	  001D28   BRCS    0x1D02
11012	27047	  001D02   DEC     R26
11013	27048	  001D04   BRMI    0x1D3C
11014	27049	  001D06   ROL     R25
11015	27050	  001D08   ROL     R16
11016	27051	  001D0A   ROL     R17
11017	27052	  001D0C   ROL     R18
11018	27053	  001D0E   ROL     R19
11019	27054	  001D10   ROL     R20
11020	27055	  001D12   ROL     R21
11021	27056	  001D14   ROL     R22
11022	27057	  001D16   ROL     R23
11023	27058	  001D18   CP      R16,R24
11024	27059	  001D1A   CPC     R17,R4
11025	27060	  001D1C   CPC     R18,R30
11026	27061	  001D1E   CPC     R19,R31
11027	27062	  001D20   CPC     R20,R0
11028	27063	  001D22   CPC     R21,R1
11029	27064	  001D24   CPC     R22,R2
11030	27065	  001D26   CPC     R23,R3
11031	27066	  001D28   BRCS    0x1D02
11032	27068	  001D02   DEC     R26
11033	27069	  001D04   BRMI    0x1D3C
11034	27070	  001D06   ROL     R25
11035	27071	  001D08   ROL     R16
11036	27072	  001D0A   ROL     R17
11037	27073	  001D0C   ROL     R18
11038	27074	  001D0E   ROL     R19
11039	27075	  001D10   ROL     R20
11040	27076	  001D12   ROL     R21
11041	27077	  001D14   ROL     R22
11042	27078	  001D16   ROL     R23
11043	27079	  001D18   CP      R16,R24
11044	27080	  001D1A   CPC     R17,R4
11045	27081	  001D1C   CPC     R18,R30
11046	27082	  001D1E   CPC     R19,R31
11047	27083	  001D20   CPC     R20,R0
11048	27084	  001D22   CPC     R21,R1
11049	27085	  001D24   CPC     R22,R2
11050	27086	  001D26   CPC     R23,R3
11051	27087	  001D28   BRCS    0x1D02
11052	27089	  001D02   DEC     R26
11053	27090	  001D04   BRMI    0x1D3C
11054	27091	  001D06   ROL     R25
11055	27092	  001D08   ROL     R16
11056	27093	  001D0A   ROL     R17
11057	27094	  001D0C   ROL     R18
11058	27095	  001D0E   ROL     R19
11059	27096	  001D10   ROL     R20
11060	27097	  001D12   ROL     R21
11061	27098	  001D14   ROL     R22
11062	27099	  001D16   ROL     R23
11063	27100	  001D18   CP      R16,R24
11064	27101	  001D1A   CPC     R17,R4
11065	27102	  001D1C   CPC     R18,R30
11066	27103	  001D1E   CPC     R19,R31
11067	27104	  001D20   CPC     R20,R0
11068	27105	  001D22   CPC     R21,R1
11069	27106	  001D24   CPC     R22,R2
11070	27107	  001D26   CPC     R23,R3
11071	27108	  001D28   BRCS    0x1D02
11072	27110	  001D02   DEC     R26
11073	27111	  001D04   BRMI    0x1D3C
11074	27112	  001D06   ROL     R25
11075	27113	  001D08   ROL     R16
11076	27114	  001D0A   ROL     R17
11077	27115	  001D0C   ROL     R18
11078	27116	  001D0E   ROL     R19
11079	27117	  001D10   ROL     R20
11080	27118	  001D12   ROL     R21
11081	27119	  001D14   ROL     R22
11082	27120	  001D16   ROL     R23
11083	27121	  001D18   CP      R16,R24
11084	27122	  001D1A   CPC     R17,R4
11085	27123	  001D1C   CPC     R18,R30
11086	27124	  001D1E   CPC     R19,R31
11087	27125	  001D20   CPC     R20,R0
11088	27126	  001D22   CPC     R21,R1
11089	27127	  001D24   CPC     R22,R2
11090	27128	  001D26   CPC     R23,R3
11091	27129	  001D28   BRCS    0x1D02
11092	27131	  001D02   DEC     R26
11093	27132	  001D04   BRMI    0x1D3C
11094	27133	  001D06   ROL     R25
11095	27134	  001D08   ROL     R16
11096	27135	  001D0A   ROL     R17
11097	27136	  001D0C   ROL     R18
11098	27137	  001D0E   ROL     R19
11099	27138	  001D10   ROL     R20
11100	27139	  001D12   ROL     R21
11101	27140	  001D14   ROL     R22
11102	27141	  001D16   ROL     R23
11103	27142	  001D18   CP      R16,R24
11104	27143	  001D1A   CPC     R17,R4
11105	27144	  001D1C   CPC     R18,R30
11106	27145	  001D1E   CPC     R19,R31
11107	27146	  001D20   CPC     R20,R0
11108	27147	  001D22   CPC     R21,R1
11109	27148	  001D24   CPC     R22,R2
11110	27149	  001D26   CPC     R23,R3
11111	27150	  001D28   BRCS    0x1D02
11112	27152	  001D02   DEC     R26
11113	27153	  001D04   BRMI    0x1D3C
11114	27155	  001D3C   ST      -Y,R25
11115	27157	  001D3E   LDI     R26,0x08
11116	27158	  001D40   DEC     R27
11117	27159	  001D42   BRPL    0x1CFE
11118	27161	  001CFE   LDI     R26,0x08
11119	27162	  001D00   POP     R25
11120	27164	  001D02   DEC     R26
11121	27165	  001D04   BRMI    0x1D3C
11122	27166	  001D06   ROL     R25
11123	27167	  001D08   ROL     R16
11124	27168	  001D0A   ROL     R17
11125	27169	  001D0C   ROL     R18
11126	27170	  001D0E   ROL     R19
11127	27171	  001D10   ROL     R20
11128	27172	  001D12   ROL     R21
11129	27173	  001D14   ROL     R22
11130	27174	  001D16   ROL     R23
11131	27175	  001D18   CP      R16,R24
11132	27176	  001D1A   CPC     R17,R4
11133	27177	  001D1C   CPC     R18,R30
11134	27178	  001D1E   CPC     R19,R31
11135	27179	  001D20   CPC     R20,R0
11136	27180	  001D22   CPC     R21,R1
11137	27181	  001D24   CPC     R22,R2
11138	27182	  001D26   CPC     R23,R3
11139	27183	  001D28   BRCS    0x1D02
11140	27185	  001D02   DEC     R26
11141	27186	  001D04   BRMI    0x1D3C
11142	27187	  001D06   ROL     R25
11143	27188	  001D08   ROL     R16
11144	27189	  001D0A   ROL     R17
11145	27190	  001D0C   ROL     R18
11146	27191	  001D0E   ROL     R19
11147	27192	  001D10   ROL     R20
11148	27193	  001D12   ROL     R21
11149	27194	  001D14   ROL     R22
11150	27195	  001D16   ROL     R23
11151	27196	  001D18   CP      R16,R24
11152	27197	  001D1A   CPC     R17,R4
11153	27198	  001D1C   CPC     R18,R30
11154	27199	  001D1E   CPC     R19,R31
11155	27200	  001D20   CPC     R20,R0
11156	27201	  001D22   CPC     R21,R1
11157	27202	  001D24   CPC     R22,R2
11158	27203	  001D26   CPC     R23,R3
11159	27204	  001D28   BRCS    0x1D02
11160	27206	  001D02   DEC     R26
11161	27207	  001D04   BRMI    0x1D3C
11162	27208	  001D06   ROL     R25
11163	27209	  001D08   ROL     R16
11164	27210	  001D0A   ROL     R17
11165	27211	  001D0C   ROL     R18
11166	27212	  001D0E   ROL     R19
11167	27213	  001D10   ROL     R20
11168	27214	  001D12   ROL     R21
11169	27215	  001D14   ROL     R22
11170	27216	  001D16   ROL     R23
11171	27217	  001D18   CP      R16,R24
11172	27218	  001D1A   CPC     R17,R4
11173	27219	  001D1C   CPC     R18,R30
11174	27220	  001D1E   CPC     R19,R31
11175	27221	  001D20   CPC     R20,R0
11176	27222	  001D22   CPC     R21,R1
11177	27223	  001D24   CPC     R22,R2
11178	27224	  001D26   CPC     R23,R3
11179	27225	  001D28   BRCS    0x1D02
11180	27227	  001D02   DEC     R26
11181	27228	  001D04   BRMI    0x1D3C
11182	27229	  001D06   ROL     R25
11183	27230	  001D08   ROL     R16
11184	27231	  001D0A   ROL     R17
11185	27232	  001D0C   ROL     R18
11186	27233	  001D0E   ROL     R19
11187	27234	  001D10   ROL     R20
11188	27235	  001D12   ROL     R21
11189	27236	  001D14   ROL     R22
11190	27237	  001D16   ROL     R23
11191	27238	  001D18   CP      R16,R24
11192	27239	  001D1A   CPC     R17,R4
11193	27240	  001D1C   CPC     R18,R30
11194	27241	  001D1E   CPC     R19,R31
11195	27242	  001D20   CPC     R20,R0
11196	27243	  001D22   CPC     R21,R1
11197	27244	  001D24   CPC     R22,R2
11198	27245	  001D26   CPC     R23,R3
11199	27246	  001D28   BRCS    0x1D02
11200	27248	  001D02   DEC     R26
11201	27249	  001D04   BRMI    0x1D3C
11202	27250	  001D06   ROL     R25
11203	27251	  001D08   ROL     R16
11204	27252	  001D0A   ROL     R17
11205	27253	  001D0C   ROL     R18
11206	27254	  001D0E   ROL     R19
11207	27255	  001D10   ROL     R20
11208	27256	  001D12   ROL     R21
11209	27257	  001D14   ROL     R22
11210	27258	  001D16   ROL     R23
11211	27259	  001D18   CP      R16,R24
11212	27260	  001D1A   CPC     R17,R4
11213	27261	  001D1C   CPC     R18,R30
11214	27262	  001D1E   CPC     R19,R31
11215	27263	  001D20   CPC     R20,R0
11216	27264	  001D22   CPC     R21,R1
11217	27265	  001D24   CPC     R22,R2
11218	27266	  001D26   CPC     R23,R3
11219	27267	  001D28   BRCS    0x1D02
11220	27269	  001D02   DEC     R26
11221	27270	  001D04   BRMI    0x1D3C
11222	27271	  001D06   ROL     R25
11223	27272	  001D08   ROL     R16
11224	27273	  001D0A   ROL     R17
11225	27274	  001D0C   ROL     R18
11226	27275	  001D0E   ROL     R19
11227	27276	  001D10   ROL     R20
11228	27277	  001D12   ROL     R21
11229	27278	  001D14   ROL     R22
11230	27279	  001D16   ROL     R23
11231	27280	  001D18   CP      R16,R24
11232	27281	  001D1A   CPC     R17,R4
11233	27282	  001D1C   CPC     R18,R30
11234	27283	  001D1E   CPC     R19,R31
11235	27284	  001D20   CPC     R20,R0
11236	27285	  001D22   CPC     R21,R1
11237	27286	  001D24   CPC     R22,R2
11238	27287	  001D26   CPC     R23,R3
11239	27288	  001D28   BRCS    0x1D02
11240	27290	  001D02   DEC     R26
11241	27291	  001D04   BRMI    0x1D3C
11242	27292	  001D06   ROL     R25
11243	27293	  001D08   ROL     R16
11244	27294	  001D0A   ROL     R17
11245	27295	  001D0C   ROL     R18
11246	27296	  001D0E   ROL     R19
11247	27297	  001D10   ROL     R20
11248	27298	  001D12   ROL     R21
11249	27299	  001D14   ROL     R22
11250	27300	  001D16   ROL     R23
11251	27301	  001D18   CP      R16,R24
11252	27302	  001D1A   CPC     R17,R4
11253	27303	  001D1C   CPC     R18,R30
11254	27304	  001D1E   CPC     R19,R31
11255	27305	  001D20   CPC     R20,R0
11256	27306	  001D22   CPC     R21,R1
11257	27307	  001D24   CPC     R22,R2
11258	27308	  001D26   CPC     R23,R3
11259	27309	  001D28   BRCS    0x1D02
11260	27311	  001D02   DEC     R26
11261	27312	  001D04   BRMI    0x1D3C
11262	27313	  001D06   ROL     R25
11263	27314	  001D08   ROL     R16
11264	27315	  001D0A   ROL     R17
11265	27316	  001D0C   ROL     R18
11266	27317	  001D0E   ROL     R19
11267	27318	  001D10   ROL     R20
11268	27319	  001D12   ROL     R21
11269	27320	  001D14   ROL     R22
11270	27321	  001D16   ROL     R23
11271	27322	  001D18   CP      R16,R24
11272	27323	  001D1A   CPC     R17,R4
11273	27324	  001D1C   CPC     R18,R30
11274	27325	  001D1E   CPC     R19,R31
11275	27326	  001D20   CPC     R20,R0
11276	27327	  001D22   CPC     R21,R1
11277	27328	  001D24   CPC     R22,R2
11278	27329	  001D26   CPC     R23,R3
11279	27330	  001D28   BRCS    0x1D02
11280	27332	  001D02   DEC     R26
11281	27333	  001D04   BRMI    0x1D3C
11282	27335	  001D3C   ST      -Y,R25
11283	27337	  001D3E   LDI     R26,0x08
11284	27338	  001D40   DEC     R27
11285	27339	  001D42   BRPL    0x1CFE
11286	27341	  001CFE   LDI     R26,0x08
11287	27342	  001D00   POP     R25
11288	27344	  001D02   DEC     R26
11289	27345	  001D04   BRMI    0x1D3C
11290	27346	  001D06   ROL     R25
11291	27347	  001D08   ROL     R16
11292	27348	  001D0A   ROL     R17
11293	27349	  001D0C   ROL     R18
11294	27350	  001D0E   ROL     R19
11295	27351	  001D10   ROL     R20
11296	27352	  001D12   ROL     R21
11297	27353	  001D14   ROL     R22
11298	27354	  001D16   ROL     R23
11299	27355	  001D18   CP      R16,R24
11300	27356	  001D1A   CPC     R17,R4
11301	27357	  001D1C   CPC     R18,R30
11302	27358	  001D1E   CPC     R19,R31
11303	27359	  001D20   CPC     R20,R0
11304	27360	  001D22   CPC     R21,R1
11305	27361	  001D24   CPC     R22,R2
11306	27362	  001D26   CPC     R23,R3
11307	27363	  001D28   BRCS    0x1D02
11308	27365	  001D02   DEC     R26
11309	27366	  001D04   BRMI    0x1D3C
11310	27367	  001D06   ROL     R25
11311	27368	  001D08   ROL     R16
11312	27369	  001D0A   ROL     R17
11313	27370	  001D0C   ROL     R18
11314	27371	  001D0E   ROL     R19
11315	27372	  001D10   ROL     R20
11316	27373	  001D12   ROL     R21
11317	27374	  001D14   ROL     R22
11318	27375	  001D16   ROL     R23
11319	27376	  001D18   CP      R16,R24
11320	27377	  001D1A   CPC     R17,R4
11321	27378	  001D1C   CPC     R18,R30
11322	27379	  001D1E   CPC     R19,R31
11323	27380	  001D20   CPC     R20,R0
11324	27381	  001D22   CPC     R21,R1
11325	27382	  001D24   CPC     R22,R2
11326	27383	  001D26   CPC     R23,R3
11327	27384	  001D28   BRCS    0x1D02
11328	27386	  001D02   DEC     R26
11329	27387	  001D04   BRMI    0x1D3C
11330	27388	  001D06   ROL     R25
11331	27389	  001D08   ROL     R16
11332	27390	  001D0A   ROL     R17
11333	27391	  001D0C   ROL     R18
11334	27392	  001D0E   ROL     R19
11335	27393	  001D10   ROL     R20
11336	27394	  001D12   ROL     R21
11337	27395	  001D14   ROL     R22
11338	27396	  001D16   ROL     R23
11339	27397	  001D18   CP      R16,R24
11340	27398	  001D1A   CPC     R17,R4
11341	27399	  001D1C   CPC     R18,R30
11342	27400	  001D1E   CPC     R19,R31
11343	27401	  001D20   CPC     R20,R0
11344	27402	  001D22   CPC     R21,R1
11345	27403	  001D24   CPC     R22,R2
11346	27404	  001D26   CPC     R23,R3
11347	27405	  001D28   BRCS    0x1D02
11348	27407	  001D02   DEC     R26
11349	27408	  001D04   BRMI    0x1D3C
11350	27409	  001D06   ROL     R25
11351	27410	  001D08   ROL     R16
11352	27411	  001D0A   ROL     R17
11353	27412	  001D0C   ROL     R18
11354	27413	  001D0E   ROL     R19
11355	27414	  001D10   ROL     R20
11356	27415	  001D12   ROL     R21
11357	27416	  001D14   ROL     R22
11358	27417	  001D16   ROL     R23
11359	27418	  001D18   CP      R16,R24
11360	27419	  001D1A   CPC     R17,R4
11361	27420	  001D1C   CPC     R18,R30
11362	27421	  001D1E   CPC     R19,R31
11363	27422	  001D20   CPC     R20,R0
11364	27423	  001D22   CPC     R21,R1
11365	27424	  001D24   CPC     R22,R2
11366	27425	  001D26   CPC     R23,R3
11367	27426	  001D28   BRCS    0x1D02
11368	27428	  001D02   DEC     R26
11369	27429	  001D04   BRMI    0x1D3C
11370	27430	  001D06   ROL     R25
11371	27431	  001D08   ROL     R16
11372	27432	  001D0A   ROL     R17
11373	27433	  001D0C   ROL     R18
11374	27434	  001D0E   ROL     R19
11375	27435	  001D10   ROL     R20
11376	27436	  001D12   ROL     R21
11377	27437	  001D14   ROL     R22
11378	27438	  001D16   ROL     R23
11379	27439	  001D18   CP      R16,R24
11380	27440	  001D1A   CPC     R17,R4
11381	27441	  001D1C   CPC     R18,R30
11382	27442	  001D1E   CPC     R19,R31
11383	27443	  001D20   CPC     R20,R0
11384	27444	  001D22   CPC     R21,R1
11385	27445	  001D24   CPC     R22,R2
11386	27446	  001D26   CPC     R23,R3
11387	27447	  001D28   BRCS    0x1D02
11388	27449	  001D02   DEC     R26
11389	27450	  001D04   BRMI    0x1D3C
11390	27451	  001D06   ROL     R25
11391	27452	  001D08   ROL     R16
11392	27453	  001D0A   ROL     R17
11393	27454	  001D0C   ROL     R18
11394	27455	  001D0E   ROL     R19
11395	27456	  001D10   ROL     R20
11396	27457	  001D12   ROL     R21
11397	27458	  001D14   ROL     R22
11398	27459	  001D16   ROL     R23
11399	27460	  001D18   CP      R16,R24
11400	27461	  001D1A   CPC     R17,R4
11401	27462	  001D1C   CPC     R18,R30
11402	27463	  001D1E   CPC     R19,R31
11403	27464	  001D20   CPC     R20,R0
11404	27465	  001D22   CPC     R21,R1
11405	27466	  001D24   CPC     R22,R2
11406	27467	  001D26   CPC     R23,R3
11407	27468	  001D28   BRCS    0x1D02
11408	27470	  001D02   DEC     R26
11409	27471	  001D04   BRMI    0x1D3C
11410	27472	  001D06   ROL     R25
11411	27473	  001D08   ROL     R16
11412	27474	  001D0A   ROL     R17
11413	27475	  001D0C   ROL     R18
11414	27476	  001D0E   ROL     R19
11415	27477	  001D10   ROL     R20
11416	27478	  001D12   ROL     R21
11417	27479	  001D14   ROL     R22
11418	27480	  001D16   ROL     R23
11419	27481	  001D18   CP      R16,R24
11420	27482	  001D1A   CPC     R17,R4
11421	27483	  001D1C   CPC     R18,R30
11422	27484	  001D1E   CPC     R19,R31
11423	27485	  001D20   CPC     R20,R0
11424	27486	  001D22   CPC     R21,R1
11425	27487	  001D24   CPC     R22,R2
11426	27488	  001D26   CPC     R23,R3
11427	27489	  001D28   BRCS    0x1D02
11428	27491	  001D02   DEC     R26
11429	27492	  001D04   BRMI    0x1D3C
11430	27493	  001D06   ROL     R25
11431	27494	  001D08   ROL     R16
11432	27495	  001D0A   ROL     R17
11433	27496	  001D0C   ROL     R18
11434	27497	  001D0E   ROL     R19
11435	27498	  001D10   ROL     R20
11436	27499	  001D12   ROL     R21
11437	27500	  001D14   ROL     R22
11438	27501	  001D16   ROL     R23
11439	27502	  001D18   CP      R16,R24
11440	27503	  001D1A   CPC     R17,R4
11441	27504	  001D1C   CPC     R18,R30
11442	27505	  001D1E   CPC     R19,R31
11443	27506	  001D20   CPC     R20,R0
11444	27507	  001D22   CPC     R21,R1
11445	27508	  001D24   CPC     R22,R2
11446	27509	  001D26   CPC     R23,R3
11447	27510	  001D28   BRCS    0x1D02
11448	27512	  001D02   DEC     R26
11449	27513	  001D04   BRMI    0x1D3C
11450	27515	  001D3C   ST      -Y,R25
11451	27517	  001D3E   LDI     R26,0x08
11452	27518	  001D40   DEC     R27
11453	27519	  001D42   BRPL    0x1CFE
11454	27521	  001CFE   LDI     R26,0x08
11455	27522	  001D00   POP     R25
11456	27524	  001D02   DEC     R26
11457	27525	  001D04   BRMI    0x1D3C
11458	27526	  001D06   ROL     R25
11459	27527	  001D08   ROL     R16
11460	27528	  001D0A   ROL     R17
11461	27529	  001D0C   ROL     R18
11462	27530	  001D0E   ROL     R19
11463	27531	  001D10   ROL     R20
11464	27532	  001D12   ROL     R21
11465	27533	  001D14   ROL     R22
11466	27534	  001D16   ROL     R23
11467	27535	  001D18   CP      R16,R24
11468	27536	  001D1A   CPC     R17,R4
11469	27537	  001D1C   CPC     R18,R30
11470	27538	  001D1E   CPC     R19,R31
11471	27539	  001D20   CPC     R20,R0
11472	27540	  001D22   CPC     R21,R1
11473	27541	  001D24   CPC     R22,R2
11474	27542	  001D26   CPC     R23,R3
11475	27543	  001D28   BRCS    0x1D02
11476	27545	  001D02   DEC     R26
11477	27546	  001D04   BRMI    0x1D3C
11478	27547	  001D06   ROL     R25
11479	27548	  001D08   ROL     R16
11480	27549	  001D0A   ROL     R17
11481	27550	  001D0C   ROL     R18
11482	27551	  001D0E   ROL     R19
11483	27552	  001D10   ROL     R20
11484	27553	  001D12   ROL     R21
11485	27554	  001D14   ROL     R22
11486	27555	  001D16   ROL     R23
11487	27556	  001D18   CP      R16,R24
11488	27557	  001D1A   CPC     R17,R4
11489	27558	  001D1C   CPC     R18,R30
11490	27559	  001D1E   CPC     R19,R31
11491	27560	  001D20   CPC     R20,R0
11492	27561	  001D22   CPC     R21,R1
11493	27562	  001D24   CPC     R22,R2
11494	27563	  001D26   CPC     R23,R3
11495	27564	  001D28   BRCS    0x1D02
11496	27566	  001D02   DEC     R26
11497	27567	  001D04   BRMI    0x1D3C
11498	27568	  001D06   ROL     R25
11499	27569	  001D08   ROL     R16
11500	27570	  001D0A   ROL     R17
11501	27571	  001D0C   ROL     R18
11502	27572	  001D0E   ROL     R19
11503	27573	  001D10   ROL     R20
11504	27574	  001D12   ROL     R21
11505	27575	  001D14   ROL     R22
11506	27576	  001D16   ROL     R23
11507	27577	  001D18   CP      R16,R24
11508	27578	  001D1A   CPC     R17,R4
11509	27579	  001D1C   CPC     R18,R30
11510	27580	  001D1E   CPC     R19,R31
11511	27581	  001D20   CPC     R20,R0
11512	27582	  001D22   CPC     R21,R1
11513	27583	  001D24   CPC     R22,R2
11514	27584	  001D26   CPC     R23,R3
11515	27585	  001D28   BRCS    0x1D02
11516	27587	  001D02   DEC     R26
11517	27588	  001D04   BRMI    0x1D3C
11518	27589	  001D06   ROL     R25
11519	27590	  001D08   ROL     R16
11520	27591	  001D0A   ROL     R17
11521	27592	  001D0C   ROL     R18
11522	27593	  001D0E   ROL     R19
11523	27594	  001D10   ROL     R20
11524	27595	  001D12   ROL     R21
11525	27596	  001D14   ROL     R22
11526	27597	  001D16   ROL     R23
11527	27598	  001D18   CP      R16,R24
11528	27599	  001D1A   CPC     R17,R4
11529	27600	  001D1C   CPC     R18,R30
11530	27601	  001D1E   CPC     R19,R31
11531	27602	  001D20   CPC     R20,R0
11532	27603	  001D22   CPC     R21,R1
11533	27604	  001D24   CPC     R22,R2
11534	27605	  001D26   CPC     R23,R3
11535	27606	  001D28   BRCS    0x1D02
11536	27608	  001D02   DEC     R26
11537	27609	  001D04   BRMI    0x1D3C
11538	27610	  001D06   ROL     R25
11539	27611	  001D08   ROL     R16
11540	27612	  001D0A   ROL     R17
11541	27613	  001D0C   ROL     R18
11542	27614	  001D0E   ROL     R19
11543	27615	  001D10   ROL     R20
11544	27616	  001D12   ROL     R21
11545	27617	  001D14   ROL     R22
11546	27618	  001D16   ROL     R23
11547	27619	  001D18   CP      R16,R24
11548	27620	  001D1A   CPC     R17,R4
11549	27621	  001D1C   CPC     R18,R30
11550	27622	  001D1E   CPC     R19,R31
11551	27623	  001D20   CPC     R20,R0
11552	27624	  001D22   CPC     R21,R1
11553	27625	  001D24   CPC     R22,R2
11554	27626	  001D26   CPC     R23,R3
11555	27627	  001D28   BRCS    0x1D02
11556	27629	  001D02   DEC     R26
11557	27630	  001D04   BRMI    0x1D3C
11558	27631	  001D06   ROL     R25
11559	27632	  001D08   ROL     R16
11560	27633	  001D0A   ROL     R17
11561	27634	  001D0C   ROL     R18
11562	27635	  001D0E   ROL     R19
11563	27636	  001D10   ROL     R20
11564	27637	  001D12   ROL     R21
11565	27638	  001D14   ROL     R22
11566	27639	  001D16   ROL     R23
11567	27640	  001D18   CP      R16,R24
11568	27641	  001D1A   CPC     R17,R4
11569	27642	  001D1C   CPC     R18,R30
11570	27643	  001D1E   CPC     R19,R31
11571	27644	  001D20   CPC     R20,R0
11572	27645	  001D22   CPC     R21,R1
11573	27646	  001D24   CPC     R22,R2
11574	27647	  001D26   CPC     R23,R3
11575	27648	  001D28   BRCS    0x1D02
11576	27650	  001D02   DEC     R26
11577	27651	  001D04   BRMI    0x1D3C
11578	27652	  001D06   ROL     R25
11579	27653	  001D08   ROL     R16
11580	27654	  001D0A   ROL     R17
11581	27655	  001D0C   ROL     R18
11582	27656	  001D0E   ROL     R19
11583	27657	  001D10   ROL     R20
11584	27658	  001D12   ROL     R21
11585	27659	  001D14   ROL     R22
11586	27660	  001D16   ROL     R23
11587	27661	  001D18   CP      R16,R24
11588	27662	  001D1A   CPC     R17,R4
11589	27663	  001D1C   CPC     R18,R30
11590	27664	  001D1E   CPC     R19,R31
11591	27665	  001D20   CPC     R20,R0
11592	27666	  001D22   CPC     R21,R1
11593	27667	  001D24   CPC     R22,R2
11594	27668	  001D26   CPC     R23,R3
11595	27669	  001D28   BRCS    0x1D02
11596	27671	  001D02   DEC     R26
11597	27672	  001D04   BRMI    0x1D3C
11598	27673	  001D06   ROL     R25
11599	27674	  001D08   ROL     R16
11600	27675	  001D0A   ROL     R17
11601	27676	  001D0C   ROL     R18
11602	27677	  001D0E   ROL     R19
11603	27678	  001D10   ROL     R20
11604	27679	  001D12   ROL     R21
11605	27680	  001D14   ROL     R22
11606	27681	  001D16   ROL     R23
11607	27682	  001D18   CP      R16,R24
11608	27683	  001D1A   CPC     R17,R4
11609	27684	  001D1C   CPC     R18,R30
11610	27685	  001D1E   CPC     R19,R31
11611	27686	  001D20   CPC     R20,R0
11612	27687	  001D22   CPC     R21,R1
11613	27688	  001D24   CPC     R22,R2
11614	27689	  001D26   CPC     R23,R3
11615	27690	  001D28   BRCS    0x1D02
11616	27692	  001D02   DEC     R26
11617	27693	  001D04   BRMI    0x1D3C
11618	27695	  001D3C   ST      -Y,R25
11619	27697	  001D3E   LDI     R26,0x08
11620	27698	  001D40   DEC     R27
11621	27699	  001D42   BRPL    0x1CFE
11622	27701	  001CFE   LDI     R26,0x08
11623	27702	  001D00   POP     R25
11624	27704	  001D02   DEC     R26
11625	27705	  001D04   BRMI    0x1D3C
11626	27706	  001D06   ROL     R25
11627	27707	  001D08   ROL     R16
11628	27708	  001D0A   ROL     R17
11629	27709	  001D0C   ROL     R18
11630	27710	  001D0E   ROL     R19
11631	27711	  001D10   ROL     R20
11632	27712	  001D12   ROL     R21
11633	27713	  001D14   ROL     R22
11634	27714	  001D16   ROL     R23
11635	27715	  001D18   CP      R16,R24
11636	27716	  001D1A   CPC     R17,R4
11637	27717	  001D1C   CPC     R18,R30
11638	27718	  001D1E   CPC     R19,R31
11639	27719	  001D20   CPC     R20,R0
11640	27720	  001D22   CPC     R21,R1
11641	27721	  001D24   CPC     R22,R2
11642	27722	  001D26   CPC     R23,R3
11643	27723	  001D28   BRCS    0x1D02
11644	27725	  001D02   DEC     R26
11645	27726	  001D04   BRMI    0x1D3C
11646	27727	  001D06   ROL     R25
11647	27728	  001D08   ROL     R16
11648	27729	  001D0A   ROL     R17
11649	27730	  001D0C   ROL     R18
11650	27731	  001D0E   ROL     R19
11651	27732	  001D10   ROL     R20
11652	27733	  001D12   ROL     R21
11653	27734	  001D14   ROL     R22
11654	27735	  001D16   ROL     R23
11655	27736	  001D18   CP      R16,R24
11656	27737	  001D1A   CPC     R17,R4
11657	27738	  001D1C   CPC     R18,R30
11658	27739	  001D1E   CPC     R19,R31
11659	27740	  001D20   CPC     R20,R0
11660	27741	  001D22   CPC     R21,R1
11661	27742	  001D24   CPC     R22,R2
11662	27743	  001D26   CPC     R23,R3
11663	27744	  001D28   BRCS    0x1D02
11664	27746	  001D02   DEC     R26
11665	27747	  001D04   BRMI    0x1D3C
11666	27748	  001D06   ROL     R25
11667	27749	  001D08   ROL     R16
11668	27750	  001D0A   ROL     R17
11669	27751	  001D0C   ROL     R18
11670	27752	  001D0E   ROL     R19
11671	27753	  001D10   ROL     R20
11672	27754	  001D12   ROL     R21
11673	27755	  001D14   ROL     R22
11674	27756	  001D16   ROL     R23
11675	27757	  001D18   CP      R16,R24
11676	27758	  001D1A   CPC     R17,R4
11677	27759	  001D1C   CPC     R18,R30
11678	27760	  001D1E   CPC     R19,R31
11679	27761	  001D20   CPC     R20,R0
11680	27762	  001D22   CPC     R21,R1
11681	27763	  001D24   CPC     R22,R2
11682	27764	  001D26   CPC     R23,R3
11683	27765	  001D28   BRCS    0x1D02
11684	27767	  001D02   DEC     R26
11685	27768	  001D04   BRMI    0x1D3C
11686	27769	  001D06   ROL     R25
11687	27770	  001D08   ROL     R16
11688	27771	  001D0A   ROL     R17
11689	27772	  001D0C   ROL     R18
11690	27773	  001D0E   ROL     R19
11691	27774	  001D10   ROL     R20
11692	27775	  001D12   ROL     R21
11693	27776	  001D14   ROL     R22
11694	27777	  001D16   ROL     R23
11695	27778	  001D18   CP      R16,R24
11696	27779	  001D1A   CPC     R17,R4
11697	27780	  001D1C   CPC     R18,R30
11698	27781	  001D1E   CPC     R19,R31
11699	27782	  001D20   CPC     R20,R0
11700	27783	  001D22   CPC     R21,R1
11701	27784	  001D24   CPC     R22,R2
11702	27785	  001D26   CPC     R23,R3
11703	27786	  001D28   BRCS    0x1D02
11704	27788	  001D02   DEC     R26
11705	27789	  001D04   BRMI    0x1D3C
11706	27790	  001D06   ROL     R25
11707	27791	  001D08   ROL     R16
11708	27792	  001D0A   ROL     R17
11709	27793	  001D0C   ROL     R18
11710	27794	  001D0E   ROL     R19
11711	27795	  001D10   ROL     R20
11712	27796	  001D12   ROL     R21
11713	27797	  001D14   ROL     R22
11714	27798	  001D16   ROL     R23
11715	27799	  001D18   CP      R16,R24
11716	27800	  001D1A   CPC     R17,R4
11717	27801	  001D1C   CPC     R18,R30
11718	27802	  001D1E   CPC     R19,R31
11719	27803	  001D20   CPC     R20,R0
11720	27804	  001D22   CPC     R21,R1
11721	27805	  001D24   CPC     R22,R2
11722	27806	  001D26   CPC     R23,R3
11723	27807	  001D28   BRCS    0x1D02
11724	27809	  001D02   DEC     R26
11725	27810	  001D04   BRMI    0x1D3C
11726	27811	  001D06   ROL     R25
11727	27812	  001D08   ROL     R16
11728	27813	  001D0A   ROL     R17
11729	27814	  001D0C   ROL     R18
11730	27815	  001D0E   ROL     R19
11731	27816	  001D10   ROL     R20
11732	27817	  001D12   ROL     R21
11733	27818	  001D14   ROL     R22
11734	27819	  001D16   ROL     R23
11735	27820	  001D18   CP      R16,R24
11736	27821	  001D1A   CPC     R17,R4
11737	27822	  001D1C   CPC     R18,R30
11738	27823	  001D1E   CPC     R19,R31
11739	27824	  001D20   CPC     R20,R0
11740	27825	  001D22   CPC     R21,R1
11741	27826	  001D24   CPC     R22,R2
11742	27827	  001D26   CPC     R23,R3
11743	27828	  001D28   BRCS    0x1D02
11744	27830	  001D02   DEC     R26
11745	27831	  001D04   BRMI    0x1D3C
11746	27832	  001D06   ROL     R25
11747	27833	  001D08   ROL     R16
11748	27834	  001D0A   ROL     R17
11749	27835	  001D0C   ROL     R18
11750	27836	  001D0E   ROL     R19
11751	27837	  001D10   ROL     R20
11752	27838	  001D12   ROL     R21
11753	27839	  001D14   ROL     R22
11754	27840	  001D16   ROL     R23
11755	27841	  001D18   CP      R16,R24
11756	27842	  001D1A   CPC     R17,R4
11757	27843	  001D1C   CPC     R18,R30
11758	27844	  001D1E   CPC     R19,R31
11759	27845	  001D20   CPC     R20,R0
11760	27846	  001D22   CPC     R21,R1
11761	27847	  001D24   CPC     R22,R2
11762	27848	  001D26   CPC     R23,R3
11763	27849	  001D28   BRCS    0x1D02
11764	27851	  001D02   DEC     R26
11765	27852	  001D04   BRMI    0x1D3C
11766	27853	  001D06   ROL     R25
11767	27854	  001D08   ROL     R16
11768	27855	  001D0A   ROL     R17
11769	27856	  001D0C   ROL     R18
11770	27857	  001D0E   ROL     R19
11771	27858	  001D10   ROL     R20
11772	27859	  001D12   ROL     R21
11773	27860	  001D14   ROL     R22
11774	27861	  001D16   ROL     R23
11775	27862	  001D18   CP      R16,R24
11776	27863	  001D1A   CPC     R17,R4
11777	27864	  001D1C   CPC     R18,R30
11778	27865	  001D1E   CPC     R19,R31
11779	27866	  001D20   CPC     R20,R0
11780	27867	  001D22   CPC     R21,R1
11781	27868	  001D24   CPC     R22,R2
11782	27869	  001D26   CPC     R23,R3
11783	27870	  001D28   BRCS    0x1D02
11784	27872	  001D02   DEC     R26
11785	27873	  001D04   BRMI    0x1D3C
11786	27875	  001D3C   ST      -Y,R25
11787	27877	  001D3E   LDI     R26,0x08
11788	27878	  001D40   DEC     R27
11789	27879	  001D42   BRPL    0x1CFE
11790	27881	  001CFE   LDI     R26,0x08
11791	27882	  001D00   POP     R25
11792	27884	  001D02   DEC     R26
11793	27885	  001D04   BRMI    0x1D3C
11794	27886	  001D06   ROL     R25
11795	27887	  001D08   ROL     R16
11796	27888	  001D0A   ROL     R17
11797	27889	  001D0C   ROL     R18
11798	27890	  001D0E   ROL     R19
11799	27891	  001D10   ROL     R20
11800	27892	  001D12   ROL     R21
11801	27893	  001D14   ROL     R22
11802	27894	  001D16   ROL     R23
11803	27895	  001D18   CP      R16,R24
11804	27896	  001D1A   CPC     R17,R4
11805	27897	  001D1C   CPC     R18,R30
11806	27898	  001D1E   CPC     R19,R31
11807	27899	  001D20   CPC     R20,R0
11808	27900	  001D22   CPC     R21,R1
11809	27901	  001D24   CPC     R22,R2
11810	27902	  001D26   CPC     R23,R3
11811	27903	  001D28   BRCS    0x1D02
11812	27905	  001D02   DEC     R26
11813	27906	  001D04   BRMI    0x1D3C
11814	27907	  001D06   ROL     R25
11815	27908	  001D08   ROL     R16
11816	27909	  001D0A   ROL     R17
11817	27910	  001D0C   ROL     R18
11818	27911	  001D0E   ROL     R19
11819	27912	  001D10   ROL     R20
11820	27913	  001D12   ROL     R21
11821	27914	  001D14   ROL     R22
11822	27915	  001D16   ROL     R23
11823	27916	  001D18   CP      R16,R24
11824	27917	  001D1A   CPC     R17,R4
11825	27918	  001D1C   CPC     R18,R30
11826	27919	  001D1E   CPC     R19,R31
11827	27920	  001D20   CPC     R20,R0
11828	27921	  001D22   CPC     R21,R1
11829	27922	  001D24   CPC     R22,R2
11830	27923	  001D26   CPC     R23,R3
11831	27924	  001D28   BRCS    0x1D02
11832	27926	  001D02   DEC     R26
11833	27927	  001D04   BRMI    0x1D3C
11834	27928	  001D06   ROL     R25
11835	27929	  001D08   ROL     R16
11836	27930	  001D0A   ROL     R17
11837	27931	  001D0C   ROL     R18
11838	27932	  001D0E   ROL     R19
11839	27933	  001D10   ROL     R20
11840	27934	  001D12   ROL     R21
11841	27935	  001D14   ROL     R22
11842	27936	  001D16   ROL     R23
11843	27937	  001D18   CP      R16,R24
11844	27938	  001D1A   CPC     R17,R4
11845	27939	  001D1C   CPC     R18,R30
11846	27940	  001D1E   CPC     R19,R31
11847	27941	  001D20   CPC     R20,R0
11848	27942	  001D22   CPC     R21,R1
11849	27943	  001D24   CPC     R22,R2
11850	27944	  001D26   CPC     R23,R3
11851	27945	  001D28   BRCS    0x1D02
11852	27947	  001D02   DEC     R26
11853	27948	  001D04   BRMI    0x1D3C
11854	27949	  001D06   ROL     R25
11855	27950	  001D08   ROL     R16
11856	27951	  001D0A   ROL     R17
11857	27952	  001D0C   ROL     R18
11858	27953	  001D0E   ROL     R19
11859	27954	  001D10   ROL     R20
11860	27955	  001D12   ROL     R21
11861	27956	  001D14   ROL     R22
11862	27957	  001D16   ROL     R23
11863	27958	  001D18   CP      R16,R24
11864	27959	  001D1A   CPC     R17,R4
11865	27960	  001D1C   CPC     R18,R30
11866	27961	  001D1E   CPC     R19,R31
11867	27962	  001D20   CPC     R20,R0
11868	27963	  001D22   CPC     R21,R1
11869	27964	  001D24   CPC     R22,R2
11870	27965	  001D26   CPC     R23,R3
11871	27966	  001D28   BRCS    0x1D02
11872	27968	  001D02   DEC     R26
11873	27969	  001D04   BRMI    0x1D3C
11874	27970	  001D06   ROL     R25
11875	27971	  001D08   ROL     R16
11876	27972	  001D0A   ROL     R17
11877	27973	  001D0C   ROL     R18
11878	27974	  001D0E   ROL     R19
11879	27975	  001D10   ROL     R20
11880	27976	  001D12   ROL     R21
11881	27977	  001D14   ROL     R22
11882	27978	  001D16   ROL     R23
11883	27979	  001D18   CP      R16,R24
11884	27980	  001D1A   CPC     R17,R4
11885	27981	  001D1C   CPC     R18,R30
11886	27982	  001D1E   CPC     R19,R31
11887	27983	  001D20   CPC     R20,R0
11888	27984	  001D22   CPC     R21,R1
11889	27985	  001D24   CPC     R22,R2
11890	27986	  001D26   CPC     R23,R3
11891	27987	  001D28   BRCS    0x1D02
11892	27989	  001D02   DEC     R26
11893	27990	  001D04   BRMI    0x1D3C
11894	27991	  001D06   ROL     R25
11895	27992	  001D08   ROL     R16
11896	27993	  001D0A   ROL     R17
11897	27994	  001D0C   ROL     R18
11898	27995	  001D0E   ROL     R19
11899	27996	  001D10   ROL     R20
11900	27997	  001D12   ROL     R21
11901	27998	  001D14   ROL     R22
11902	27999	  001D16   ROL     R23
11903	28000	  001D18   CP      R16,R24
11904	28001	  001D1A   CPC     R17,R4
11905	28002	  001D1C   CPC     R18,R30
11906	28003	  001D1E   CPC     R19,R31
11907	28004	  001D20   CPC     R20,R0
11908	28005	  001D22   CPC     R21,R1
11909	28006	  001D24   CPC     R22,R2
11910	28007	  001D26   CPC     R23,R3
11911	28008	  001D28   BRCS    0x1D02
11912	28010	  001D02   DEC     R26
11913	28011	  001D04   BRMI    0x1D3C
11914	28012	  001D06   ROL     R25
11915	28013	  001D08   ROL     R16
11916	28014	  001D0A   ROL     R17
11917	28015	  001D0C   ROL     R18
11918	28016	  001D0E   ROL     R19
11919	28017	  001D10   ROL     R20
11920	28018	  001D12   ROL     R21
11921	28019	  001D14   ROL     R22
11922	28020	  001D16   ROL     R23
11923	28021	  001D18   CP      R16,R24
11924	28022	  001D1A   CPC     R17,R4
11925	28023	  001D1C   CPC     R18,R30
11926	28024	  001D1E   CPC     R19,R31
11927	28025	  001D20   CPC     R20,R0
11928	28026	  001D22   CPC     R21,R1
11929	28027	  001D24   CPC     R22,R2
11930	28028	  001D26   CPC     R23,R3
11931	28029	  001D28   BRCS    0x1D02
11932	28031	  001D02   DEC     R26
11933	28032	  001D04   BRMI    0x1D3C
11934	28033	  001D06   ROL     R25
11935	28034	  001D08   ROL     R16
11936	28035	  001D0A   ROL     R17
11937	28036	  001D0C   ROL     R18
11938	28037	  001D0E   ROL     R19
11939	28038	  001D10   ROL     R20
11940	28039	  001D12   ROL     R21
11941	28040	  001D14   ROL     R22
11942	28041	  001D16   ROL     R23
11943	28042	  001D18   CP      R16,R24
11944	28043	  001D1A   CPC     R17,R4
11945	28044	  001D1C   CPC     R18,R30
11946	28045	  001D1E   CPC     R19,R31
11947	28046	  001D20   CPC     R20,R0
11948	28047	  001D22   CPC     R21,R1
11949	28048	  001D24   CPC     R22,R2
11950	28049	  001D26   CPC     R23,R3
11951	28050	  001D28   BRCS    0x1D02
11952	28052	  001D02   DEC     R26
11953	28053	  001D04   BRMI    0x1D3C
11954	28055	  001D3C   ST      -Y,R25
11955	28057	  001D3E   LDI     R26,0x08
11956	28058	  001D40   DEC     R27
11957	28059	  001D42   BRPL    0x1CFE
11958	28061	  001CFE   LDI     R26,0x08
11959	28062	  001D00   POP     R25
11960	28064	  001D02   DEC     R26
11961	28065	  001D04   BRMI    0x1D3C
11962	28066	  001D06   ROL     R25
11963	28067	  001D08   ROL     R16
11964	28068	  001D0A   ROL     R17
11965	28069	  001D0C   ROL     R18
11966	28070	  001D0E   ROL     R19
11967	28071	  001D10   ROL     R20
11968	28072	  001D12   ROL     R21
11969	28073	  001D14   ROL     R22
11970	28074	  001D16   ROL     R23
11971	28075	  001D18   CP      R16,R24
11972	28076	  001D1A   CPC     R17,R4
11973	28077	  001D1C   CPC     R18,R30
11974	28078	  001D1E   CPC     R19,R31
11975	28079	  001D20   CPC     R20,R0
11976	28080	  001D22   CPC     R21,R1
11977	28081	  001D24   CPC     R22,R2
11978	28082	  001D26   CPC     R23,R3
11979	28083	  001D28   BRCS    0x1D02
11980	28085	  001D02   DEC     R26
11981	28086	  001D04   BRMI    0x1D3C
11982	28087	  001D06   ROL     R25
11983	28088	  001D08   ROL     R16
11984	28089	  001D0A   ROL     R17
11985	28090	  001D0C   ROL     R18
11986	28091	  001D0E   ROL     R19
11987	28092	  001D10   ROL     R20
11988	28093	  001D12   ROL     R21
11989	28094	  001D14   ROL     R22
11990	28095	  001D16   ROL     R23
11991	28096	  001D18   CP      R16,R24
11992	28097	  001D1A   CPC     R17,R4
11993	28098	  001D1C   CPC     R18,R30
11994	28099	  001D1E   CPC     R19,R31
11995	28100	  001D20   CPC     R20,R0
11996	28101	  001D22   CPC     R21,R1
11997	28102	  001D24   CPC     R22,R2
11998	28103	  001D26   CPC     R23,R3
11999	28104	  001D28   BRCS    0x1D02
12000	28106	  001D02   DEC     R26
12001	28107	  001D04   BRMI    0x1D3C
12002	28108	  001D06   ROL     R25
12003	28109	  001D08   ROL     R16
12004	28110	  001D0A   ROL     R17
12005	28111	  001D0C   ROL     R18
12006	28112	  001D0E   ROL     R19
12007	28113	  001D10   ROL     R20
12008	28114	  001D12   ROL     R21
12009	28115	  001D14   ROL     R22
12010	28116	  001D16   ROL     R23
12011	28117	  001D18   CP      R16,R24
12012	28118	  001D1A   CPC     R17,R4
12013	28119	  001D1C   CPC     R18,R30
12014	28120	  001D1E   CPC     R19,R31
12015	28121	  001D20   CPC     R20,R0
12016	28122	  001D22   CPC     R21,R1
12017	28123	  001D24   CPC     R22,R2
12018	28124	  001D26   CPC     R23,R3
12019	28125	  001D28   BRCS    0x1D02
12020	28127	  001D02   DEC     R26
12021	28128	  001D04   BRMI    0x1D3C
12022	28129	  001D06   ROL     R25
12023	28130	  001D08   ROL     R16
12024	28131	  001D0A   ROL     R17
12025	28132	  001D0C   ROL     R18
12026	28133	  001D0E   ROL     R19
12027	28134	  001D10   ROL     R20
12028	28135	  001D12   ROL     R21
12029	28136	  001D14   ROL     R22
12030	28137	  001D16   ROL     R23
12031	28138	  001D18   CP      R16,R24
12032	28139	  001D1A   CPC     R17,R4
12033	28140	  001D1C   CPC     R18,R30
12034	28141	  001D1E   CPC     R19,R31
12035	28142	  001D20   CPC     R20,R0
12036	28143	  001D22   CPC     R21,R1
12037	28144	  001D24   CPC     R22,R2
12038	28145	  001D26   CPC     R23,R3
12039	28146	  001D28   BRCS    0x1D02
12040	28148	  001D02   DEC     R26
12041	28149	  001D04   BRMI    0x1D3C
12042	28150	  001D06   ROL     R25
12043	28151	  001D08   ROL     R16
12044	28152	  001D0A   ROL     R17
12045	28153	  001D0C   ROL     R18
12046	28154	  001D0E   ROL     R19
12047	28155	  001D10   ROL     R20
12048	28156	  001D12   ROL     R21
12049	28157	  001D14   ROL     R22
12050	28158	  001D16   ROL     R23
12051	28159	  001D18   CP      R16,R24
12052	28160	  001D1A   CPC     R17,R4
12053	28161	  001D1C   CPC     R18,R30
12054	28162	  001D1E   CPC     R19,R31
12055	28163	  001D20   CPC     R20,R0
12056	28164	  001D22   CPC     R21,R1
12057	28165	  001D24   CPC     R22,R2
12058	28166	  001D26   CPC     R23,R3
12059	28167	  001D28   BRCS    0x1D02
12060	28169	  001D02   DEC     R26
12061	28170	  001D04   BRMI    0x1D3C
12062	28171	  001D06   ROL     R25
12063	28172	  001D08   ROL     R16
12064	28173	  001D0A   ROL     R17
12065	28174	  001D0C   ROL     R18
12066	28175	  001D0E   ROL     R19
12067	28176	  001D10   ROL     R20
12068	28177	  001D12   ROL     R21
12069	28178	  001D14   ROL     R22
12070	28179	  001D16   ROL     R23
12071	28180	  001D18   CP      R16,R24
12072	28181	  001D1A   CPC     R17,R4
12073	28182	  001D1C   CPC     R18,R30
12074	28183	  001D1E   CPC     R19,R31
12075	28184	  001D20   CPC     R20,R0
12076	28185	  001D22   CPC     R21,R1
12077	28186	  001D24   CPC     R22,R2
12078	28187	  001D26   CPC     R23,R3
12079	28188	  001D28   BRCS    0x1D02
12080	28190	  001D02   DEC     R26
12081	28191	  001D04   BRMI    0x1D3C
12082	28192	  001D06   ROL     R25
12083	28193	  001D08   ROL     R16
12084	28194	  001D0A   ROL     R17
12085	28195	  001D0C   ROL     R18
12086	28196	  001D0E   ROL     R19
12087	28197	  001D10   ROL     R20
12088	28198	  001D12   ROL     R21
12089	28199	  001D14   ROL     R22
12090	28200	  001D16   ROL     R23
12091	28201	  001D18   CP      R16,R24
12092	28202	  001D1A   CPC     R17,R4
12093	28203	  001D1C   CPC     R18,R30
12094	28204	  001D1E   CPC     R19,R31
12095	28205	  001D20   CPC     R20,R0
12096	28206	  001D22   CPC     R21,R1
12097	28207	  001D24   CPC     R22,R2
12098	28208	  001D26   CPC     R23,R3
12099	28209	  001D28   BRCS    0x1D02
12100	28211	  001D02   DEC     R26
12101	28212	  001D04   BRMI    0x1D3C
12102	28213	  001D06   ROL     R25
12103	28214	  001D08   ROL     R16
12104	28215	  001D0A   ROL     R17
12105	28216	  001D0C   ROL     R18
12106	28217	  001D0E   ROL     R19
12107	28218	  001D10   ROL     R20
12108	28219	  001D12   ROL     R21
12109	28220	  001D14   ROL     R22
12110	28221	  001D16   ROL     R23
12111	28222	  001D18   CP      R16,R24
12112	28223	  001D1A   CPC     R17,R4
12113	28224	  001D1C   CPC     R18,R30
12114	28225	  001D1E   CPC     R19,R31
12115	28226	  001D20   CPC     R20,R0
12116	28227	  001D22   CPC     R21,R1
12117	28228	  001D24   CPC     R22,R2
12118	28229	  001D26   CPC     R23,R3
12119	28230	  001D28   BRCS    0x1D02
12120	28232	  001D02   DEC     R26
12121	28233	  001D04   BRMI    0x1D3C
12122	28235	  001D3C   ST      -Y,R25
12123	28237	  001D3E   LDI     R26,0x08
12124	28238	  001D40   DEC     R27
12125	28239	  001D42   BRPL    0x1CFE
12126	28241	  001CFE   LDI     R26,0x08
12127	28242	  001D00   POP     R25
12128	28244	  001D02   DEC     R26
12129	28245	  001D04   BRMI    0x1D3C
12130	28246	  001D06   ROL     R25
12131	28247	  001D08   ROL     R16
12132	28248	  001D0A   ROL     R17
12133	28249	  001D0C   ROL     R18
12134	28250	  001D0E   ROL     R19
12135	28251	  001D10   ROL     R20
12136	28252	  001D12   ROL     R21
12137	28253	  001D14   ROL     R22
12138	28254	  001D16   ROL     R23
12139	28255	  001D18   CP      R16,R24
12140	28256	  001D1A   CPC     R17,R4
12141	28257	  001D1C   CPC     R18,R30
12142	28258	  001D1E   CPC     R19,R31
12143	28259	  001D20   CPC     R20,R0
12144	28260	  001D22   CPC     R21,R1
12145	28261	  001D24   CPC     R22,R2
12146	28262	  001D26   CPC     R23,R3
12147	28263	  001D28   BRCS    0x1D02
12148	28265	  001D02   DEC     R26
12149	28266	  001D04   BRMI    0x1D3C
12150	28267	  001D06   ROL     R25
12151	28268	  001D08   ROL     R16
12152	28269	  001D0A   ROL     R17
12153	28270	  001D0C   ROL     R18
12154	28271	  001D0E   ROL     R19
12155	28272	  001D10   ROL     R20
12156	28273	  001D12   ROL     R21
12157	28274	  001D14   ROL     R22
12158	28275	  001D16   ROL     R23
12159	28276	  001D18   CP      R16,R24
12160	28277	  001D1A   CPC     R17,R4
12161	28278	  001D1C   CPC     R18,R30
12162	28279	  001D1E   CPC     R19,R31
12163	28280	  001D20   CPC     R20,R0
12164	28281	  001D22   CPC     R21,R1
12165	28282	  001D24   CPC     R22,R2
12166	28283	  001D26   CPC     R23,R3
12167	28284	  001D28   BRCS    0x1D02
12168	28286	  001D02   DEC     R26
12169	28287	  001D04   BRMI    0x1D3C
12170	28288	  001D06   ROL     R25
12171	28289	  001D08   ROL     R16
12172	28290	  001D0A   ROL     R17
12173	28291	  001D0C   ROL     R18
12174	28292	  001D0E   ROL     R19
12175	28293	  001D10   ROL     R20
12176	28294	  001D12   ROL     R21
12177	28295	  001D14   ROL     R22
12178	28296	  001D16   ROL     R23
12179	28297	  001D18   CP      R16,R24
12180	28298	  001D1A   CPC     R17,R4
12181	28299	  001D1C   CPC     R18,R30
12182	28300	  001D1E   CPC     R19,R31
12183	28301	  001D20   CPC     R20,R0
12184	28302	  001D22   CPC     R21,R1
12185	28303	  001D24   CPC     R22,R2
12186	28304	  001D26   CPC     R23,R3
12187	28305	  001D28   BRCS    0x1D02
12188	28307	  001D02   DEC     R26
12189	28308	  001D04   BRMI    0x1D3C
12190	28309	  001D06   ROL     R25
12191	28310	  001D08   ROL     R16
12192	28311	  001D0A   ROL     R17
12193	28312	  001D0C   ROL     R18
12194	28313	  001D0E   ROL     R19
12195	28314	  001D10   ROL     R20
12196	28315	  001D12   ROL     R21
12197	28316	  001D14   ROL     R22
12198	28317	  001D16   ROL     R23
12199	28318	  001D18   CP      R16,R24
12200	28319	  001D1A   CPC     R17,R4
12201	28320	  001D1C   CPC     R18,R30
12202	28321	  001D1E   CPC     R19,R31
12203	28322	  001D20   CPC     R20,R0
12204	28323	  001D22   CPC     R21,R1
12205	28324	  001D24   CPC     R22,R2
12206	28325	  001D26   CPC     R23,R3
12207	28326	  001D28   BRCS    0x1D02
12208	28328	  001D02   DEC     R26
12209	28329	  001D04   BRMI    0x1D3C
12210	28330	  001D06   ROL     R25
12211	28331	  001D08   ROL     R16
12212	28332	  001D0A   ROL     R17
12213	28333	  001D0C   ROL     R18
12214	28334	  001D0E   ROL     R19
12215	28335	  001D10   ROL     R20
12216	28336	  001D12   ROL     R21
12217	28337	  001D14   ROL     R22
12218	28338	  001D16   ROL     R23
12219	28339	  001D18   CP      R16,R24
12220	28340	  001D1A   CPC     R17,R4
12221	28341	  001D1C   CPC     R18,R30
12222	28342	  001D1E   CPC     R19,R31
12223	28343	  001D20   CPC     R20,R0
12224	28344	  001D22   CPC     R21,R1
12225	28345	  001D24   CPC     R22,R2
12226	28346	  001D26   CPC     R23,R3
12227	28347	  001D28   BRCS    0x1D02
12228	28349	  001D02   DEC     R26
12229	28350	  001D04   BRMI    0x1D3C
12230	28351	  001D06   ROL     R25
12231	28352	  001D08   ROL     R16
12232	28353	  001D0A   ROL     R17
12233	28354	  001D0C   ROL     R18
12234	28355	  001D0E   ROL     R19
12235	28356	  001D10   ROL     R20
12236	28357	  001D12   ROL     R21
12237	28358	  001D14   ROL     R22
12238	28359	  001D16   ROL     R23
12239	28360	  001D18   CP      R16,R24
12240	28361	  001D1A   CPC     R17,R4
12241	28362	  001D1C   CPC     R18,R30
12242	28363	  001D1E   CPC     R19,R31
12243	28364	  001D20   CPC     R20,R0
12244	28365	  001D22   CPC     R21,R1
12245	28366	  001D24   CPC     R22,R2
12246	28367	  001D26   CPC     R23,R3
12247	28368	  001D28   BRCS    0x1D02
12248	28370	  001D02   DEC     R26
12249	28371	  001D04   BRMI    0x1D3C
12250	28372	  001D06   ROL     R25
12251	28373	  001D08   ROL     R16
12252	28374	  001D0A   ROL     R17
12253	28375	  001D0C   ROL     R18
12254	28376	  001D0E   ROL     R19
12255	28377	  001D10   ROL     R20
12256	28378	  001D12   ROL     R21
12257	28379	  001D14   ROL     R22
12258	28380	  001D16   ROL     R23
12259	28381	  001D18   CP      R16,R24
12260	28382	  001D1A   CPC     R17,R4
12261	28383	  001D1C   CPC     R18,R30
12262	28384	  001D1E   CPC     R19,R31
12263	28385	  001D20   CPC     R20,R0
12264	28386	  001D22   CPC     R21,R1
12265	28387	  001D24   CPC     R22,R2
12266	28388	  001D26   CPC     R23,R3
12267	28389	  001D28   BRCS    0x1D02
12268	28391	  001D02   DEC     R26
12269	28392	  001D04   BRMI    0x1D3C
12270	28393	  001D06   ROL     R25
12271	28394	  001D08   ROL     R16
12272	28395	  001D0A   ROL     R17
12273	28396	  001D0C   ROL     R18
12274	28397	  001D0E   ROL     R19
12275	28398	  001D10   ROL     R20
12276	28399	  001D12   ROL     R21
12277	28400	  001D14   ROL     R22
12278	28401	  001D16   ROL     R23
12279	28402	  001D18   CP      R16,R24
12280	28403	  001D1A   CPC     R17,R4
12281	28404	  001D1C   CPC     R18,R30
12282	28405	  001D1E   CPC     R19,R31
12283	28406	  001D20   CPC     R20,R0
12284	28407	  001D22   CPC     R21,R1
12285	28408	  001D24   CPC     R22,R2
12286	28409	  001D26   CPC     R23,R3
12287	28410	  001D28   BRCS    0x1D02
12288	28412	  001D02   DEC     R26
12289	28413	  001D04   BRMI    0x1D3C
12290	28415	  001D3C   ST      -Y,R25
12291	28417	  001D3E   LDI     R26,0x08
12292	28418	  001D40   DEC     R27
12293	28419	  001D42   BRPL    0x1CFE
12294	28420	  001D44   RET
12295	28424	  001D4A   ADIW    R28,8
12296	28426	  001D4C   RJMP    DIV_MOD_EPILOGUE
		DIV_MOD_EPILOGUE:
12297	28428	  001CD6   LD      R27,Y+
12298	28430	  001CD8   LD      R26,Y+
12299	28432	  001CDA   LD      R25,Y+
12300	28434	  001CDC   LD      R24,Y+
12301	28436	  001CDE   LD      R4,Y+
12302	28438	  001CE0   RET
12303	28442	  002A64   SUBI    R16,0xD0
12304	28443	  002A66   MOV     R17,R16
12305	28444	  002A68   CPI     R16,0x3A
12306	28445	  002A6A   BRCS    0x2A72
12307	28447	  002A72   LDD     R6,Y+5
12308	28449	  002A74   LDD     R7,Y+6
12309	28451	  002A76   ADD     R6,R4
12310	28452	  002A78   ADC     R7,R5
12311	28453	  002A7A   MOVW    R30,R6
12312	28454	  002A7C   ST      Z,R17
12313	28456	  002A7E   RCALL   0x2B80
12314	28459	  002B80   LDD     R16,Y+3
12315	28461	  002B82   LDD     R17,Y+4
12316	28463	  002B84   RCALL   0x2B98
12317	28466	  002B98   MOV     R18,R17
12318	28467	  002B9A   LSL     R18
12319	28468	  002B9C   SBC     R18,R18
12320	28469	  002B9E   RET
12321	28473	  002B86   STD     Y+7,R16
12322	28475	  002B88   STD     Y+8,R17
12323	28477	  002B8A   STD     Y+9,R18
12324	28479	  002B8C   STD     Y+10,R18
12325	28481	  002B8E   STD     Y+11,R18
12326	28483	  002B90   STD     Y+12,R18
12327	28485	  002B92   STD     Y+13,R18
12328	28487	  002B94   STD     Y+14,R18
12329	28489	  002B96   RET
12330	28493	  002A80   RCALL   0x2B5C
12331	28496	  002B5C   MOVW    R16,R8
12332	28497	  002B5E   MOVW    R18,R10
12333	28498	  002B60   MOVW    R20,R12
12334	28499	  002B62   MOVW    R22,R14
12335	28500	  002B64   RET
12336	28504	  002A82   MOVW    R26,R28
12337	28505	  002A84   ADIW    R26,7
12338	28507	  002A86   CALL    ?Register_R10_is_cg_reg
		?Register_R10_is_cg_reg:
		?Register_R11_is_cg_reg:
		?Register_R12_is_cg_reg:
		?Register_R13_is_cg_reg:
		?Register_R14_is_cg_reg... +8 symbols not displayed:
12339	28511	  001C84   RCALL   DIV_MOD_PROLOGUE
		DIV_MOD_PROLOGUE:
12340	28514	  001C8A   ST      -Y,R4
12341	28516	  001C8C   ST      -Y,R24
12342	28518	  001C8E   ST      -Y,R25
12343	28520	  001C90   ST      -Y,R26
12344	28522	  001C92   ST      -Y,R27
12345	28524	  001C94   LD      R24,X+
12346	28526	  001C96   LD      R4,X+
12347	28528	  001C98   LD      R30,X+
12348	28530	  001C9A   LD      R31,X+
12349	28532	  001C9C   LD      R0,X+
12350	28534	  001C9E   LD      R1,X+
12351	28536	  001CA0   LD      R2,X+
12352	28538	  001CA2   LD      R3,X
12353	28540	  001CA4   RET
12354	28544	  001C86   RCALL   DIV_MOD_BODY
		DIV_MOD_BODY:
12355	28547	  001CE2   PUSH    R16
12356	28549	  001CE4   PUSH    R17
12357	28551	  001CE6   PUSH    R18
12358	28553	  001CE8   PUSH    R19
12359	28555	  001CEA   PUSH    R20
12360	28557	  001CEC   PUSH    R21
12361	28559	  001CEE   PUSH    R22
12362	28561	  001CF0   PUSH    R23
12363	28563	  001CF2   CLR     R16
12364	28564	  001CF4   CLR     R17
12365	28565	  001CF6   MOVW    R18,R16
12366	28566	  001CF8   MOVW    R20,R16
12367	28567	  001CFA   MOVW    R22,R16
12368	28568	  001CFC   LDI     R27,0x07
12369	28569	  001CFE   LDI     R26,0x08
12370	28570	  001D00   POP     R25
12371	28572	  001D02   DEC     R26
12372	28573	  001D04   BRMI    0x1D3C
12373	28574	  001D06   ROL     R25
12374	28575	  001D08   ROL     R16
12375	28576	  001D0A   ROL     R17
12376	28577	  001D0C   ROL     R18
12377	28578	  001D0E   ROL     R19
12378	28579	  001D10   ROL     R20
12379	28580	  001D12   ROL     R21
12380	28581	  001D14   ROL     R22
12381	28582	  001D16   ROL     R23
12382	28583	  001D18   CP      R16,R24
12383	28584	  001D1A   CPC     R17,R4
12384	28585	  001D1C   CPC     R18,R30
12385	28586	  001D1E   CPC     R19,R31
12386	28587	  001D20   CPC     R20,R0
12387	28588	  001D22   CPC     R21,R1
12388	28589	  001D24   CPC     R22,R2
12389	28590	  001D26   CPC     R23,R3
12390	28591	  001D28   BRCS    0x1D02
12391	28593	  001D02   DEC     R26
12392	28594	  001D04   BRMI    0x1D3C
12393	28595	  001D06   ROL     R25
12394	28596	  001D08   ROL     R16
12395	28597	  001D0A   ROL     R17
12396	28598	  001D0C   ROL     R18
12397	28599	  001D0E   ROL     R19
12398	28600	  001D10   ROL     R20
12399	28601	  001D12   ROL     R21
12400	28602	  001D14   ROL     R22
12401	28603	  001D16   ROL     R23
12402	28604	  001D18   CP      R16,R24
12403	28605	  001D1A   CPC     R17,R4
12404	28606	  001D1C   CPC     R18,R30
12405	28607	  001D1E   CPC     R19,R31
12406	28608	  001D20   CPC     R20,R0
12407	28609	  001D22   CPC     R21,R1
12408	28610	  001D24   CPC     R22,R2
12409	28611	  001D26   CPC     R23,R3
12410	28612	  001D28   BRCS    0x1D02
12411	28614	  001D02   DEC     R26
12412	28615	  001D04   BRMI    0x1D3C
12413	28616	  001D06   ROL     R25
12414	28617	  001D08   ROL     R16
12415	28618	  001D0A   ROL     R17
12416	28619	  001D0C   ROL     R18
12417	28620	  001D0E   ROL     R19
12418	28621	  001D10   ROL     R20
12419	28622	  001D12   ROL     R21
12420	28623	  001D14   ROL     R22
12421	28624	  001D16   ROL     R23
12422	28625	  001D18   CP      R16,R24
12423	28626	  001D1A   CPC     R17,R4
12424	28627	  001D1C   CPC     R18,R30
12425	28628	  001D1E   CPC     R19,R31
12426	28629	  001D20   CPC     R20,R0
12427	28630	  001D22   CPC     R21,R1
12428	28631	  001D24   CPC     R22,R2
12429	28632	  001D26   CPC     R23,R3
12430	28633	  001D28   BRCS    0x1D02
12431	28635	  001D02   DEC     R26
12432	28636	  001D04   BRMI    0x1D3C
12433	28637	  001D06   ROL     R25
12434	28638	  001D08   ROL     R16
12435	28639	  001D0A   ROL     R17
12436	28640	  001D0C   ROL     R18
12437	28641	  001D0E   ROL     R19
12438	28642	  001D10   ROL     R20
12439	28643	  001D12   ROL     R21
12440	28644	  001D14   ROL     R22
12441	28645	  001D16   ROL     R23
12442	28646	  001D18   CP      R16,R24
12443	28647	  001D1A   CPC     R17,R4
12444	28648	  001D1C   CPC     R18,R30
12445	28649	  001D1E   CPC     R19,R31
12446	28650	  001D20   CPC     R20,R0
12447	28651	  001D22   CPC     R21,R1
12448	28652	  001D24   CPC     R22,R2
12449	28653	  001D26   CPC     R23,R3
12450	28654	  001D28   BRCS    0x1D02
12451	28656	  001D02   DEC     R26
12452	28657	  001D04   BRMI    0x1D3C
12453	28658	  001D06   ROL     R25
12454	28659	  001D08   ROL     R16
12455	28660	  001D0A   ROL     R17
12456	28661	  001D0C   ROL     R18
12457	28662	  001D0E   ROL     R19
12458	28663	  001D10   ROL     R20
12459	28664	  001D12   ROL     R21
12460	28665	  001D14   ROL     R22
12461	28666	  001D16   ROL     R23
12462	28667	  001D18   CP      R16,R24
12463	28668	  001D1A   CPC     R17,R4
12464	28669	  001D1C   CPC     R18,R30
12465	28670	  001D1E   CPC     R19,R31
12466	28671	  001D20   CPC     R20,R0
12467	28672	  001D22   CPC     R21,R1
12468	28673	  001D24   CPC     R22,R2
12469	28674	  001D26   CPC     R23,R3
12470	28675	  001D28   BRCS    0x1D02
12471	28677	  001D02   DEC     R26
12472	28678	  001D04   BRMI    0x1D3C
12473	28679	  001D06   ROL     R25
12474	28680	  001D08   ROL     R16
12475	28681	  001D0A   ROL     R17
12476	28682	  001D0C   ROL     R18
12477	28683	  001D0E   ROL     R19
12478	28684	  001D10   ROL     R20
12479	28685	  001D12   ROL     R21
12480	28686	  001D14   ROL     R22
12481	28687	  001D16   ROL     R23
12482	28688	  001D18   CP      R16,R24
12483	28689	  001D1A   CPC     R17,R4
12484	28690	  001D1C   CPC     R18,R30
12485	28691	  001D1E   CPC     R19,R31
12486	28692	  001D20   CPC     R20,R0
12487	28693	  001D22   CPC     R21,R1
12488	28694	  001D24   CPC     R22,R2
12489	28695	  001D26   CPC     R23,R3
12490	28696	  001D28   BRCS    0x1D02
12491	28698	  001D02   DEC     R26
12492	28699	  001D04   BRMI    0x1D3C
12493	28700	  001D06   ROL     R25
12494	28701	  001D08   ROL     R16
12495	28702	  001D0A   ROL     R17
12496	28703	  001D0C   ROL     R18
12497	28704	  001D0E   ROL     R19
12498	28705	  001D10   ROL     R20
12499	28706	  001D12   ROL     R21
12500	28707	  001D14   ROL     R22
12501	28708	  001D16   ROL     R23
12502	28709	  001D18   CP      R16,R24
12503	28710	  001D1A   CPC     R17,R4
12504	28711	  001D1C   CPC     R18,R30
12505	28712	  001D1E   CPC     R19,R31
12506	28713	  001D20   CPC     R20,R0
12507	28714	  001D22   CPC     R21,R1
12508	28715	  001D24   CPC     R22,R2
12509	28716	  001D26   CPC     R23,R3
12510	28717	  001D28   BRCS    0x1D02
12511	28719	  001D02   DEC     R26
12512	28720	  001D04   BRMI    0x1D3C
12513	28721	  001D06   ROL     R25
12514	28722	  001D08   ROL     R16
12515	28723	  001D0A   ROL     R17
12516	28724	  001D0C   ROL     R18
12517	28725	  001D0E   ROL     R19
12518	28726	  001D10   ROL     R20
12519	28727	  001D12   ROL     R21
12520	28728	  001D14   ROL     R22
12521	28729	  001D16   ROL     R23
12522	28730	  001D18   CP      R16,R24
12523	28731	  001D1A   CPC     R17,R4
12524	28732	  001D1C   CPC     R18,R30
12525	28733	  001D1E   CPC     R19,R31
12526	28734	  001D20   CPC     R20,R0
12527	28735	  001D22   CPC     R21,R1
12528	28736	  001D24   CPC     R22,R2
12529	28737	  001D26   CPC     R23,R3
12530	28738	  001D28   BRCS    0x1D02
12531	28740	  001D02   DEC     R26
12532	28741	  001D04   BRMI    0x1D3C
12533	28743	  001D3C   ST      -Y,R25
12534	28745	  001D3E   LDI     R26,0x08
12535	28746	  001D40   DEC     R27
12536	28747	  001D42   BRPL    0x1CFE
12537	28749	  001CFE   LDI     R26,0x08
12538	28750	  001D00   POP     R25
12539	28752	  001D02   DEC     R26
12540	28753	  001D04   BRMI    0x1D3C
12541	28754	  001D06   ROL     R25
12542	28755	  001D08   ROL     R16
12543	28756	  001D0A   ROL     R17
12544	28757	  001D0C   ROL     R18
12545	28758	  001D0E   ROL     R19
12546	28759	  001D10   ROL     R20
12547	28760	  001D12   ROL     R21
12548	28761	  001D14   ROL     R22
12549	28762	  001D16   ROL     R23
12550	28763	  001D18   CP      R16,R24
12551	28764	  001D1A   CPC     R17,R4
12552	28765	  001D1C   CPC     R18,R30
12553	28766	  001D1E   CPC     R19,R31
12554	28767	  001D20   CPC     R20,R0
12555	28768	  001D22   CPC     R21,R1
12556	28769	  001D24   CPC     R22,R2
12557	28770	  001D26   CPC     R23,R3
12558	28771	  001D28   BRCS    0x1D02
12559	28773	  001D02   DEC     R26
12560	28774	  001D04   BRMI    0x1D3C
12561	28775	  001D06   ROL     R25
12562	28776	  001D08   ROL     R16
12563	28777	  001D0A   ROL     R17
12564	28778	  001D0C   ROL     R18
12565	28779	  001D0E   ROL     R19
12566	28780	  001D10   ROL     R20
12567	28781	  001D12   ROL     R21
12568	28782	  001D14   ROL     R22
12569	28783	  001D16   ROL     R23
12570	28784	  001D18   CP      R16,R24
12571	28785	  001D1A   CPC     R17,R4
12572	28786	  001D1C   CPC     R18,R30
12573	28787	  001D1E   CPC     R19,R31
12574	28788	  001D20   CPC     R20,R0
12575	28789	  001D22   CPC     R21,R1
12576	28790	  001D24   CPC     R22,R2
12577	28791	  001D26   CPC     R23,R3
12578	28792	  001D28   BRCS    0x1D02
12579	28794	  001D02   DEC     R26
12580	28795	  001D04   BRMI    0x1D3C
12581	28796	  001D06   ROL     R25
12582	28797	  001D08   ROL     R16
12583	28798	  001D0A   ROL     R17
12584	28799	  001D0C   ROL     R18
12585	28800	  001D0E   ROL     R19
12586	28801	  001D10   ROL     R20
12587	28802	  001D12   ROL     R21
12588	28803	  001D14   ROL     R22
12589	28804	  001D16   ROL     R23
12590	28805	  001D18   CP      R16,R24
12591	28806	  001D1A   CPC     R17,R4
12592	28807	  001D1C   CPC     R18,R30
12593	28808	  001D1E   CPC     R19,R31
12594	28809	  001D20   CPC     R20,R0
12595	28810	  001D22   CPC     R21,R1
12596	28811	  001D24   CPC     R22,R2
12597	28812	  001D26   CPC     R23,R3
12598	28813	  001D28   BRCS    0x1D02
12599	28815	  001D02   DEC     R26
12600	28816	  001D04   BRMI    0x1D3C
12601	28817	  001D06   ROL     R25
12602	28818	  001D08   ROL     R16
12603	28819	  001D0A   ROL     R17
12604	28820	  001D0C   ROL     R18
12605	28821	  001D0E   ROL     R19
12606	28822	  001D10   ROL     R20
12607	28823	  001D12   ROL     R21
12608	28824	  001D14   ROL     R22
12609	28825	  001D16   ROL     R23
12610	28826	  001D18   CP      R16,R24
12611	28827	  001D1A   CPC     R17,R4
12612	28828	  001D1C   CPC     R18,R30
12613	28829	  001D1E   CPC     R19,R31
12614	28830	  001D20   CPC     R20,R0
12615	28831	  001D22   CPC     R21,R1
12616	28832	  001D24   CPC     R22,R2
12617	28833	  001D26   CPC     R23,R3
12618	28834	  001D28   BRCS    0x1D02
12619	28836	  001D02   DEC     R26
12620	28837	  001D04   BRMI    0x1D3C
12621	28838	  001D06   ROL     R25
12622	28839	  001D08   ROL     R16
12623	28840	  001D0A   ROL     R17
12624	28841	  001D0C   ROL     R18
12625	28842	  001D0E   ROL     R19
12626	28843	  001D10   ROL     R20
12627	28844	  001D12   ROL     R21
12628	28845	  001D14   ROL     R22
12629	28846	  001D16   ROL     R23
12630	28847	  001D18   CP      R16,R24
12631	28848	  001D1A   CPC     R17,R4
12632	28849	  001D1C   CPC     R18,R30
12633	28850	  001D1E   CPC     R19,R31
12634	28851	  001D20   CPC     R20,R0
12635	28852	  001D22   CPC     R21,R1
12636	28853	  001D24   CPC     R22,R2
12637	28854	  001D26   CPC     R23,R3
12638	28855	  001D28   BRCS    0x1D02
12639	28857	  001D02   DEC     R26
12640	28858	  001D04   BRMI    0x1D3C
12641	28859	  001D06   ROL     R25
12642	28860	  001D08   ROL     R16
12643	28861	  001D0A   ROL     R17
12644	28862	  001D0C   ROL     R18
12645	28863	  001D0E   ROL     R19
12646	28864	  001D10   ROL     R20
12647	28865	  001D12   ROL     R21
12648	28866	  001D14   ROL     R22
12649	28867	  001D16   ROL     R23
12650	28868	  001D18   CP      R16,R24
12651	28869	  001D1A   CPC     R17,R4
12652	28870	  001D1C   CPC     R18,R30
12653	28871	  001D1E   CPC     R19,R31
12654	28872	  001D20   CPC     R20,R0
12655	28873	  001D22   CPC     R21,R1
12656	28874	  001D24   CPC     R22,R2
12657	28875	  001D26   CPC     R23,R3
12658	28876	  001D28   BRCS    0x1D02
12659	28878	  001D02   DEC     R26
12660	28879	  001D04   BRMI    0x1D3C
12661	28880	  001D06   ROL     R25
12662	28881	  001D08   ROL     R16
12663	28882	  001D0A   ROL     R17
12664	28883	  001D0C   ROL     R18
12665	28884	  001D0E   ROL     R19
12666	28885	  001D10   ROL     R20
12667	28886	  001D12   ROL     R21
12668	28887	  001D14   ROL     R22
12669	28888	  001D16   ROL     R23
12670	28889	  001D18   CP      R16,R24
12671	28890	  001D1A   CPC     R17,R4
12672	28891	  001D1C   CPC     R18,R30
12673	28892	  001D1E   CPC     R19,R31
12674	28893	  001D20   CPC     R20,R0
12675	28894	  001D22   CPC     R21,R1
12676	28895	  001D24   CPC     R22,R2
12677	28896	  001D26   CPC     R23,R3
12678	28897	  001D28   BRCS    0x1D02
12679	28899	  001D02   DEC     R26
12680	28900	  001D04   BRMI    0x1D3C
12681	28901	  001D06   ROL     R25
12682	28902	  001D08   ROL     R16
12683	28903	  001D0A   ROL     R17
12684	28904	  001D0C   ROL     R18
12685	28905	  001D0E   ROL     R19
12686	28906	  001D10   ROL     R20
12687	28907	  001D12   ROL     R21
12688	28908	  001D14   ROL     R22
12689	28909	  001D16   ROL     R23
12690	28910	  001D18   CP      R16,R24
12691	28911	  001D1A   CPC     R17,R4
12692	28912	  001D1C   CPC     R18,R30
12693	28913	  001D1E   CPC     R19,R31
12694	28914	  001D20   CPC     R20,R0
12695	28915	  001D22   CPC     R21,R1
12696	28916	  001D24   CPC     R22,R2
12697	28917	  001D26   CPC     R23,R3
12698	28918	  001D28   BRCS    0x1D02
12699	28920	  001D02   DEC     R26
12700	28921	  001D04   BRMI    0x1D3C
12701	28923	  001D3C   ST      -Y,R25
12702	28925	  001D3E   LDI     R26,0x08
12703	28926	  001D40   DEC     R27
12704	28927	  001D42   BRPL    0x1CFE
12705	28929	  001CFE   LDI     R26,0x08
12706	28930	  001D00   POP     R25
12707	28932	  001D02   DEC     R26
12708	28933	  001D04   BRMI    0x1D3C
12709	28934	  001D06   ROL     R25
12710	28935	  001D08   ROL     R16
12711	28936	  001D0A   ROL     R17
12712	28937	  001D0C   ROL     R18
12713	28938	  001D0E   ROL     R19
12714	28939	  001D10   ROL     R20
12715	28940	  001D12   ROL     R21
12716	28941	  001D14   ROL     R22
12717	28942	  001D16   ROL     R23
12718	28943	  001D18   CP      R16,R24
12719	28944	  001D1A   CPC     R17,R4
12720	28945	  001D1C   CPC     R18,R30
12721	28946	  001D1E   CPC     R19,R31
12722	28947	  001D20   CPC     R20,R0
12723	28948	  001D22   CPC     R21,R1
12724	28949	  001D24   CPC     R22,R2
12725	28950	  001D26   CPC     R23,R3
12726	28951	  001D28   BRCS    0x1D02
12727	28953	  001D02   DEC     R26
12728	28954	  001D04   BRMI    0x1D3C
12729	28955	  001D06   ROL     R25
12730	28956	  001D08   ROL     R16
12731	28957	  001D0A   ROL     R17
12732	28958	  001D0C   ROL     R18
12733	28959	  001D0E   ROL     R19
12734	28960	  001D10   ROL     R20
12735	28961	  001D12   ROL     R21
12736	28962	  001D14   ROL     R22
12737	28963	  001D16   ROL     R23
12738	28964	  001D18   CP      R16,R24
12739	28965	  001D1A   CPC     R17,R4
12740	28966	  001D1C   CPC     R18,R30
12741	28967	  001D1E   CPC     R19,R31
12742	28968	  001D20   CPC     R20,R0
12743	28969	  001D22   CPC     R21,R1
12744	28970	  001D24   CPC     R22,R2
12745	28971	  001D26   CPC     R23,R3
12746	28972	  001D28   BRCS    0x1D02
12747	28974	  001D02   DEC     R26
12748	28975	  001D04   BRMI    0x1D3C
12749	28976	  001D06   ROL     R25
12750	28977	  001D08   ROL     R16
12751	28978	  001D0A   ROL     R17
12752	28979	  001D0C   ROL     R18
12753	28980	  001D0E   ROL     R19
12754	28981	  001D10   ROL     R20
12755	28982	  001D12   ROL     R21
12756	28983	  001D14   ROL     R22
12757	28984	  001D16   ROL     R23
12758	28985	  001D18   CP      R16,R24
12759	28986	  001D1A   CPC     R17,R4
12760	28987	  001D1C   CPC     R18,R30
12761	28988	  001D1E   CPC     R19,R31
12762	28989	  001D20   CPC     R20,R0
12763	28990	  001D22   CPC     R21,R1
12764	28991	  001D24   CPC     R22,R2
12765	28992	  001D26   CPC     R23,R3
12766	28993	  001D28   BRCS    0x1D02
12767	28995	  001D02   DEC     R26
12768	28996	  001D04   BRMI    0x1D3C
12769	28997	  001D06   ROL     R25
12770	28998	  001D08   ROL     R16
12771	28999	  001D0A   ROL     R17
12772	29000	  001D0C   ROL     R18
12773	29001	  001D0E   ROL     R19
12774	29002	  001D10   ROL     R20
12775	29003	  001D12   ROL     R21
12776	29004	  001D14   ROL     R22
12777	29005	  001D16   ROL     R23
12778	29006	  001D18   CP      R16,R24
12779	29007	  001D1A   CPC     R17,R4
12780	29008	  001D1C   CPC     R18,R30
12781	29009	  001D1E   CPC     R19,R31
12782	29010	  001D20   CPC     R20,R0
12783	29011	  001D22   CPC     R21,R1
12784	29012	  001D24   CPC     R22,R2
12785	29013	  001D26   CPC     R23,R3
12786	29014	  001D28   BRCS    0x1D02
12787	29016	  001D02   DEC     R26
12788	29017	  001D04   BRMI    0x1D3C
12789	29018	  001D06   ROL     R25
12790	29019	  001D08   ROL     R16
12791	29020	  001D0A   ROL     R17
12792	29021	  001D0C   ROL     R18
12793	29022	  001D0E   ROL     R19
12794	29023	  001D10   ROL     R20
12795	29024	  001D12   ROL     R21
12796	29025	  001D14   ROL     R22
12797	29026	  001D16   ROL     R23
12798	29027	  001D18   CP      R16,R24
12799	29028	  001D1A   CPC     R17,R4
12800	29029	  001D1C   CPC     R18,R30
12801	29030	  001D1E   CPC     R19,R31
12802	29031	  001D20   CPC     R20,R0
12803	29032	  001D22   CPC     R21,R1
12804	29033	  001D24   CPC     R22,R2
12805	29034	  001D26   CPC     R23,R3
12806	29035	  001D28   BRCS    0x1D02
12807	29037	  001D02   DEC     R26
12808	29038	  001D04   BRMI    0x1D3C
12809	29039	  001D06   ROL     R25
12810	29040	  001D08   ROL     R16
12811	29041	  001D0A   ROL     R17
12812	29042	  001D0C   ROL     R18
12813	29043	  001D0E   ROL     R19
12814	29044	  001D10   ROL     R20
12815	29045	  001D12   ROL     R21
12816	29046	  001D14   ROL     R22
12817	29047	  001D16   ROL     R23
12818	29048	  001D18   CP      R16,R24
12819	29049	  001D1A   CPC     R17,R4
12820	29050	  001D1C   CPC     R18,R30
12821	29051	  001D1E   CPC     R19,R31
12822	29052	  001D20   CPC     R20,R0
12823	29053	  001D22   CPC     R21,R1
12824	29054	  001D24   CPC     R22,R2
12825	29055	  001D26   CPC     R23,R3
12826	29056	  001D28   BRCS    0x1D02
12827	29058	  001D02   DEC     R26
12828	29059	  001D04   BRMI    0x1D3C
12829	29060	  001D06   ROL     R25
12830	29061	  001D08   ROL     R16
12831	29062	  001D0A   ROL     R17
12832	29063	  001D0C   ROL     R18
12833	29064	  001D0E   ROL     R19
12834	29065	  001D10   ROL     R20
12835	29066	  001D12   ROL     R21
12836	29067	  001D14   ROL     R22
12837	29068	  001D16   ROL     R23
12838	29069	  001D18   CP      R16,R24
12839	29070	  001D1A   CPC     R17,R4
12840	29071	  001D1C   CPC     R18,R30
12841	29072	  001D1E   CPC     R19,R31
12842	29073	  001D20   CPC     R20,R0
12843	29074	  001D22   CPC     R21,R1
12844	29075	  001D24   CPC     R22,R2
12845	29076	  001D26   CPC     R23,R3
12846	29077	  001D28   BRCS    0x1D02
12847	29079	  001D02   DEC     R26
12848	29080	  001D04   BRMI    0x1D3C
12849	29081	  001D06   ROL     R25
12850	29082	  001D08   ROL     R16
12851	29083	  001D0A   ROL     R17
12852	29084	  001D0C   ROL     R18
12853	29085	  001D0E   ROL     R19
12854	29086	  001D10   ROL     R20
12855	29087	  001D12   ROL     R21
12856	29088	  001D14   ROL     R22
12857	29089	  001D16   ROL     R23
12858	29090	  001D18   CP      R16,R24
12859	29091	  001D1A   CPC     R17,R4
12860	29092	  001D1C   CPC     R18,R30
12861	29093	  001D1E   CPC     R19,R31
12862	29094	  001D20   CPC     R20,R0
12863	29095	  001D22   CPC     R21,R1
12864	29096	  001D24   CPC     R22,R2
12865	29097	  001D26   CPC     R23,R3
12866	29098	  001D28   BRCS    0x1D02
12867	29100	  001D02   DEC     R26
12868	29101	  001D04   BRMI    0x1D3C
12869	29103	  001D3C   ST      -Y,R25
12870	29105	  001D3E   LDI     R26,0x08
12871	29106	  001D40   DEC     R27
12872	29107	  001D42   BRPL    0x1CFE
12873	29109	  001CFE   LDI     R26,0x08
12874	29110	  001D00   POP     R25
12875	29112	  001D02   DEC     R26
12876	29113	  001D04   BRMI    0x1D3C
12877	29114	  001D06   ROL     R25
12878	29115	  001D08   ROL     R16
12879	29116	  001D0A   ROL     R17
12880	29117	  001D0C   ROL     R18
12881	29118	  001D0E   ROL     R19
12882	29119	  001D10   ROL     R20
12883	29120	  001D12   ROL     R21
12884	29121	  001D14   ROL     R22
12885	29122	  001D16   ROL     R23
12886	29123	  001D18   CP      R16,R24
12887	29124	  001D1A   CPC     R17,R4
12888	29125	  001D1C   CPC     R18,R30
12889	29126	  001D1E   CPC     R19,R31
12890	29127	  001D20   CPC     R20,R0
12891	29128	  001D22   CPC     R21,R1
12892	29129	  001D24   CPC     R22,R2
12893	29130	  001D26   CPC     R23,R3
12894	29131	  001D28   BRCS    0x1D02
12895	29133	  001D02   DEC     R26
12896	29134	  001D04   BRMI    0x1D3C
12897	29135	  001D06   ROL     R25
12898	29136	  001D08   ROL     R16
12899	29137	  001D0A   ROL     R17
12900	29138	  001D0C   ROL     R18
12901	29139	  001D0E   ROL     R19
12902	29140	  001D10   ROL     R20
12903	29141	  001D12   ROL     R21
12904	29142	  001D14   ROL     R22
12905	29143	  001D16   ROL     R23
12906	29144	  001D18   CP      R16,R24
12907	29145	  001D1A   CPC     R17,R4
12908	29146	  001D1C   CPC     R18,R30
12909	29147	  001D1E   CPC     R19,R31
12910	29148	  001D20   CPC     R20,R0
12911	29149	  001D22   CPC     R21,R1
12912	29150	  001D24   CPC     R22,R2
12913	29151	  001D26   CPC     R23,R3
12914	29152	  001D28   BRCS    0x1D02
12915	29154	  001D02   DEC     R26
12916	29155	  001D04   BRMI    0x1D3C
12917	29156	  001D06   ROL     R25
12918	29157	  001D08   ROL     R16
12919	29158	  001D0A   ROL     R17
12920	29159	  001D0C   ROL     R18
12921	29160	  001D0E   ROL     R19
12922	29161	  001D10   ROL     R20
12923	29162	  001D12   ROL     R21
12924	29163	  001D14   ROL     R22
12925	29164	  001D16   ROL     R23
12926	29165	  001D18   CP      R16,R24
12927	29166	  001D1A   CPC     R17,R4
12928	29167	  001D1C   CPC     R18,R30
12929	29168	  001D1E   CPC     R19,R31
12930	29169	  001D20   CPC     R20,R0
12931	29170	  001D22   CPC     R21,R1
12932	29171	  001D24   CPC     R22,R2
12933	29172	  001D26   CPC     R23,R3
12934	29173	  001D28   BRCS    0x1D02
12935	29175	  001D02   DEC     R26
12936	29176	  001D04   BRMI    0x1D3C
12937	29177	  001D06   ROL     R25
12938	29178	  001D08   ROL     R16
12939	29179	  001D0A   ROL     R17
12940	29180	  001D0C   ROL     R18
12941	29181	  001D0E   ROL     R19
12942	29182	  001D10   ROL     R20
12943	29183	  001D12   ROL     R21
12944	29184	  001D14   ROL     R22
12945	29185	  001D16   ROL     R23
12946	29186	  001D18   CP      R16,R24
12947	29187	  001D1A   CPC     R17,R4
12948	29188	  001D1C   CPC     R18,R30
12949	29189	  001D1E   CPC     R19,R31
12950	29190	  001D20   CPC     R20,R0
12951	29191	  001D22   CPC     R21,R1
12952	29192	  001D24   CPC     R22,R2
12953	29193	  001D26   CPC     R23,R3
12954	29194	  001D28   BRCS    0x1D02
12955	29196	  001D02   DEC     R26
12956	29197	  001D04   BRMI    0x1D3C
12957	29198	  001D06   ROL     R25
12958	29199	  001D08   ROL     R16
12959	29200	  001D0A   ROL     R17
12960	29201	  001D0C   ROL     R18
12961	29202	  001D0E   ROL     R19
12962	29203	  001D10   ROL     R20
12963	29204	  001D12   ROL     R21
12964	29205	  001D14   ROL     R22
12965	29206	  001D16   ROL     R23
12966	29207	  001D18   CP      R16,R24
12967	29208	  001D1A   CPC     R17,R4
12968	29209	  001D1C   CPC     R18,R30
12969	29210	  001D1E   CPC     R19,R31
12970	29211	  001D20   CPC     R20,R0
12971	29212	  001D22   CPC     R21,R1
12972	29213	  001D24   CPC     R22,R2
12973	29214	  001D26   CPC     R23,R3
12974	29215	  001D28   BRCS    0x1D02
12975	29217	  001D02   DEC     R26
12976	29218	  001D04   BRMI    0x1D3C
12977	29219	  001D06   ROL     R25
12978	29220	  001D08   ROL     R16
12979	29221	  001D0A   ROL     R17
12980	29222	  001D0C   ROL     R18
12981	29223	  001D0E   ROL     R19
12982	29224	  001D10   ROL     R20
12983	29225	  001D12   ROL     R21
12984	29226	  001D14   ROL     R22
12985	29227	  001D16   ROL     R23
12986	29228	  001D18   CP      R16,R24
12987	29229	  001D1A   CPC     R17,R4
12988	29230	  001D1C   CPC     R18,R30
12989	29231	  001D1E   CPC     R19,R31
12990	29232	  001D20   CPC     R20,R0
12991	29233	  001D22   CPC     R21,R1
12992	29234	  001D24   CPC     R22,R2
12993	29235	  001D26   CPC     R23,R3
12994	29236	  001D28   BRCS    0x1D02
12995	29238	  001D02   DEC     R26
12996	29239	  001D04   BRMI    0x1D3C
12997	29240	  001D06   ROL     R25
12998	29241	  001D08   ROL     R16
12999	29242	  001D0A   ROL     R17
13000	29243	  001D0C   ROL     R18
13001	29244	  001D0E   ROL     R19
13002	29245	  001D10   ROL     R20
13003	29246	  001D12   ROL     R21
13004	29247	  001D14   ROL     R22
13005	29248	  001D16   ROL     R23
13006	29249	  001D18   CP      R16,R24
13007	29250	  001D1A   CPC     R17,R4
13008	29251	  001D1C   CPC     R18,R30
13009	29252	  001D1E   CPC     R19,R31
13010	29253	  001D20   CPC     R20,R0
13011	29254	  001D22   CPC     R21,R1
13012	29255	  001D24   CPC     R22,R2
13013	29256	  001D26   CPC     R23,R3
13014	29257	  001D28   BRCS    0x1D02
13015	29259	  001D02   DEC     R26
13016	29260	  001D04   BRMI    0x1D3C
13017	29261	  001D06   ROL     R25
13018	29262	  001D08   ROL     R16
13019	29263	  001D0A   ROL     R17
13020	29264	  001D0C   ROL     R18
13021	29265	  001D0E   ROL     R19
13022	29266	  001D10   ROL     R20
13023	29267	  001D12   ROL     R21
13024	29268	  001D14   ROL     R22
13025	29269	  001D16   ROL     R23
13026	29270	  001D18   CP      R16,R24
13027	29271	  001D1A   CPC     R17,R4
13028	29272	  001D1C   CPC     R18,R30
13029	29273	  001D1E   CPC     R19,R31
13030	29274	  001D20   CPC     R20,R0
13031	29275	  001D22   CPC     R21,R1
13032	29276	  001D24   CPC     R22,R2
13033	29277	  001D26   CPC     R23,R3
13034	29278	  001D28   BRCS    0x1D02
13035	29280	  001D02   DEC     R26
13036	29281	  001D04   BRMI    0x1D3C
13037	29283	  001D3C   ST      -Y,R25
13038	29285	  001D3E   LDI     R26,0x08
13039	29286	  001D40   DEC     R27
13040	29287	  001D42   BRPL    0x1CFE
13041	29289	  001CFE   LDI     R26,0x08
13042	29290	  001D00   POP     R25
13043	29292	  001D02   DEC     R26
13044	29293	  001D04   BRMI    0x1D3C
13045	29294	  001D06   ROL     R25
13046	29295	  001D08   ROL     R16
13047	29296	  001D0A   ROL     R17
13048	29297	  001D0C   ROL     R18
13049	29298	  001D0E   ROL     R19
13050	29299	  001D10   ROL     R20
13051	29300	  001D12   ROL     R21
13052	29301	  001D14   ROL     R22
13053	29302	  001D16   ROL     R23
13054	29303	  001D18   CP      R16,R24
13055	29304	  001D1A   CPC     R17,R4
13056	29305	  001D1C   CPC     R18,R30
13057	29306	  001D1E   CPC     R19,R31
13058	29307	  001D20   CPC     R20,R0
13059	29308	  001D22   CPC     R21,R1
13060	29309	  001D24   CPC     R22,R2
13061	29310	  001D26   CPC     R23,R3
13062	29311	  001D28   BRCS    0x1D02
13063	29313	  001D02   DEC     R26
13064	29314	  001D04   BRMI    0x1D3C
13065	29315	  001D06   ROL     R25
13066	29316	  001D08   ROL     R16
13067	29317	  001D0A   ROL     R17
13068	29318	  001D0C   ROL     R18
13069	29319	  001D0E   ROL     R19
13070	29320	  001D10   ROL     R20
13071	29321	  001D12   ROL     R21
13072	29322	  001D14   ROL     R22
13073	29323	  001D16   ROL     R23
13074	29324	  001D18   CP      R16,R24
13075	29325	  001D1A   CPC     R17,R4
13076	29326	  001D1C   CPC     R18,R30
13077	29327	  001D1E   CPC     R19,R31
13078	29328	  001D20   CPC     R20,R0
13079	29329	  001D22   CPC     R21,R1
13080	29330	  001D24   CPC     R22,R2
13081	29331	  001D26   CPC     R23,R3
13082	29332	  001D28   BRCS    0x1D02
13083	29334	  001D02   DEC     R26
13084	29335	  001D04   BRMI    0x1D3C
13085	29336	  001D06   ROL     R25
13086	29337	  001D08   ROL     R16
13087	29338	  001D0A   ROL     R17
13088	29339	  001D0C   ROL     R18
13089	29340	  001D0E   ROL     R19
13090	29341	  001D10   ROL     R20
13091	29342	  001D12   ROL     R21
13092	29343	  001D14   ROL     R22
13093	29344	  001D16   ROL     R23
13094	29345	  001D18   CP      R16,R24
13095	29346	  001D1A   CPC     R17,R4
13096	29347	  001D1C   CPC     R18,R30
13097	29348	  001D1E   CPC     R19,R31
13098	29349	  001D20   CPC     R20,R0
13099	29350	  001D22   CPC     R21,R1
13100	29351	  001D24   CPC     R22,R2
13101	29352	  001D26   CPC     R23,R3
13102	29353	  001D28   BRCS    0x1D02
13103	29355	  001D02   DEC     R26
13104	29356	  001D04   BRMI    0x1D3C
13105	29357	  001D06   ROL     R25
13106	29358	  001D08   ROL     R16
13107	29359	  001D0A   ROL     R17
13108	29360	  001D0C   ROL     R18
13109	29361	  001D0E   ROL     R19
13110	29362	  001D10   ROL     R20
13111	29363	  001D12   ROL     R21
13112	29364	  001D14   ROL     R22
13113	29365	  001D16   ROL     R23
13114	29366	  001D18   CP      R16,R24
13115	29367	  001D1A   CPC     R17,R4
13116	29368	  001D1C   CPC     R18,R30
13117	29369	  001D1E   CPC     R19,R31
13118	29370	  001D20   CPC     R20,R0
13119	29371	  001D22   CPC     R21,R1
13120	29372	  001D24   CPC     R22,R2
13121	29373	  001D26   CPC     R23,R3
13122	29374	  001D28   BRCS    0x1D02
13123	29376	  001D02   DEC     R26
13124	29377	  001D04   BRMI    0x1D3C
13125	29378	  001D06   ROL     R25
13126	29379	  001D08   ROL     R16
13127	29380	  001D0A   ROL     R17
13128	29381	  001D0C   ROL     R18
13129	29382	  001D0E   ROL     R19
13130	29383	  001D10   ROL     R20
13131	29384	  001D12   ROL     R21
13132	29385	  001D14   ROL     R22
13133	29386	  001D16   ROL     R23
13134	29387	  001D18   CP      R16,R24
13135	29388	  001D1A   CPC     R17,R4
13136	29389	  001D1C   CPC     R18,R30
13137	29390	  001D1E   CPC     R19,R31
13138	29391	  001D20   CPC     R20,R0
13139	29392	  001D22   CPC     R21,R1
13140	29393	  001D24   CPC     R22,R2
13141	29394	  001D26   CPC     R23,R3
13142	29395	  001D28   BRCS    0x1D02
13143	29397	  001D02   DEC     R26
13144	29398	  001D04   BRMI    0x1D3C
13145	29399	  001D06   ROL     R25
13146	29400	  001D08   ROL     R16
13147	29401	  001D0A   ROL     R17
13148	29402	  001D0C   ROL     R18
13149	29403	  001D0E   ROL     R19
13150	29404	  001D10   ROL     R20
13151	29405	  001D12   ROL     R21
13152	29406	  001D14   ROL     R22
13153	29407	  001D16   ROL     R23
13154	29408	  001D18   CP      R16,R24
13155	29409	  001D1A   CPC     R17,R4
13156	29410	  001D1C   CPC     R18,R30
13157	29411	  001D1E   CPC     R19,R31
13158	29412	  001D20   CPC     R20,R0
13159	29413	  001D22   CPC     R21,R1
13160	29414	  001D24   CPC     R22,R2
13161	29415	  001D26   CPC     R23,R3
13162	29416	  001D28   BRCS    0x1D02
13163	29418	  001D02   DEC     R26
13164	29419	  001D04   BRMI    0x1D3C
13165	29420	  001D06   ROL     R25
13166	29421	  001D08   ROL     R16
13167	29422	  001D0A   ROL     R17
13168	29423	  001D0C   ROL     R18
13169	29424	  001D0E   ROL     R19
13170	29425	  001D10   ROL     R20
13171	29426	  001D12   ROL     R21
13172	29427	  001D14   ROL     R22
13173	29428	  001D16   ROL     R23
13174	29429	  001D18   CP      R16,R24
13175	29430	  001D1A   CPC     R17,R4
13176	29431	  001D1C   CPC     R18,R30
13177	29432	  001D1E   CPC     R19,R31
13178	29433	  001D20   CPC     R20,R0
13179	29434	  001D22   CPC     R21,R1
13180	29435	  001D24   CPC     R22,R2
13181	29436	  001D26   CPC     R23,R3
13182	29437	  001D28   BRCS    0x1D02
13183	29439	  001D02   DEC     R26
13184	29440	  001D04   BRMI    0x1D3C
13185	29441	  001D06   ROL     R25
13186	29442	  001D08   ROL     R16
13187	29443	  001D0A   ROL     R17
13188	29444	  001D0C   ROL     R18
13189	29445	  001D0E   ROL     R19
13190	29446	  001D10   ROL     R20
13191	29447	  001D12   ROL     R21
13192	29448	  001D14   ROL     R22
13193	29449	  001D16   ROL     R23
13194	29450	  001D18   CP      R16,R24
13195	29451	  001D1A   CPC     R17,R4
13196	29452	  001D1C   CPC     R18,R30
13197	29453	  001D1E   CPC     R19,R31
13198	29454	  001D20   CPC     R20,R0
13199	29455	  001D22   CPC     R21,R1
13200	29456	  001D24   CPC     R22,R2
13201	29457	  001D26   CPC     R23,R3
13202	29458	  001D28   BRCS    0x1D02
13203	29460	  001D02   DEC     R26
13204	29461	  001D04   BRMI    0x1D3C
13205	29463	  001D3C   ST      -Y,R25
13206	29465	  001D3E   LDI     R26,0x08
13207	29466	  001D40   DEC     R27
13208	29467	  001D42   BRPL    0x1CFE
13209	29469	  001CFE   LDI     R26,0x08
13210	29470	  001D00   POP     R25
13211	29472	  001D02   DEC     R26
13212	29473	  001D04   BRMI    0x1D3C
13213	29474	  001D06   ROL     R25
13214	29475	  001D08   ROL     R16
13215	29476	  001D0A   ROL     R17
13216	29477	  001D0C   ROL     R18
13217	29478	  001D0E   ROL     R19
13218	29479	  001D10   ROL     R20
13219	29480	  001D12   ROL     R21
13220	29481	  001D14   ROL     R22
13221	29482	  001D16   ROL     R23
13222	29483	  001D18   CP      R16,R24
13223	29484	  001D1A   CPC     R17,R4
13224	29485	  001D1C   CPC     R18,R30
13225	29486	  001D1E   CPC     R19,R31
13226	29487	  001D20   CPC     R20,R0
13227	29488	  001D22   CPC     R21,R1
13228	29489	  001D24   CPC     R22,R2
13229	29490	  001D26   CPC     R23,R3
13230	29491	  001D28   BRCS    0x1D02
13231	29493	  001D02   DEC     R26
13232	29494	  001D04   BRMI    0x1D3C
13233	29495	  001D06   ROL     R25
13234	29496	  001D08   ROL     R16
13235	29497	  001D0A   ROL     R17
13236	29498	  001D0C   ROL     R18
13237	29499	  001D0E   ROL     R19
13238	29500	  001D10   ROL     R20
13239	29501	  001D12   ROL     R21
13240	29502	  001D14   ROL     R22
13241	29503	  001D16   ROL     R23
13242	29504	  001D18   CP      R16,R24
13243	29505	  001D1A   CPC     R17,R4
13244	29506	  001D1C   CPC     R18,R30
13245	29507	  001D1E   CPC     R19,R31
13246	29508	  001D20   CPC     R20,R0
13247	29509	  001D22   CPC     R21,R1
13248	29510	  001D24   CPC     R22,R2
13249	29511	  001D26   CPC     R23,R3
13250	29512	  001D28   BRCS    0x1D02
13251	29514	  001D02   DEC     R26
13252	29515	  001D04   BRMI    0x1D3C
13253	29516	  001D06   ROL     R25
13254	29517	  001D08   ROL     R16
13255	29518	  001D0A   ROL     R17
13256	29519	  001D0C   ROL     R18
13257	29520	  001D0E   ROL     R19
13258	29521	  001D10   ROL     R20
13259	29522	  001D12   ROL     R21
13260	29523	  001D14   ROL     R22
13261	29524	  001D16   ROL     R23
13262	29525	  001D18   CP      R16,R24
13263	29526	  001D1A   CPC     R17,R4
13264	29527	  001D1C   CPC     R18,R30
13265	29528	  001D1E   CPC     R19,R31
13266	29529	  001D20   CPC     R20,R0
13267	29530	  001D22   CPC     R21,R1
13268	29531	  001D24   CPC     R22,R2
13269	29532	  001D26   CPC     R23,R3
13270	29533	  001D28   BRCS    0x1D02
13271	29535	  001D02   DEC     R26
13272	29536	  001D04   BRMI    0x1D3C
13273	29537	  001D06   ROL     R25
13274	29538	  001D08   ROL     R16
13275	29539	  001D0A   ROL     R17
13276	29540	  001D0C   ROL     R18
13277	29541	  001D0E   ROL     R19
13278	29542	  001D10   ROL     R20
13279	29543	  001D12   ROL     R21
13280	29544	  001D14   ROL     R22
13281	29545	  001D16   ROL     R23
13282	29546	  001D18   CP      R16,R24
13283	29547	  001D1A   CPC     R17,R4
13284	29548	  001D1C   CPC     R18,R30
13285	29549	  001D1E   CPC     R19,R31
13286	29550	  001D20   CPC     R20,R0
13287	29551	  001D22   CPC     R21,R1
13288	29552	  001D24   CPC     R22,R2
13289	29553	  001D26   CPC     R23,R3
13290	29554	  001D28   BRCS    0x1D02
13291	29556	  001D02   DEC     R26
13292	29557	  001D04   BRMI    0x1D3C
13293	29558	  001D06   ROL     R25
13294	29559	  001D08   ROL     R16
13295	29560	  001D0A   ROL     R17
13296	29561	  001D0C   ROL     R18
13297	29562	  001D0E   ROL     R19
13298	29563	  001D10   ROL     R20
13299	29564	  001D12   ROL     R21
13300	29565	  001D14   ROL     R22
13301	29566	  001D16   ROL     R23
13302	29567	  001D18   CP      R16,R24
13303	29568	  001D1A   CPC     R17,R4
13304	29569	  001D1C   CPC     R18,R30
13305	29570	  001D1E   CPC     R19,R31
13306	29571	  001D20   CPC     R20,R0
13307	29572	  001D22   CPC     R21,R1
13308	29573	  001D24   CPC     R22,R2
13309	29574	  001D26   CPC     R23,R3
13310	29575	  001D28   BRCS    0x1D02
13311	29577	  001D02   DEC     R26
13312	29578	  001D04   BRMI    0x1D3C
13313	29579	  001D06   ROL     R25
13314	29580	  001D08   ROL     R16
13315	29581	  001D0A   ROL     R17
13316	29582	  001D0C   ROL     R18
13317	29583	  001D0E   ROL     R19
13318	29584	  001D10   ROL     R20
13319	29585	  001D12   ROL     R21
13320	29586	  001D14   ROL     R22
13321	29587	  001D16   ROL     R23
13322	29588	  001D18   CP      R16,R24
13323	29589	  001D1A   CPC     R17,R4
13324	29590	  001D1C   CPC     R18,R30
13325	29591	  001D1E   CPC     R19,R31
13326	29592	  001D20   CPC     R20,R0
13327	29593	  001D22   CPC     R21,R1
13328	29594	  001D24   CPC     R22,R2
13329	29595	  001D26   CPC     R23,R3
13330	29596	  001D28   BRCS    0x1D02
13331	29598	  001D02   DEC     R26
13332	29599	  001D04   BRMI    0x1D3C
13333	29600	  001D06   ROL     R25
13334	29601	  001D08   ROL     R16
13335	29602	  001D0A   ROL     R17
13336	29603	  001D0C   ROL     R18
13337	29604	  001D0E   ROL     R19
13338	29605	  001D10   ROL     R20
13339	29606	  001D12   ROL     R21
13340	29607	  001D14   ROL     R22
13341	29608	  001D16   ROL     R23
13342	29609	  001D18   CP      R16,R24
13343	29610	  001D1A   CPC     R17,R4
13344	29611	  001D1C   CPC     R18,R30
13345	29612	  001D1E   CPC     R19,R31
13346	29613	  001D20   CPC     R20,R0
13347	29614	  001D22   CPC     R21,R1
13348	29615	  001D24   CPC     R22,R2
13349	29616	  001D26   CPC     R23,R3
13350	29617	  001D28   BRCS    0x1D02
13351	29619	  001D02   DEC     R26
13352	29620	  001D04   BRMI    0x1D3C
13353	29621	  001D06   ROL     R25
13354	29622	  001D08   ROL     R16
13355	29623	  001D0A   ROL     R17
13356	29624	  001D0C   ROL     R18
13357	29625	  001D0E   ROL     R19
13358	29626	  001D10   ROL     R20
13359	29627	  001D12   ROL     R21
13360	29628	  001D14   ROL     R22
13361	29629	  001D16   ROL     R23
13362	29630	  001D18   CP      R16,R24
13363	29631	  001D1A   CPC     R17,R4
13364	29632	  001D1C   CPC     R18,R30
13365	29633	  001D1E   CPC     R19,R31
13366	29634	  001D20   CPC     R20,R0
13367	29635	  001D22   CPC     R21,R1
13368	29636	  001D24   CPC     R22,R2
13369	29637	  001D26   CPC     R23,R3
13370	29638	  001D28   BRCS    0x1D02
13371	29640	  001D02   DEC     R26
13372	29641	  001D04   BRMI    0x1D3C
13373	29643	  001D3C   ST      -Y,R25
13374	29645	  001D3E   LDI     R26,0x08
13375	29646	  001D40   DEC     R27
13376	29647	  001D42   BRPL    0x1CFE
13377	29649	  001CFE   LDI     R26,0x08
13378	29650	  001D00   POP     R25
13379	29652	  001D02   DEC     R26
13380	29653	  001D04   BRMI    0x1D3C
13381	29654	  001D06   ROL     R25
13382	29655	  001D08   ROL     R16
13383	29656	  001D0A   ROL     R17
13384	29657	  001D0C   ROL     R18
13385	29658	  001D0E   ROL     R19
13386	29659	  001D10   ROL     R20
13387	29660	  001D12   ROL     R21
13388	29661	  001D14   ROL     R22
13389	29662	  001D16   ROL     R23
13390	29663	  001D18   CP      R16,R24
13391	29664	  001D1A   CPC     R17,R4
13392	29665	  001D1C   CPC     R18,R30
13393	29666	  001D1E   CPC     R19,R31
13394	29667	  001D20   CPC     R20,R0
13395	29668	  001D22   CPC     R21,R1
13396	29669	  001D24   CPC     R22,R2
13397	29670	  001D26   CPC     R23,R3
13398	29671	  001D28   BRCS    0x1D02
13399	29673	  001D02   DEC     R26
13400	29674	  001D04   BRMI    0x1D3C
13401	29675	  001D06   ROL     R25
13402	29676	  001D08   ROL     R16
13403	29677	  001D0A   ROL     R17
13404	29678	  001D0C   ROL     R18
13405	29679	  001D0E   ROL     R19
13406	29680	  001D10   ROL     R20
13407	29681	  001D12   ROL     R21
13408	29682	  001D14   ROL     R22
13409	29683	  001D16   ROL     R23
13410	29684	  001D18   CP      R16,R24
13411	29685	  001D1A   CPC     R17,R4
13412	29686	  001D1C   CPC     R18,R30
13413	29687	  001D1E   CPC     R19,R31
13414	29688	  001D20   CPC     R20,R0
13415	29689	  001D22   CPC     R21,R1
13416	29690	  001D24   CPC     R22,R2
13417	29691	  001D26   CPC     R23,R3
13418	29692	  001D28   BRCS    0x1D02
13419	29694	  001D02   DEC     R26
13420	29695	  001D04   BRMI    0x1D3C
13421	29696	  001D06   ROL     R25
13422	29697	  001D08   ROL     R16
13423	29698	  001D0A   ROL     R17
13424	29699	  001D0C   ROL     R18
13425	29700	  001D0E   ROL     R19
13426	29701	  001D10   ROL     R20
13427	29702	  001D12   ROL     R21
13428	29703	  001D14   ROL     R22
13429	29704	  001D16   ROL     R23
13430	29705	  001D18   CP      R16,R24
13431	29706	  001D1A   CPC     R17,R4
13432	29707	  001D1C   CPC     R18,R30
13433	29708	  001D1E   CPC     R19,R31
13434	29709	  001D20   CPC     R20,R0
13435	29710	  001D22   CPC     R21,R1
13436	29711	  001D24   CPC     R22,R2
13437	29712	  001D26   CPC     R23,R3
13438	29713	  001D28   BRCS    0x1D02
13439	29715	  001D02   DEC     R26
13440	29716	  001D04   BRMI    0x1D3C
13441	29717	  001D06   ROL     R25
13442	29718	  001D08   ROL     R16
13443	29719	  001D0A   ROL     R17
13444	29720	  001D0C   ROL     R18
13445	29721	  001D0E   ROL     R19
13446	29722	  001D10   ROL     R20
13447	29723	  001D12   ROL     R21
13448	29724	  001D14   ROL     R22
13449	29725	  001D16   ROL     R23
13450	29726	  001D18   CP      R16,R24
13451	29727	  001D1A   CPC     R17,R4
13452	29728	  001D1C   CPC     R18,R30
13453	29729	  001D1E   CPC     R19,R31
13454	29730	  001D20   CPC     R20,R0
13455	29731	  001D22   CPC     R21,R1
13456	29732	  001D24   CPC     R22,R2
13457	29733	  001D26   CPC     R23,R3
13458	29734	  001D28   BRCS    0x1D02
13459	29736	  001D02   DEC     R26
13460	29737	  001D04   BRMI    0x1D3C
13461	29738	  001D06   ROL     R25
13462	29739	  001D08   ROL     R16
13463	29740	  001D0A   ROL     R17
13464	29741	  001D0C   ROL     R18
13465	29742	  001D0E   ROL     R19
13466	29743	  001D10   ROL     R20
13467	29744	  001D12   ROL     R21
13468	29745	  001D14   ROL     R22
13469	29746	  001D16   ROL     R23
13470	29747	  001D18   CP      R16,R24
13471	29748	  001D1A   CPC     R17,R4
13472	29749	  001D1C   CPC     R18,R30
13473	29750	  001D1E   CPC     R19,R31
13474	29751	  001D20   CPC     R20,R0
13475	29752	  001D22   CPC     R21,R1
13476	29753	  001D24   CPC     R22,R2
13477	29754	  001D26   CPC     R23,R3
13478	29755	  001D28   BRCS    0x1D02
13479	29757	  001D02   DEC     R26
13480	29758	  001D04   BRMI    0x1D3C
13481	29759	  001D06   ROL     R25
13482	29760	  001D08   ROL     R16
13483	29761	  001D0A   ROL     R17
13484	29762	  001D0C   ROL     R18
13485	29763	  001D0E   ROL     R19
13486	29764	  001D10   ROL     R20
13487	29765	  001D12   ROL     R21
13488	29766	  001D14   ROL     R22
13489	29767	  001D16   ROL     R23
13490	29768	  001D18   CP      R16,R24
13491	29769	  001D1A   CPC     R17,R4
13492	29770	  001D1C   CPC     R18,R30
13493	29771	  001D1E   CPC     R19,R31
13494	29772	  001D20   CPC     R20,R0
13495	29773	  001D22   CPC     R21,R1
13496	29774	  001D24   CPC     R22,R2
13497	29775	  001D26   CPC     R23,R3
13498	29776	  001D28   BRCS    0x1D02
13499	29778	  001D02   DEC     R26
13500	29779	  001D04   BRMI    0x1D3C
13501	29780	  001D06   ROL     R25
13502	29781	  001D08   ROL     R16
13503	29782	  001D0A   ROL     R17
13504	29783	  001D0C   ROL     R18
13505	29784	  001D0E   ROL     R19
13506	29785	  001D10   ROL     R20
13507	29786	  001D12   ROL     R21
13508	29787	  001D14   ROL     R22
13509	29788	  001D16   ROL     R23
13510	29789	  001D18   CP      R16,R24
13511	29790	  001D1A   CPC     R17,R4
13512	29791	  001D1C   CPC     R18,R30
13513	29792	  001D1E   CPC     R19,R31
13514	29793	  001D20   CPC     R20,R0
13515	29794	  001D22   CPC     R21,R1
13516	29795	  001D24   CPC     R22,R2
13517	29796	  001D26   CPC     R23,R3
13518	29797	  001D28   BRCS    0x1D02
13519	29799	  001D02   DEC     R26
13520	29800	  001D04   BRMI    0x1D3C
13521	29801	  001D06   ROL     R25
13522	29802	  001D08   ROL     R16
13523	29803	  001D0A   ROL     R17
13524	29804	  001D0C   ROL     R18
13525	29805	  001D0E   ROL     R19
13526	29806	  001D10   ROL     R20
13527	29807	  001D12   ROL     R21
13528	29808	  001D14   ROL     R22
13529	29809	  001D16   ROL     R23
13530	29810	  001D18   CP      R16,R24
13531	29811	  001D1A   CPC     R17,R4
13532	29812	  001D1C   CPC     R18,R30
13533	29813	  001D1E   CPC     R19,R31
13534	29814	  001D20   CPC     R20,R0
13535	29815	  001D22   CPC     R21,R1
13536	29816	  001D24   CPC     R22,R2
13537	29817	  001D26   CPC     R23,R3
13538	29818	  001D28   BRCS    0x1D02
13539	29820	  001D02   DEC     R26
13540	29821	  001D04   BRMI    0x1D3C
13541	29823	  001D3C   ST      -Y,R25
13542	29825	  001D3E   LDI     R26,0x08
13543	29826	  001D40   DEC     R27
13544	29827	  001D42   BRPL    0x1CFE
13545	29829	  001CFE   LDI     R26,0x08
13546	29830	  001D00   POP     R25
13547	29832	  001D02   DEC     R26
13548	29833	  001D04   BRMI    0x1D3C
13549	29834	  001D06   ROL     R25
13550	29835	  001D08   ROL     R16
13551	29836	  001D0A   ROL     R17
13552	29837	  001D0C   ROL     R18
13553	29838	  001D0E   ROL     R19
13554	29839	  001D10   ROL     R20
13555	29840	  001D12   ROL     R21
13556	29841	  001D14   ROL     R22
13557	29842	  001D16   ROL     R23
13558	29843	  001D18   CP      R16,R24
13559	29844	  001D1A   CPC     R17,R4
13560	29845	  001D1C   CPC     R18,R30
13561	29846	  001D1E   CPC     R19,R31
13562	29847	  001D20   CPC     R20,R0
13563	29848	  001D22   CPC     R21,R1
13564	29849	  001D24   CPC     R22,R2
13565	29850	  001D26   CPC     R23,R3
13566	29851	  001D28   BRCS    0x1D02
13567	29853	  001D02   DEC     R26
13568	29854	  001D04   BRMI    0x1D3C
13569	29855	  001D06   ROL     R25
13570	29856	  001D08   ROL     R16
13571	29857	  001D0A   ROL     R17
13572	29858	  001D0C   ROL     R18
13573	29859	  001D0E   ROL     R19
13574	29860	  001D10   ROL     R20
13575	29861	  001D12   ROL     R21
13576	29862	  001D14   ROL     R22
13577	29863	  001D16   ROL     R23
13578	29864	  001D18   CP      R16,R24
13579	29865	  001D1A   CPC     R17,R4
13580	29866	  001D1C   CPC     R18,R30
13581	29867	  001D1E   CPC     R19,R31
13582	29868	  001D20   CPC     R20,R0
13583	29869	  001D22   CPC     R21,R1
13584	29870	  001D24   CPC     R22,R2
13585	29871	  001D26   CPC     R23,R3
13586	29872	  001D28   BRCS    0x1D02
13587	29874	  001D02   DEC     R26
13588	29875	  001D04   BRMI    0x1D3C
13589	29876	  001D06   ROL     R25
13590	29877	  001D08   ROL     R16
13591	29878	  001D0A   ROL     R17
13592	29879	  001D0C   ROL     R18
13593	29880	  001D0E   ROL     R19
13594	29881	  001D10   ROL     R20
13595	29882	  001D12   ROL     R21
13596	29883	  001D14   ROL     R22
13597	29884	  001D16   ROL     R23
13598	29885	  001D18   CP      R16,R24
13599	29886	  001D1A   CPC     R17,R4
13600	29887	  001D1C   CPC     R18,R30
13601	29888	  001D1E   CPC     R19,R31
13602	29889	  001D20   CPC     R20,R0
13603	29890	  001D22   CPC     R21,R1
13604	29891	  001D24   CPC     R22,R2
13605	29892	  001D26   CPC     R23,R3
13606	29893	  001D28   BRCS    0x1D02
13607	29895	  001D02   DEC     R26
13608	29896	  001D04   BRMI    0x1D3C
13609	29897	  001D06   ROL     R25
13610	29898	  001D08   ROL     R16
13611	29899	  001D0A   ROL     R17
13612	29900	  001D0C   ROL     R18
13613	29901	  001D0E   ROL     R19
13614	29902	  001D10   ROL     R20
13615	29903	  001D12   ROL     R21
13616	29904	  001D14   ROL     R22
13617	29905	  001D16   ROL     R23
13618	29906	  001D18   CP      R16,R24
13619	29907	  001D1A   CPC     R17,R4
13620	29908	  001D1C   CPC     R18,R30
13621	29909	  001D1E   CPC     R19,R31
13622	29910	  001D20   CPC     R20,R0
13623	29911	  001D22   CPC     R21,R1
13624	29912	  001D24   CPC     R22,R2
13625	29913	  001D26   CPC     R23,R3
13626	29914	  001D28   BRCS    0x1D02
13627	29916	  001D02   DEC     R26
13628	29917	  001D04   BRMI    0x1D3C
13629	29918	  001D06   ROL     R25
13630	29919	  001D08   ROL     R16
13631	29920	  001D0A   ROL     R17
13632	29921	  001D0C   ROL     R18
13633	29922	  001D0E   ROL     R19
13634	29923	  001D10   ROL     R20
13635	29924	  001D12   ROL     R21
13636	29925	  001D14   ROL     R22
13637	29926	  001D16   ROL     R23
13638	29927	  001D18   CP      R16,R24
13639	29928	  001D1A   CPC     R17,R4
13640	29929	  001D1C   CPC     R18,R30
13641	29930	  001D1E   CPC     R19,R31
13642	29931	  001D20   CPC     R20,R0
13643	29932	  001D22   CPC     R21,R1
13644	29933	  001D24   CPC     R22,R2
13645	29934	  001D26   CPC     R23,R3
13646	29935	  001D28   BRCS    0x1D02
13647	29937	  001D02   DEC     R26
13648	29938	  001D04   BRMI    0x1D3C
13649	29939	  001D06   ROL     R25
13650	29940	  001D08   ROL     R16
13651	29941	  001D0A   ROL     R17
13652	29942	  001D0C   ROL     R18
13653	29943	  001D0E   ROL     R19
13654	29944	  001D10   ROL     R20
13655	29945	  001D12   ROL     R21
13656	29946	  001D14   ROL     R22
13657	29947	  001D16   ROL     R23
13658	29948	  001D18   CP      R16,R24
13659	29949	  001D1A   CPC     R17,R4
13660	29950	  001D1C   CPC     R18,R30
13661	29951	  001D1E   CPC     R19,R31
13662	29952	  001D20   CPC     R20,R0
13663	29953	  001D22   CPC     R21,R1
13664	29954	  001D24   CPC     R22,R2
13665	29955	  001D26   CPC     R23,R3
13666	29956	  001D28   BRCS    0x1D02
13667	29958	  001D02   DEC     R26
13668	29959	  001D04   BRMI    0x1D3C
13669	29960	  001D06   ROL     R25
13670	29961	  001D08   ROL     R16
13671	29962	  001D0A   ROL     R17
13672	29963	  001D0C   ROL     R18
13673	29964	  001D0E   ROL     R19
13674	29965	  001D10   ROL     R20
13675	29966	  001D12   ROL     R21
13676	29967	  001D14   ROL     R22
13677	29968	  001D16   ROL     R23
13678	29969	  001D18   CP      R16,R24
13679	29970	  001D1A   CPC     R17,R4
13680	29971	  001D1C   CPC     R18,R30
13681	29972	  001D1E   CPC     R19,R31
13682	29973	  001D20   CPC     R20,R0
13683	29974	  001D22   CPC     R21,R1
13684	29975	  001D24   CPC     R22,R2
13685	29976	  001D26   CPC     R23,R3
13686	29977	  001D28   BRCS    0x1D02
13687	29979	  001D02   DEC     R26
13688	29980	  001D04   BRMI    0x1D3C
13689	29981	  001D06   ROL     R25
13690	29982	  001D08   ROL     R16
13691	29983	  001D0A   ROL     R17
13692	29984	  001D0C   ROL     R18
13693	29985	  001D0E   ROL     R19
13694	29986	  001D10   ROL     R20
13695	29987	  001D12   ROL     R21
13696	29988	  001D14   ROL     R22
13697	29989	  001D16   ROL     R23
13698	29990	  001D18   CP      R16,R24
13699	29991	  001D1A   CPC     R17,R4
13700	29992	  001D1C   CPC     R18,R30
13701	29993	  001D1E   CPC     R19,R31
13702	29994	  001D20   CPC     R20,R0
13703	29995	  001D22   CPC     R21,R1
13704	29996	  001D24   CPC     R22,R2
13705	29997	  001D26   CPC     R23,R3
13706	29998	  001D28   BRCS    0x1D02
13707	30000	  001D02   DEC     R26
13708	30001	  001D04   BRMI    0x1D3C
13709	30003	  001D3C   ST      -Y,R25
13710	30005	  001D3E   LDI     R26,0x08
13711	30006	  001D40   DEC     R27
13712	30007	  001D42   BRPL    0x1CFE
13713	30008	  001D44   RET
13714	30012	  001C88   RJMP    DIV_EPILOGUE
		DIV_EPILOGUE:
13715	30014	  001CA6   LD      R16,Y+
13716	30016	  001CA8   LD      R17,Y+
13717	30018	  001CAA   LD      R18,Y+
13718	30020	  001CAC   LD      R19,Y+
13719	30022	  001CAE   LD      R20,Y+
13720	30024	  001CB0   LD      R21,Y+
13721	30026	  001CB2   LD      R22,Y+
13722	30028	  001CB4   LD      R23,Y+
13723	30030	  001CB6   ROL     R16
13724	30031	  001CB8   ROL     R17
13725	30032	  001CBA   ROL     R18
13726	30033	  001CBC   ROL     R19
13727	30034	  001CBE   ROL     R20
13728	30035	  001CC0   ROL     R21
13729	30036	  001CC2   ROL     R22
13730	30037	  001CC4   ROL     R23
13731	30038	  001CC6   COM     R16
13732	30039	  001CC8   COM     R17
13733	30040	  001CCA   COM     R18
13734	30041	  001CCC   COM     R19
13735	30042	  001CCE   COM     R20
13736	30043	  001CD0   COM     R21
13737	30044	  001CD2   COM     R22
13738	30045	  001CD4   COM     R23
		DIV_MOD_EPILOGUE:
13739	30046	  001CD6   LD      R27,Y+
13740	30048	  001CD8   LD      R26,Y+
13741	30050	  001CDA   LD      R25,Y+
13742	30052	  001CDC   LD      R24,Y+
13743	30054	  001CDE   LD      R4,Y+
13744	30056	  001CE0   RET
13745	30060	  002A8A   MOVW    R8,R16
13746	30061	  002A8C   MOVW    R10,R18
13747	30062	  002A8E   MOVW    R12,R20
13748	30063	  002A90   MOVW    R14,R22
13749	30064	  002A92   RCALL   0x2B40
13750	30067	  002B40   LDI     R30,0xFD
13751	30068	  002B42   LDI     R31,0x01
13752	30069	  002B44   JMP     ?LL_CMP_R8_L12
		?LL_CMP_R8_L12:
13753	30072	  001D92   LD      R24,Z
13754	30074	  001D94   CP      R8,R24
13755	30075	  001D96   LDD     R24,Z+1
13756	30077	  001D98   CPC     R9,R24
13757	30078	  001D9A   LDD     R24,Z+2
13758	30080	  001D9C   CPC     R10,R24
13759	30081	  001D9E   LDD     R24,Z+3
13760	30083	  001DA0   CPC     R11,R24
13761	30084	  001DA2   LDD     R24,Z+4
13762	30086	  001DA4   CPC     R12,R24
13763	30087	  001DA6   LDD     R24,Z+5
13764	30089	  001DA8   CPC     R13,R24
13765	30090	  001DAA   LDD     R24,Z+6
13766	30092	  001DAC   CPC     R14,R24
13767	30093	  001DAE   LDD     R24,Z+7
13768	30095	  001DB0   CPC     R15,R24
13769	30096	  001DB2   RET
13770	30100	  002A94   BREQ    0x2AA0
13771	30102	  002AA0   LDD     R16,Y+3
13772	30104	  002AA2   CPI     R16,0x08
13773	30105	  002AA4   BRNE    0x2AC4
13774	30107	  002AC4   LDI     R16,0x3C
13775	30108	  002AC6   LDI     R17,0x00
13776	30109	  002AC8   SUB     R16,R4
13777	30110	  002ACA   SBC     R17,R5
13778	30111	  002ACC   RCALL   0x2B4E
13779	30114	  002B4E   LD      R30,Y
13780	30116	  002B50   LDD     R31,Y+1
13781	30118	  002B52   RET
13782	30122	  002ACE   STD     Z+16,R16
13783	30124	  002AD0   STD     Z+17,R17
13784	30126	  002AD2   LDD     R18,Y+5
13785	30128	  002AD4   LDD     R19,Y+6
13786	30130	  002AD6   ADD     R18,R4
13787	30131	  002AD8   ADC     R19,R5
13788	30132	  002ADA   RCALL   0x2B4E
13789	30135	  002B4E   LD      R30,Y
13790	30137	  002B50   LDD     R31,Y+1
13791	30139	  002B52   RET
13792	30143	  002ADC   STD     Z+10,R18
13793	30145	  002ADE   STD     Z+11,R19
13794	30147	  002AE0   RCALL   0x2B48
13795	30150	  002B48   LD      R26,Y
13796	30152	  002B4A   LDD     R27,Y+1
13797	30154	  002B4C   RET
13798	30158	  002AE2   ADIW    R26,28
13799	30160	  002AE4   LD      R18,X+
13800	30162	  002AE6   LD      R19,X
13801	30164	  002AE8   CP      R16,R18
13802	30165	  002AEA   CPC     R17,R19
13803	30166	  002AEC   BRGE    0x2B06
13804	30168	  002B06   TST     R19
13805	30169	  002B08   BRPL    0x2B38
13806	30170	  002B0A   RCALL   0x2B48
13807	30173	  002B48   LD      R26,Y
13808	30175	  002B4A   LDD     R27,Y+1
13809	30177	  002B4C   RET
13810	30181	  002B0C   ADIW    R26,32
13811	30183	  002B0E   LD      R18,X+
13812	30185	  002B10   ANDI    R18,0x14
13813	30186	  002B12   CPI     R18,0x10
13814	30187	  002B14   BRNE    0x2B38
13815	30189	  002B38   ADIW    R28,15
13816	30191	  002B3A   LDI     R30,0x10
13817	30192	  002B3C   JMP     ?EPILOGUE_B16_L09
		?EPILOGUE_B16_L09:
13818	30195	  001C5A   LDD     R15,Y+15
		?EPILOGUE_B15_L09:
13819	30197	  001C5C   LDD     R14,Y+14
		?EPILOGUE_B14_L09:
13820	30199	  001C5E   LDD     R13,Y+13
		?EPILOGUE_B13_L09:
13821	30201	  001C60   LDD     R12,Y+12
		?EPILOGUE_B12_L09:
13822	30203	  001C62   LDD     R11,Y+11
		?EPILOGUE_B11_L09:
13823	30205	  001C64   LDD     R10,Y+10
		?EPILOGUE_B10_L09:
13824	30207	  001C66   LDD     R9,Y+9
		?EPILOGUE_B9_L09:
13825	30209	  001C68   LDD     R8,Y+8
		?EPILOGUE_B8_L09:
13826	30211	  001C6A   LDD     R7,Y+7
		?EPILOGUE_B7_L09:
13827	30213	  001C6C   LDD     R6,Y+6
		?EPILOGUE_B6_L09:
13828	30215	  001C6E   LDD     R5,Y+5
		?EPILOGUE_B5_L09:
13829	30217	  001C70   LDD     R4,Y+4
		?EPILOGUE_B4_L09:
13830	30219	  001C72   LDD     R27,Y+3
		?EPILOGUE_B3_L09:
13831	30221	  001C74   LDD     R26,Y+2
		?EPILOGUE_B2_L09:
13832	30223	  001C76   LDD     R25,Y+1
		?EPILOGUE_B1_L09:
13833	30225	  001C78   LD      R24,Y
		?EPILOGUE_B0_L09:
13834	30227	  001C7A   LDI     R31,0x00
13835	30228	  001C7C   ADD     R30,R28
13836	30229	  001C7E   ADC     R31,R29
13837	30230	  001C80   MOVW    R28,R30
13838	30231	  001C82   RET
13839	30235	  000000   JMP     ?C_STARTUP
		?C_STARTUP:
		__RESTART:
		__program_start:
13840	30238	  0015D6   LDI     R16,0x3F
13841	30239	  0015D8   OUT     SP,R16
13842	30240	  0015DA   LDI     R16,0x01
13843	30241	  0015DC   OUT     SP.SPH,R16
13844	30242	  0015DE   LDI     R28,0x20
13845	30243	  0015E0   LDI     R29,0x01
		?call_low_level_init:
13846	30244	  0015E2   CALL    __low_level_init
		__low_level_init:
13847	30248	  001DB4   LDI     R16,0x01
13848	30249	  001DB6   RET
		?need_segment_init:
13849	30253	  0015E6   TST     R16
13850	30254	  0015E8   BREQ    ?cstartup_call_main
13851	30255	  0015EA   CALL    __segment_init
		__segment_init:
13852	30259	  001E2A   LDI     R20,0x30
13853	30260	  001E2C   LDI     R21,0x31
13854	30261	  001E2E   LDI     R22,0x00
13855	30262	  001E30   MOVW    R30,R20
13856	30263	  001E32   MOV     R19,R22
13857	30264	  001E34   OUT     RAMPZ,R19
13858	30265	  001E36   ELPM      R16,Z+
13859	30268	  001E38   ELPM      R17,Z
13860	30271	  001E3A   MOVW    R30,R20
13861	30272	  001E3C   SUBI    R30,0xFE
13862	30273	  001E3E   SBCI    R31,0xFF
13863	30274	  001E40   SBCI    R19,0xFF
13864	30275	  001E42   OUT     RAMPZ,R19
13865	30276	  001E44   ELPM      R26,Z+
13866	30279	  001E46   ELPM      R27,Z
13867	30282	  001E48   MOVW    R30,R20
13868	30283	  001E4A   MOV     R19,R22
13869	30284	  001E4C   SUBI    R30,0xFC
13870	30285	  001E4E   SBCI    R31,0xFF
13871	30286	  001E50   SBCI    R19,0xFF
13872	30287	  001E52   OUT     RAMPZ,R19
13873	30288	  001E54   ELPM      R0,Z+
13874	30291	  001E56   ELPM      R1,Z+
13875	30294	  001E58   ELPM      R2,Z
13876	30297	  001E5A   MOV     R18,R0
13877	30298	  001E5C   OR      R18,R1
13878	30299	  001E5E   OR      R18,R2
13879	30300	  001E60   BREQ    0x1E6A
13880	30301	  001E62   MOVW    R30,R0
13881	30302	  001E64   MOV     R19,R2
13882	30303	  001E66   RCALL   __flashcpy
		__flashcpy:
13883	30306	  001E16   OUT     RAMPZ,R19
13884	30307	  001E18   ELPM      R18,Z
13885	30310	  001E1A   ST      X+,R18
13886	30312	  001E1C   SUBI    R30,0xFF
13887	30313	  001E1E   SBCI    R31,0xFF
13888	30314	  001E20   SBCI    R19,0xFF
13889	30315	  001E22   SUBI    R16,0x01
13890	30316	  001E24   SBCI    R17,0x00
13891	30317	  001E26   BRNE    __flashcpy
		__flashcpy:
13892	30319	  001E16   OUT     RAMPZ,R19
13893	30320	  001E18   ELPM      R18,Z
13894	30323	  001E1A   ST      X+,R18
13895	30325	  001E1C   SUBI    R30,0xFF
13896	30326	  001E1E   SBCI    R31,0xFF
13897	30327	  001E20   SBCI    R19,0xFF
13898	30328	  001E22   SUBI    R16,0x01
13899	30329	  001E24   SBCI    R17,0x00
13900	30330	  001E26   BRNE    __flashcpy
		__flashcpy:
13901	30332	  001E16   OUT     RAMPZ,R19
13902	30333	  001E18   ELPM      R18,Z
13903	30336	  001E1A   ST      X+,R18
13904	30338	  001E1C   SUBI    R30,0xFF
13905	30339	  001E1E   SBCI    R31,0xFF
13906	30340	  001E20   SBCI    R19,0xFF
13907	30341	  001E22   SUBI    R16,0x01
13908	30342	  001E24   SBCI    R17,0x00
13909	30343	  001E26   BRNE    __flashcpy
		__flashcpy:
13910	30345	  001E16   OUT     RAMPZ,R19
13911	30346	  001E18   ELPM      R18,Z
13912	30349	  001E1A   ST      X+,R18
13913	30351	  001E1C   SUBI    R30,0xFF
13914	30352	  001E1E   SBCI    R31,0xFF
13915	30353	  001E20   SBCI    R19,0xFF
13916	30354	  001E22   SUBI    R16,0x01
13917	30355	  001E24   SBCI    R17,0x00
13918	30356	  001E26   BRNE    __flashcpy
		__flashcpy:
13919	30358	  001E16   OUT     RAMPZ,R19
13920	30359	  001E18   ELPM      R18,Z
13921	30362	  001E1A   ST      X+,R18
13922	30364	  001E1C   SUBI    R30,0xFF
13923	30365	  001E1E   SBCI    R31,0xFF
13924	30366	  001E20   SBCI    R19,0xFF
13925	30367	  001E22   SUBI    R16,0x01
13926	30368	  001E24   SBCI    R17,0x00
13927	30369	  001E26   BRNE    __flashcpy
		__flashcpy:
13928	30371	  001E16   OUT     RAMPZ,R19
13929	30372	  001E18   ELPM      R18,Z
13930	30375	  001E1A   ST      X+,R18
13931	30377	  001E1C   SUBI    R30,0xFF
13932	30378	  001E1E   SBCI    R31,0xFF
13933	30379	  001E20   SBCI    R19,0xFF
13934	30380	  001E22   SUBI    R16,0x01
13935	30381	  001E24   SBCI    R17,0x00
13936	30382	  001E26   BRNE    __flashcpy
		__flashcpy:
13937	30384	  001E16   OUT     RAMPZ,R19
13938	30385	  001E18   ELPM      R18,Z
13939	30388	  001E1A   ST      X+,R18
13940	30390	  001E1C   SUBI    R30,0xFF
13941	30391	  001E1E   SBCI    R31,0xFF
13942	30392	  001E20   SBCI    R19,0xFF
13943	30393	  001E22   SUBI    R16,0x01
13944	30394	  001E24   SBCI    R17,0x00
13945	30395	  001E26   BRNE    __flashcpy
		__flashcpy:
13946	30397	  001E16   OUT     RAMPZ,R19
13947	30398	  001E18   ELPM      R18,Z
13948	30401	  001E1A   ST      X+,R18
13949	30403	  001E1C   SUBI    R30,0xFF
13950	30404	  001E1E   SBCI    R31,0xFF
13951	30405	  001E20   SBCI    R19,0xFF
13952	30406	  001E22   SUBI    R16,0x01
13953	30407	  001E24   SBCI    R17,0x00
13954	30408	  001E26   BRNE    __flashcpy
		__flashcpy:
13955	30410	  001E16   OUT     RAMPZ,R19
13956	30411	  001E18   ELPM      R18,Z
13957	30414	  001E1A   ST      X+,R18
13958	30416	  001E1C   SUBI    R30,0xFF
13959	30417	  001E1E   SBCI    R31,0xFF
13960	30418	  001E20   SBCI    R19,0xFF
13961	30419	  001E22   SUBI    R16,0x01
13962	30420	  001E24   SBCI    R17,0x00
13963	30421	  001E26   BRNE    __flashcpy
		__flashcpy:
13964	30423	  001E16   OUT     RAMPZ,R19
13965	30424	  001E18   ELPM      R18,Z
13966	30427	  001E1A   ST      X+,R18
13967	30429	  001E1C   SUBI    R30,0xFF
13968	30430	  001E1E   SBCI    R31,0xFF
13969	30431	  001E20   SBCI    R19,0xFF
13970	30432	  001E22   SUBI    R16,0x01
13971	30433	  001E24   SBCI    R17,0x00
13972	30434	  001E26   BRNE    __flashcpy
		__flashcpy:
13973	30436	  001E16   OUT     RAMPZ,R19
13974	30437	  001E18   ELPM      R18,Z
13975	30440	  001E1A   ST      X+,R18
13976	30442	  001E1C   SUBI    R30,0xFF
13977	30443	  001E1E   SBCI    R31,0xFF
13978	30444	  001E20   SBCI    R19,0xFF
13979	30445	  001E22   SUBI    R16,0x01
13980	30446	  001E24   SBCI    R17,0x00
13981	30447	  001E26   BRNE    __flashcpy
		__flashcpy:
13982	30449	  001E16   OUT     RAMPZ,R19
13983	30450	  001E18   ELPM      R18,Z
13984	30453	  001E1A   ST      X+,R18
13985	30455	  001E1C   SUBI    R30,0xFF
13986	30456	  001E1E   SBCI    R31,0xFF
13987	30457	  001E20   SBCI    R19,0xFF
13988	30458	  001E22   SUBI    R16,0x01
13989	30459	  001E24   SBCI    R17,0x00
13990	30460	  001E26   BRNE    __flashcpy
		__flashcpy:
13991	30462	  001E16   OUT     RAMPZ,R19
13992	30463	  001E18   ELPM      R18,Z
13993	30466	  001E1A   ST      X+,R18
13994	30468	  001E1C   SUBI    R30,0xFF
13995	30469	  001E1E   SBCI    R31,0xFF
13996	30470	  001E20   SBCI    R19,0xFF
13997	30471	  001E22   SUBI    R16,0x01
13998	30472	  001E24   SBCI    R17,0x00
13999	30473	  001E26   BRNE    __flashcpy
		__flashcpy:
14000	30475	  001E16   OUT     RAMPZ,R19
14001	30476	  001E18   ELPM      R18,Z
14002	30479	  001E1A   ST      X+,R18
14003	30481	  001E1C   SUBI    R30,0xFF
14004	30482	  001E1E   SBCI    R31,0xFF
14005	30483	  001E20   SBCI    R19,0xFF
14006	30484	  001E22   SUBI    R16,0x01
14007	30485	  001E24   SBCI    R17,0x00
14008	30486	  001E26   BRNE    __flashcpy
		__flashcpy:
14009	30488	  001E16   OUT     RAMPZ,R19
14010	30489	  001E18   ELPM      R18,Z
14011	30492	  001E1A   ST      X+,R18
14012	30494	  001E1C   SUBI    R30,0xFF
14013	30495	  001E1E   SBCI    R31,0xFF
14014	30496	  001E20   SBCI    R19,0xFF
14015	30497	  001E22   SUBI    R16,0x01
14016	30498	  001E24   SBCI    R17,0x00
14017	30499	  001E26   BRNE    __flashcpy
		__flashcpy:
14018	30501	  001E16   OUT     RAMPZ,R19
14019	30502	  001E18   ELPM      R18,Z
14020	30505	  001E1A   ST      X+,R18
14021	30507	  001E1C   SUBI    R30,0xFF
14022	30508	  001E1E   SBCI    R31,0xFF
14023	30509	  001E20   SBCI    R19,0xFF
14024	30510	  001E22   SUBI    R16,0x01
14025	30511	  001E24   SBCI    R17,0x00
14026	30512	  001E26   BRNE    __flashcpy
		__flashcpy:
14027	30514	  001E16   OUT     RAMPZ,R19
14028	30515	  001E18   ELPM      R18,Z
14029	30518	  001E1A   ST      X+,R18
14030	30520	  001E1C   SUBI    R30,0xFF
14031	30521	  001E1E   SBCI    R31,0xFF
14032	30522	  001E20   SBCI    R19,0xFF
14033	30523	  001E22   SUBI    R16,0x01
14034	30524	  001E24   SBCI    R17,0x00
14035	30525	  001E26   BRNE    __flashcpy
		__flashcpy:
14036	30527	  001E16   OUT     RAMPZ,R19
14037	30528	  001E18   ELPM      R18,Z
14038	30531	  001E1A   ST      X+,R18
14039	30533	  001E1C   SUBI    R30,0xFF
14040	30534	  001E1E   SBCI    R31,0xFF
14041	30535	  001E20   SBCI    R19,0xFF
14042	30536	  001E22   SUBI    R16,0x01
14043	30537	  001E24   SBCI    R17,0x00
14044	30538	  001E26   BRNE    __flashcpy
		__flashcpy:
14045	30540	  001E16   OUT     RAMPZ,R19
14046	30541	  001E18   ELPM      R18,Z
14047	30544	  001E1A   ST      X+,R18
14048	30546	  001E1C   SUBI    R30,0xFF
14049	30547	  001E1E   SBCI    R31,0xFF
14050	30548	  001E20   SBCI    R19,0xFF
14051	30549	  001E22   SUBI    R16,0x01
14052	30550	  001E24   SBCI    R17,0x00
14053	30551	  001E26   BRNE    __flashcpy
		__flashcpy:
14054	30553	  001E16   OUT     RAMPZ,R19
14055	30554	  001E18   ELPM      R18,Z
14056	30557	  001E1A   ST      X+,R18
14057	30559	  001E1C   SUBI    R30,0xFF
14058	30560	  001E1E   SBCI    R31,0xFF
14059	30561	  001E20   SBCI    R19,0xFF
14060	30562	  001E22   SUBI    R16,0x01
14061	30563	  001E24   SBCI    R17,0x00
14062	30564	  001E26   BRNE    __flashcpy
		__flashcpy:
14063	30566	  001E16   OUT     RAMPZ,R19
14064	30567	  001E18   ELPM      R18,Z
14065	30570	  001E1A   ST      X+,R18
14066	30572	  001E1C   SUBI    R30,0xFF
14067	30573	  001E1E   SBCI    R31,0xFF
14068	30574	  001E20   SBCI    R19,0xFF
14069	30575	  001E22   SUBI    R16,0x01
14070	30576	  001E24   SBCI    R17,0x00
14071	30577	  001E26   BRNE    __flashcpy
		__flashcpy:
14072	30579	  001E16   OUT     RAMPZ,R19
14073	30580	  001E18   ELPM      R18,Z
14074	30583	  001E1A   ST      X+,R18
14075	30585	  001E1C   SUBI    R30,0xFF
14076	30586	  001E1E   SBCI    R31,0xFF
14077	30587	  001E20   SBCI    R19,0xFF
14078	30588	  001E22   SUBI    R16,0x01
14079	30589	  001E24   SBCI    R17,0x00
14080	30590	  001E26   BRNE    __flashcpy
		__flashcpy:
14081	30592	  001E16   OUT     RAMPZ,R19
14082	30593	  001E18   ELPM      R18,Z
14083	30596	  001E1A   ST      X+,R18
14084	30598	  001E1C   SUBI    R30,0xFF
14085	30599	  001E1E   SBCI    R31,0xFF
14086	30600	  001E20   SBCI    R19,0xFF
14087	30601	  001E22   SUBI    R16,0x01
14088	30602	  001E24   SBCI    R17,0x00
14089	30603	  001E26   BRNE    __flashcpy
		__flashcpy:
14090	30605	  001E16   OUT     RAMPZ,R19
14091	30606	  001E18   ELPM      R18,Z
14092	30609	  001E1A   ST      X+,R18
14093	30611	  001E1C   SUBI    R30,0xFF
14094	30612	  001E1E   SBCI    R31,0xFF
14095	30613	  001E20   SBCI    R19,0xFF
14096	30614	  001E22   SUBI    R16,0x01
14097	30615	  001E24   SBCI    R17,0x00
14098	30616	  001E26   BRNE    __flashcpy
		__flashcpy:
14099	30618	  001E16   OUT     RAMPZ,R19
14100	30619	  001E18   ELPM      R18,Z
14101	30622	  001E1A   ST      X+,R18
14102	30624	  001E1C   SUBI    R30,0xFF
14103	30625	  001E1E   SBCI    R31,0xFF
14104	30626	  001E20   SBCI    R19,0xFF
14105	30627	  001E22   SUBI    R16,0x01
14106	30628	  001E24   SBCI    R17,0x00
14107	30629	  001E26   BRNE    __flashcpy
		__flashcpy:
14108	30631	  001E16   OUT     RAMPZ,R19
14109	30632	  001E18   ELPM      R18,Z
14110	30635	  001E1A   ST      X+,R18
14111	30637	  001E1C   SUBI    R30,0xFF
14112	30638	  001E1E   SBCI    R31,0xFF
14113	30639	  001E20   SBCI    R19,0xFF
14114	30640	  001E22   SUBI    R16,0x01
14115	30641	  001E24   SBCI    R17,0x00
14116	30642	  001E26   BRNE    __flashcpy
		__flashcpy:
14117	30644	  001E16   OUT     RAMPZ,R19
14118	30645	  001E18   ELPM      R18,Z
14119	30648	  001E1A   ST      X+,R18
14120	30650	  001E1C   SUBI    R30,0xFF
14121	30651	  001E1E   SBCI    R31,0xFF
14122	30652	  001E20   SBCI    R19,0xFF
14123	30653	  001E22   SUBI    R16,0x01
14124	30654	  001E24   SBCI    R17,0x00
14125	30655	  001E26   BRNE    __flashcpy
		__flashcpy:
14126	30657	  001E16   OUT     RAMPZ,R19
14127	30658	  001E18   ELPM      R18,Z
14128	30661	  001E1A   ST      X+,R18
14129	30663	  001E1C   SUBI    R30,0xFF
14130	30664	  001E1E   SBCI    R31,0xFF
14131	30665	  001E20   SBCI    R19,0xFF
14132	30666	  001E22   SUBI    R16,0x01
14133	30667	  001E24   SBCI    R17,0x00
14134	30668	  001E26   BRNE    __flashcpy
		__flashcpy:
14135	30670	  001E16   OUT     RAMPZ,R19
14136	30671	  001E18   ELPM      R18,Z
14137	30674	  001E1A   ST      X+,R18
14138	30676	  001E1C   SUBI    R30,0xFF
14139	30677	  001E1E   SBCI    R31,0xFF
14140	30678	  001E20   SBCI    R19,0xFF
14141	30679	  001E22   SUBI    R16,0x01
14142	30680	  001E24   SBCI    R17,0x00
14143	30681	  001E26   BRNE    __flashcpy
		__flashcpy:
14144	30683	  001E16   OUT     RAMPZ,R19
14145	30684	  001E18   ELPM      R18,Z
14146	30687	  001E1A   ST      X+,R18
14147	30689	  001E1C   SUBI    R30,0xFF
14148	30690	  001E1E   SBCI    R31,0xFF
14149	30691	  001E20   SBCI    R19,0xFF
14150	30692	  001E22   SUBI    R16,0x01
14151	30693	  001E24   SBCI    R17,0x00
14152	30694	  001E26   BRNE    __flashcpy
		__flashcpy:
14153	30696	  001E16   OUT     RAMPZ,R19
14154	30697	  001E18   ELPM      R18,Z
14155	30700	  001E1A   ST      X+,R18
14156	30702	  001E1C   SUBI    R30,0xFF
14157	30703	  001E1E   SBCI    R31,0xFF
14158	30704	  001E20   SBCI    R19,0xFF
14159	30705	  001E22   SUBI    R16,0x01
14160	30706	  001E24   SBCI    R17,0x00
14161	30707	  001E26   BRNE    __flashcpy
		__flashcpy:
14162	30709	  001E16   OUT     RAMPZ,R19
14163	30710	  001E18   ELPM      R18,Z
14164	30713	  001E1A   ST      X+,R18
14165	30715	  001E1C   SUBI    R30,0xFF
14166	30716	  001E1E   SBCI    R31,0xFF
14167	30717	  001E20   SBCI    R19,0xFF
14168	30718	  001E22   SUBI    R16,0x01
14169	30719	  001E24   SBCI    R17,0x00
14170	30720	  001E26   BRNE    __flashcpy
		__flashcpy:
14171	30722	  001E16   OUT     RAMPZ,R19
14172	30723	  001E18   ELPM      R18,Z
14173	30726	  001E1A   ST      X+,R18
14174	30728	  001E1C   SUBI    R30,0xFF
14175	30729	  001E1E   SBCI    R31,0xFF
14176	30730	  001E20   SBCI    R19,0xFF
14177	30731	  001E22   SUBI    R16,0x01
14178	30732	  001E24   SBCI    R17,0x00
14179	30733	  001E26   BRNE    __flashcpy
		__flashcpy:
14180	30735	  001E16   OUT     RAMPZ,R19
14181	30736	  001E18   ELPM      R18,Z
14182	30739	  001E1A   ST      X+,R18
14183	30741	  001E1C   SUBI    R30,0xFF
14184	30742	  001E1E   SBCI    R31,0xFF
14185	30743	  001E20   SBCI    R19,0xFF
14186	30744	  001E22   SUBI    R16,0x01
14187	30745	  001E24   SBCI    R17,0x00
14188	30746	  001E26   BRNE    __flashcpy
		__flashcpy:
14189	30748	  001E16   OUT     RAMPZ,R19
14190	30749	  001E18   ELPM      R18,Z
14191	30752	  001E1A   ST      X+,R18
14192	30754	  001E1C   SUBI    R30,0xFF
14193	30755	  001E1E   SBCI    R31,0xFF
14194	30756	  001E20   SBCI    R19,0xFF
14195	30757	  001E22   SUBI    R16,0x01
14196	30758	  001E24   SBCI    R17,0x00
14197	30759	  001E26   BRNE    __flashcpy
		__flashcpy:
14198	30761	  001E16   OUT     RAMPZ,R19
14199	30762	  001E18   ELPM      R18,Z
14200	30765	  001E1A   ST      X+,R18
14201	30767	  001E1C   SUBI    R30,0xFF
14202	30768	  001E1E   SBCI    R31,0xFF
14203	30769	  001E20   SBCI    R19,0xFF
14204	30770	  001E22   SUBI    R16,0x01
14205	30771	  001E24   SBCI    R17,0x00
14206	30772	  001E26   BRNE    __flashcpy
		__flashcpy:
14207	30774	  001E16   OUT     RAMPZ,R19
14208	30775	  001E18   ELPM      R18,Z
14209	30778	  001E1A   ST      X+,R18
14210	30780	  001E1C   SUBI    R30,0xFF
14211	30781	  001E1E   SBCI    R31,0xFF
14212	30782	  001E20   SBCI    R19,0xFF
14213	30783	  001E22   SUBI    R16,0x01
14214	30784	  001E24   SBCI    R17,0x00
14215	30785	  001E26   BRNE    __flashcpy
		__flashcpy:
14216	30787	  001E16   OUT     RAMPZ,R19
14217	30788	  001E18   ELPM      R18,Z
14218	30791	  001E1A   ST      X+,R18
14219	30793	  001E1C   SUBI    R30,0xFF
14220	30794	  001E1E   SBCI    R31,0xFF
14221	30795	  001E20   SBCI    R19,0xFF
14222	30796	  001E22   SUBI    R16,0x01
14223	30797	  001E24   SBCI    R17,0x00
14224	30798	  001E26   BRNE    __flashcpy
		__flashcpy:
14225	30800	  001E16   OUT     RAMPZ,R19
14226	30801	  001E18   ELPM      R18,Z
14227	30804	  001E1A   ST      X+,R18
14228	30806	  001E1C   SUBI    R30,0xFF
14229	30807	  001E1E   SBCI    R31,0xFF
14230	30808	  001E20   SBCI    R19,0xFF
14231	30809	  001E22   SUBI    R16,0x01
14232	30810	  001E24   SBCI    R17,0x00
14233	30811	  001E26   BRNE    __flashcpy
		__flashcpy:
14234	30813	  001E16   OUT     RAMPZ,R19
14235	30814	  001E18   ELPM      R18,Z
14236	30817	  001E1A   ST      X+,R18
14237	30819	  001E1C   SUBI    R30,0xFF
14238	30820	  001E1E   SBCI    R31,0xFF
14239	30821	  001E20   SBCI    R19,0xFF
14240	30822	  001E22   SUBI    R16,0x01
14241	30823	  001E24   SBCI    R17,0x00
14242	30824	  001E26   BRNE    __flashcpy
		__flashcpy:
14243	30826	  001E16   OUT     RAMPZ,R19
14244	30827	  001E18   ELPM      R18,Z
14245	30830	  001E1A   ST      X+,R18
14246	30832	  001E1C   SUBI    R30,0xFF
14247	30833	  001E1E   SBCI    R31,0xFF
14248	30834	  001E20   SBCI    R19,0xFF
14249	30835	  001E22   SUBI    R16,0x01
14250	30836	  001E24   SBCI    R17,0x00
14251	30837	  001E26   BRNE    __flashcpy
		__flashcpy:
14252	30839	  001E16   OUT     RAMPZ,R19
14253	30840	  001E18   ELPM      R18,Z
14254	30843	  001E1A   ST      X+,R18
14255	30845	  001E1C   SUBI    R30,0xFF
14256	30846	  001E1E   SBCI    R31,0xFF
14257	30847	  001E20   SBCI    R19,0xFF
14258	30848	  001E22   SUBI    R16,0x01
14259	30849	  001E24   SBCI    R17,0x00
14260	30850	  001E26   BRNE    __flashcpy
		__flashcpy:
14261	30852	  001E16   OUT     RAMPZ,R19
14262	30853	  001E18   ELPM      R18,Z
14263	30856	  001E1A   ST      X+,R18
14264	30858	  001E1C   SUBI    R30,0xFF
14265	30859	  001E1E   SBCI    R31,0xFF
14266	30860	  001E20   SBCI    R19,0xFF
14267	30861	  001E22   SUBI    R16,0x01
14268	30862	  001E24   SBCI    R17,0x00
14269	30863	  001E26   BRNE    __flashcpy
		__flashcpy:
14270	30865	  001E16   OUT     RAMPZ,R19
14271	30866	  001E18   ELPM      R18,Z
14272	30869	  001E1A   ST      X+,R18
14273	30871	  001E1C   SUBI    R30,0xFF
14274	30872	  001E1E   SBCI    R31,0xFF
14275	30873	  001E20   SBCI    R19,0xFF
14276	30874	  001E22   SUBI    R16,0x01
14277	30875	  001E24   SBCI    R17,0x00
14278	30876	  001E26   BRNE    __flashcpy
		__flashcpy:
14279	30878	  001E16   OUT     RAMPZ,R19
14280	30879	  001E18   ELPM      R18,Z
14281	30882	  001E1A   ST      X+,R18
14282	30884	  001E1C   SUBI    R30,0xFF
14283	30885	  001E1E   SBCI    R31,0xFF
14284	30886	  001E20   SBCI    R19,0xFF
14285	30887	  001E22   SUBI    R16,0x01
14286	30888	  001E24   SBCI    R17,0x00
14287	30889	  001E26   BRNE    __flashcpy
		__flashcpy:
14288	30891	  001E16   OUT     RAMPZ,R19
14289	30892	  001E18   ELPM      R18,Z
14290	30895	  001E1A   ST      X+,R18
14291	30897	  001E1C   SUBI    R30,0xFF
14292	30898	  001E1E   SBCI    R31,0xFF
14293	30899	  001E20   SBCI    R19,0xFF
14294	30900	  001E22   SUBI    R16,0x01
14295	30901	  001E24   SBCI    R17,0x00
14296	30902	  001E26   BRNE    __flashcpy
		__flashcpy:
14297	30904	  001E16   OUT     RAMPZ,R19
14298	30905	  001E18   ELPM      R18,Z
14299	30908	  001E1A   ST      X+,R18
14300	30910	  001E1C   SUBI    R30,0xFF
14301	30911	  001E1E   SBCI    R31,0xFF
14302	30912	  001E20   SBCI    R19,0xFF
14303	30913	  001E22   SUBI    R16,0x01
14304	30914	  001E24   SBCI    R17,0x00
14305	30915	  001E26   BRNE    __flashcpy
		__flashcpy:
14306	30917	  001E16   OUT     RAMPZ,R19
14307	30918	  001E18   ELPM      R18,Z
14308	30921	  001E1A   ST      X+,R18
14309	30923	  001E1C   SUBI    R30,0xFF
14310	30924	  001E1E   SBCI    R31,0xFF
14311	30925	  001E20   SBCI    R19,0xFF
14312	30926	  001E22   SUBI    R16,0x01
14313	30927	  001E24   SBCI    R17,0x00
14314	30928	  001E26   BRNE    __flashcpy
		__flashcpy:
14315	30930	  001E16   OUT     RAMPZ,R19
14316	30931	  001E18   ELPM      R18,Z
14317	30934	  001E1A   ST      X+,R18
14318	30936	  001E1C   SUBI    R30,0xFF
14319	30937	  001E1E   SBCI    R31,0xFF
14320	30938	  001E20   SBCI    R19,0xFF
14321	30939	  001E22   SUBI    R16,0x01
14322	30940	  001E24   SBCI    R17,0x00
14323	30941	  001E26   BRNE    __flashcpy
		__flashcpy:
14324	30943	  001E16   OUT     RAMPZ,R19
14325	30944	  001E18   ELPM      R18,Z
14326	30947	  001E1A   ST      X+,R18
14327	30949	  001E1C   SUBI    R30,0xFF
14328	30950	  001E1E   SBCI    R31,0xFF
14329	30951	  001E20   SBCI    R19,0xFF
14330	30952	  001E22   SUBI    R16,0x01
14331	30953	  001E24   SBCI    R17,0x00
14332	30954	  001E26   BRNE    __flashcpy
		__flashcpy:
14333	30956	  001E16   OUT     RAMPZ,R19
14334	30957	  001E18   ELPM      R18,Z
14335	30960	  001E1A   ST      X+,R18
14336	30962	  001E1C   SUBI    R30,0xFF
14337	30963	  001E1E   SBCI    R31,0xFF
14338	30964	  001E20   SBCI    R19,0xFF
14339	30965	  001E22   SUBI    R16,0x01
14340	30966	  001E24   SBCI    R17,0x00
14341	30967	  001E26   BRNE    __flashcpy
		__flashcpy:
14342	30969	  001E16   OUT     RAMPZ,R19
14343	30970	  001E18   ELPM      R18,Z
14344	30973	  001E1A   ST      X+,R18
14345	30975	  001E1C   SUBI    R30,0xFF
14346	30976	  001E1E   SBCI    R31,0xFF
14347	30977	  001E20   SBCI    R19,0xFF
14348	30978	  001E22   SUBI    R16,0x01
14349	30979	  001E24   SBCI    R17,0x00
14350	30980	  001E26   BRNE    __flashcpy
		__flashcpy:
14351	30982	  001E16   OUT     RAMPZ,R19
14352	30983	  001E18   ELPM      R18,Z
14353	30986	  001E1A   ST      X+,R18
14354	30988	  001E1C   SUBI    R30,0xFF
14355	30989	  001E1E   SBCI    R31,0xFF
14356	30990	  001E20   SBCI    R19,0xFF
14357	30991	  001E22   SUBI    R16,0x01
14358	30992	  001E24   SBCI    R17,0x00
14359	30993	  001E26   BRNE    __flashcpy
		__flashcpy:
14360	30995	  001E16   OUT     RAMPZ,R19
14361	30996	  001E18   ELPM      R18,Z
14362	30999	  001E1A   ST      X+,R18
14363	31001	  001E1C   SUBI    R30,0xFF
14364	31002	  001E1E   SBCI    R31,0xFF
14365	31003	  001E20   SBCI    R19,0xFF
14366	31004	  001E22   SUBI    R16,0x01
14367	31005	  001E24   SBCI    R17,0x00
14368	31006	  001E26   BRNE    __flashcpy
		__flashcpy:
14369	31008	  001E16   OUT     RAMPZ,R19
14370	31009	  001E18   ELPM      R18,Z
14371	31012	  001E1A   ST      X+,R18
14372	31014	  001E1C   SUBI    R30,0xFF
14373	31015	  001E1E   SBCI    R31,0xFF
14374	31016	  001E20   SBCI    R19,0xFF
14375	31017	  001E22   SUBI    R16,0x01
14376	31018	  001E24   SBCI    R17,0x00
14377	31019	  001E26   BRNE    __flashcpy
		__flashcpy:
14378	31021	  001E16   OUT     RAMPZ,R19
14379	31022	  001E18   ELPM      R18,Z
14380	31025	  001E1A   ST      X+,R18
14381	31027	  001E1C   SUBI    R30,0xFF
14382	31028	  001E1E   SBCI    R31,0xFF
14383	31029	  001E20   SBCI    R19,0xFF
14384	31030	  001E22   SUBI    R16,0x01
14385	31031	  001E24   SBCI    R17,0x00
14386	31032	  001E26   BRNE    __flashcpy
		__flashcpy:
14387	31034	  001E16   OUT     RAMPZ,R19
14388	31035	  001E18   ELPM      R18,Z
14389	31038	  001E1A   ST      X+,R18
14390	31040	  001E1C   SUBI    R30,0xFF
14391	31041	  001E1E   SBCI    R31,0xFF
14392	31042	  001E20   SBCI    R19,0xFF
14393	31043	  001E22   SUBI    R16,0x01
14394	31044	  001E24   SBCI    R17,0x00
14395	31045	  001E26   BRNE    __flashcpy
		__flashcpy:
14396	31047	  001E16   OUT     RAMPZ,R19
14397	31048	  001E18   ELPM      R18,Z
14398	31051	  001E1A   ST      X+,R18
14399	31053	  001E1C   SUBI    R30,0xFF
14400	31054	  001E1E   SBCI    R31,0xFF
14401	31055	  001E20   SBCI    R19,0xFF
14402	31056	  001E22   SUBI    R16,0x01
14403	31057	  001E24   SBCI    R17,0x00
14404	31058	  001E26   BRNE    __flashcpy
		__flashcpy:
14405	31060	  001E16   OUT     RAMPZ,R19
14406	31061	  001E18   ELPM      R18,Z
14407	31064	  001E1A   ST      X+,R18
14408	31066	  001E1C   SUBI    R30,0xFF
14409	31067	  001E1E   SBCI    R31,0xFF
14410	31068	  001E20   SBCI    R19,0xFF
14411	31069	  001E22   SUBI    R16,0x01
14412	31070	  001E24   SBCI    R17,0x00
14413	31071	  001E26   BRNE    __flashcpy
		__flashcpy:
14414	31073	  001E16   OUT     RAMPZ,R19
14415	31074	  001E18   ELPM      R18,Z
14416	31077	  001E1A   ST      X+,R18
14417	31079	  001E1C   SUBI    R30,0xFF
14418	31080	  001E1E   SBCI    R31,0xFF
14419	31081	  001E20   SBCI    R19,0xFF
14420	31082	  001E22   SUBI    R16,0x01
14421	31083	  001E24   SBCI    R17,0x00
14422	31084	  001E26   BRNE    __flashcpy
		__flashcpy:
14423	31086	  001E16   OUT     RAMPZ,R19
14424	31087	  001E18   ELPM      R18,Z
14425	31090	  001E1A   ST      X+,R18
14426	31092	  001E1C   SUBI    R30,0xFF
14427	31093	  001E1E   SBCI    R31,0xFF
14428	31094	  001E20   SBCI    R19,0xFF
14429	31095	  001E22   SUBI    R16,0x01
14430	31096	  001E24   SBCI    R17,0x00
14431	31097	  001E26   BRNE    __flashcpy
		__flashcpy:
14432	31099	  001E16   OUT     RAMPZ,R19
14433	31100	  001E18   ELPM      R18,Z
14434	31103	  001E1A   ST      X+,R18
14435	31105	  001E1C   SUBI    R30,0xFF
14436	31106	  001E1E   SBCI    R31,0xFF
14437	31107	  001E20   SBCI    R19,0xFF
14438	31108	  001E22   SUBI    R16,0x01
14439	31109	  001E24   SBCI    R17,0x00
14440	31110	  001E26   BRNE    __flashcpy
		__flashcpy:
14441	31112	  001E16   OUT     RAMPZ,R19
14442	31113	  001E18   ELPM      R18,Z
14443	31116	  001E1A   ST      X+,R18
14444	31118	  001E1C   SUBI    R30,0xFF
14445	31119	  001E1E   SBCI    R31,0xFF
14446	31120	  001E20   SBCI    R19,0xFF
14447	31121	  001E22   SUBI    R16,0x01
14448	31122	  001E24   SBCI    R17,0x00
14449	31123	  001E26   BRNE    __flashcpy
		__flashcpy:
14450	31125	  001E16   OUT     RAMPZ,R19
14451	31126	  001E18   ELPM      R18,Z
14452	31129	  001E1A   ST      X+,R18
14453	31131	  001E1C   SUBI    R30,0xFF
14454	31132	  001E1E   SBCI    R31,0xFF
14455	31133	  001E20   SBCI    R19,0xFF
14456	31134	  001E22   SUBI    R16,0x01
14457	31135	  001E24   SBCI    R17,0x00
14458	31136	  001E26   BRNE    __flashcpy
		__flashcpy:
14459	31138	  001E16   OUT     RAMPZ,R19
14460	31139	  001E18   ELPM      R18,Z
14461	31142	  001E1A   ST      X+,R18
14462	31144	  001E1C   SUBI    R30,0xFF
14463	31145	  001E1E   SBCI    R31,0xFF
14464	31146	  001E20   SBCI    R19,0xFF
14465	31147	  001E22   SUBI    R16,0x01
14466	31148	  001E24   SBCI    R17,0x00
14467	31149	  001E26   BRNE    __flashcpy
		__flashcpy:
14468	31151	  001E16   OUT     RAMPZ,R19
14469	31152	  001E18   ELPM      R18,Z
14470	31155	  001E1A   ST      X+,R18
14471	31157	  001E1C   SUBI    R30,0xFF
14472	31158	  001E1E   SBCI    R31,0xFF
14473	31159	  001E20   SBCI    R19,0xFF
14474	31160	  001E22   SUBI    R16,0x01
14475	31161	  001E24   SBCI    R17,0x00
14476	31162	  001E26   BRNE    __flashcpy
		__flashcpy:
14477	31164	  001E16   OUT     RAMPZ,R19
14478	31165	  001E18   ELPM      R18,Z
14479	31168	  001E1A   ST      X+,R18
14480	31170	  001E1C   SUBI    R30,0xFF
14481	31171	  001E1E   SBCI    R31,0xFF
14482	31172	  001E20   SBCI    R19,0xFF
14483	31173	  001E22   SUBI    R16,0x01
14484	31174	  001E24   SBCI    R17,0x00
14485	31175	  001E26   BRNE    __flashcpy
		__flashcpy:
14486	31177	  001E16   OUT     RAMPZ,R19
14487	31178	  001E18   ELPM      R18,Z
14488	31181	  001E1A   ST      X+,R18
14489	31183	  001E1C   SUBI    R30,0xFF
14490	31184	  001E1E   SBCI    R31,0xFF
14491	31185	  001E20   SBCI    R19,0xFF
14492	31186	  001E22   SUBI    R16,0x01
14493	31187	  001E24   SBCI    R17,0x00
14494	31188	  001E26   BRNE    __flashcpy
		__flashcpy:
14495	31190	  001E16   OUT     RAMPZ,R19
14496	31191	  001E18   ELPM      R18,Z
14497	31194	  001E1A   ST      X+,R18
14498	31196	  001E1C   SUBI    R30,0xFF
14499	31197	  001E1E   SBCI    R31,0xFF
14500	31198	  001E20   SBCI    R19,0xFF
14501	31199	  001E22   SUBI    R16,0x01
14502	31200	  001E24   SBCI    R17,0x00
14503	31201	  001E26   BRNE    __flashcpy
		__flashcpy:
14504	31203	  001E16   OUT     RAMPZ,R19
14505	31204	  001E18   ELPM      R18,Z
14506	31207	  001E1A   ST      X+,R18
14507	31209	  001E1C   SUBI    R30,0xFF
14508	31210	  001E1E   SBCI    R31,0xFF
14509	31211	  001E20   SBCI    R19,0xFF
14510	31212	  001E22   SUBI    R16,0x01
14511	31213	  001E24   SBCI    R17,0x00
14512	31214	  001E26   BRNE    __flashcpy
		__flashcpy:
14513	31216	  001E16   OUT     RAMPZ,R19
14514	31217	  001E18   ELPM      R18,Z
14515	31220	  001E1A   ST      X+,R18
14516	31222	  001E1C   SUBI    R30,0xFF
14517	31223	  001E1E   SBCI    R31,0xFF
14518	31224	  001E20   SBCI    R19,0xFF
14519	31225	  001E22   SUBI    R16,0x01
14520	31226	  001E24   SBCI    R17,0x00
14521	31227	  001E26   BRNE    __flashcpy
		__flashcpy:
14522	31229	  001E16   OUT     RAMPZ,R19
14523	31230	  001E18   ELPM      R18,Z
14524	31233	  001E1A   ST      X+,R18
14525	31235	  001E1C   SUBI    R30,0xFF
14526	31236	  001E1E   SBCI    R31,0xFF
14527	31237	  001E20   SBCI    R19,0xFF
14528	31238	  001E22   SUBI    R16,0x01
14529	31239	  001E24   SBCI    R17,0x00
14530	31240	  001E26   BRNE    __flashcpy
		__flashcpy:
14531	31242	  001E16   OUT     RAMPZ,R19
14532	31243	  001E18   ELPM      R18,Z
14533	31246	  001E1A   ST      X+,R18
14534	31248	  001E1C   SUBI    R30,0xFF
14535	31249	  001E1E   SBCI    R31,0xFF
14536	31250	  001E20   SBCI    R19,0xFF
14537	31251	  001E22   SUBI    R16,0x01
14538	31252	  001E24   SBCI    R17,0x00
14539	31253	  001E26   BRNE    __flashcpy
		__flashcpy:
14540	31255	  001E16   OUT     RAMPZ,R19
14541	31256	  001E18   ELPM      R18,Z
14542	31259	  001E1A   ST      X+,R18
14543	31261	  001E1C   SUBI    R30,0xFF
14544	31262	  001E1E   SBCI    R31,0xFF
14545	31263	  001E20   SBCI    R19,0xFF
14546	31264	  001E22   SUBI    R16,0x01
14547	31265	  001E24   SBCI    R17,0x00
14548	31266	  001E26   BRNE    __flashcpy
		__flashcpy:
14549	31268	  001E16   OUT     RAMPZ,R19
14550	31269	  001E18   ELPM      R18,Z
14551	31272	  001E1A   ST      X+,R18
14552	31274	  001E1C   SUBI    R30,0xFF
14553	31275	  001E1E   SBCI    R31,0xFF
14554	31276	  001E20   SBCI    R19,0xFF
14555	31277	  001E22   SUBI    R16,0x01
14556	31278	  001E24   SBCI    R17,0x00
14557	31279	  001E26   BRNE    __flashcpy
		__flashcpy:
14558	31281	  001E16   OUT     RAMPZ,R19
14559	31282	  001E18   ELPM      R18,Z
14560	31285	  001E1A   ST      X+,R18
14561	31287	  001E1C   SUBI    R30,0xFF
14562	31288	  001E1E   SBCI    R31,0xFF
14563	31289	  001E20   SBCI    R19,0xFF
14564	31290	  001E22   SUBI    R16,0x01
14565	31291	  001E24   SBCI    R17,0x00
14566	31292	  001E26   BRNE    __flashcpy
		__flashcpy:
14567	31294	  001E16   OUT     RAMPZ,R19
14568	31295	  001E18   ELPM      R18,Z
14569	31298	  001E1A   ST      X+,R18
14570	31300	  001E1C   SUBI    R30,0xFF
14571	31301	  001E1E   SBCI    R31,0xFF
14572	31302	  001E20   SBCI    R19,0xFF
14573	31303	  001E22   SUBI    R16,0x01
14574	31304	  001E24   SBCI    R17,0x00
14575	31305	  001E26   BRNE    __flashcpy
		__flashcpy:
14576	31307	  001E16   OUT     RAMPZ,R19
14577	31308	  001E18   ELPM      R18,Z
14578	31311	  001E1A   ST      X+,R18
14579	31313	  001E1C   SUBI    R30,0xFF
14580	31314	  001E1E   SBCI    R31,0xFF
14581	31315	  001E20   SBCI    R19,0xFF
14582	31316	  001E22   SUBI    R16,0x01
14583	31317	  001E24   SBCI    R17,0x00
14584	31318	  001E26   BRNE    __flashcpy
		__flashcpy:
14585	31320	  001E16   OUT     RAMPZ,R19
14586	31321	  001E18   ELPM      R18,Z
14587	31324	  001E1A   ST      X+,R18
14588	31326	  001E1C   SUBI    R30,0xFF
14589	31327	  001E1E   SBCI    R31,0xFF
14590	31328	  001E20   SBCI    R19,0xFF
14591	31329	  001E22   SUBI    R16,0x01
14592	31330	  001E24   SBCI    R17,0x00
14593	31331	  001E26   BRNE    __flashcpy
		__flashcpy:
14594	31333	  001E16   OUT     RAMPZ,R19
14595	31334	  001E18   ELPM      R18,Z
14596	31337	  001E1A   ST      X+,R18
14597	31339	  001E1C   SUBI    R30,0xFF
14598	31340	  001E1E   SBCI    R31,0xFF
14599	31341	  001E20   SBCI    R19,0xFF
14600	31342	  001E22   SUBI    R16,0x01
14601	31343	  001E24   SBCI    R17,0x00
14602	31344	  001E26   BRNE    __flashcpy
		__flashcpy:
14603	31346	  001E16   OUT     RAMPZ,R19
14604	31347	  001E18   ELPM      R18,Z
14605	31350	  001E1A   ST      X+,R18
14606	31352	  001E1C   SUBI    R30,0xFF
14607	31353	  001E1E   SBCI    R31,0xFF
14608	31354	  001E20   SBCI    R19,0xFF
14609	31355	  001E22   SUBI    R16,0x01
14610	31356	  001E24   SBCI    R17,0x00
14611	31357	  001E26   BRNE    __flashcpy
		__flashcpy:
14612	31359	  001E16   OUT     RAMPZ,R19
14613	31360	  001E18   ELPM      R18,Z
14614	31363	  001E1A   ST      X+,R18
14615	31365	  001E1C   SUBI    R30,0xFF
14616	31366	  001E1E   SBCI    R31,0xFF
14617	31367	  001E20   SBCI    R19,0xFF
14618	31368	  001E22   SUBI    R16,0x01
14619	31369	  001E24   SBCI    R17,0x00
14620	31370	  001E26   BRNE    __flashcpy
		__flashcpy:
14621	31372	  001E16   OUT     RAMPZ,R19
14622	31373	  001E18   ELPM      R18,Z
14623	31376	  001E1A   ST      X+,R18
14624	31378	  001E1C   SUBI    R30,0xFF
14625	31379	  001E1E   SBCI    R31,0xFF
14626	31380	  001E20   SBCI    R19,0xFF
14627	31381	  001E22   SUBI    R16,0x01
14628	31382	  001E24   SBCI    R17,0x00
14629	31383	  001E26   BRNE    __flashcpy
		__flashcpy:
14630	31385	  001E16   OUT     RAMPZ,R19
14631	31386	  001E18   ELPM      R18,Z
14632	31389	  001E1A   ST      X+,R18
14633	31391	  001E1C   SUBI    R30,0xFF
14634	31392	  001E1E   SBCI    R31,0xFF
14635	31393	  001E20   SBCI    R19,0xFF
14636	31394	  001E22   SUBI    R16,0x01
14637	31395	  001E24   SBCI    R17,0x00
14638	31396	  001E26   BRNE    __flashcpy
		__flashcpy:
14639	31398	  001E16   OUT     RAMPZ,R19
14640	31399	  001E18   ELPM      R18,Z
14641	31402	  001E1A   ST      X+,R18
14642	31404	  001E1C   SUBI    R30,0xFF
14643	31405	  001E1E   SBCI    R31,0xFF
14644	31406	  001E20   SBCI    R19,0xFF
14645	31407	  001E22   SUBI    R16,0x01
14646	31408	  001E24   SBCI    R17,0x00
14647	31409	  001E26   BRNE    __flashcpy
		__flashcpy:
14648	31411	  001E16   OUT     RAMPZ,R19
14649	31412	  001E18   ELPM      R18,Z
14650	31415	  001E1A   ST      X+,R18
14651	31417	  001E1C   SUBI    R30,0xFF
14652	31418	  001E1E   SBCI    R31,0xFF
14653	31419	  001E20   SBCI    R19,0xFF
14654	31420	  001E22   SUBI    R16,0x01
14655	31421	  001E24   SBCI    R17,0x00
14656	31422	  001E26   BRNE    __flashcpy
		__flashcpy:
14657	31424	  001E16   OUT     RAMPZ,R19
14658	31425	  001E18   ELPM      R18,Z
14659	31428	  001E1A   ST      X+,R18
14660	31430	  001E1C   SUBI    R30,0xFF
14661	31431	  001E1E   SBCI    R31,0xFF
14662	31432	  001E20   SBCI    R19,0xFF
14663	31433	  001E22   SUBI    R16,0x01
14664	31434	  001E24   SBCI    R17,0x00
14665	31435	  001E26   BRNE    __flashcpy
		__flashcpy:
14666	31437	  001E16   OUT     RAMPZ,R19
14667	31438	  001E18   ELPM      R18,Z
14668	31441	  001E1A   ST      X+,R18
14669	31443	  001E1C   SUBI    R30,0xFF
14670	31444	  001E1E   SBCI    R31,0xFF
14671	31445	  001E20   SBCI    R19,0xFF
14672	31446	  001E22   SUBI    R16,0x01
14673	31447	  001E24   SBCI    R17,0x00
14674	31448	  001E26   BRNE    __flashcpy
		__flashcpy:
14675	31450	  001E16   OUT     RAMPZ,R19
14676	31451	  001E18   ELPM      R18,Z
14677	31454	  001E1A   ST      X+,R18
14678	31456	  001E1C   SUBI    R30,0xFF
14679	31457	  001E1E   SBCI    R31,0xFF
14680	31458	  001E20   SBCI    R19,0xFF
14681	31459	  001E22   SUBI    R16,0x01
14682	31460	  001E24   SBCI    R17,0x00
14683	31461	  001E26   BRNE    __flashcpy
		__flashcpy:
14684	31463	  001E16   OUT     RAMPZ,R19
14685	31464	  001E18   ELPM      R18,Z
14686	31467	  001E1A   ST      X+,R18
14687	31469	  001E1C   SUBI    R30,0xFF
14688	31470	  001E1E   SBCI    R31,0xFF
14689	31471	  001E20   SBCI    R19,0xFF
14690	31472	  001E22   SUBI    R16,0x01
14691	31473	  001E24   SBCI    R17,0x00
14692	31474	  001E26   BRNE    __flashcpy
		__flashcpy:
14693	31476	  001E16   OUT     RAMPZ,R19
14694	31477	  001E18   ELPM      R18,Z
14695	31480	  001E1A   ST      X+,R18
14696	31482	  001E1C   SUBI    R30,0xFF
14697	31483	  001E1E   SBCI    R31,0xFF
14698	31484	  001E20   SBCI    R19,0xFF
14699	31485	  001E22   SUBI    R16,0x01
14700	31486	  001E24   SBCI    R17,0x00
14701	31487	  001E26   BRNE    __flashcpy
		__flashcpy:
14702	31489	  001E16   OUT     RAMPZ,R19
14703	31490	  001E18   ELPM      R18,Z
14704	31493	  001E1A   ST      X+,R18
14705	31495	  001E1C   SUBI    R30,0xFF
14706	31496	  001E1E   SBCI    R31,0xFF
14707	31497	  001E20   SBCI    R19,0xFF
14708	31498	  001E22   SUBI    R16,0x01
14709	31499	  001E24   SBCI    R17,0x00
14710	31500	  001E26   BRNE    __flashcpy
		__flashcpy:
14711	31502	  001E16   OUT     RAMPZ,R19
14712	31503	  001E18   ELPM      R18,Z
14713	31506	  001E1A   ST      X+,R18
14714	31508	  001E1C   SUBI    R30,0xFF
14715	31509	  001E1E   SBCI    R31,0xFF
14716	31510	  001E20   SBCI    R19,0xFF
14717	31511	  001E22   SUBI    R16,0x01
14718	31512	  001E24   SBCI    R17,0x00
14719	31513	  001E26   BRNE    __flashcpy
		__flashcpy:
14720	31515	  001E16   OUT     RAMPZ,R19
14721	31516	  001E18   ELPM      R18,Z
14722	31519	  001E1A   ST      X+,R18
14723	31521	  001E1C   SUBI    R30,0xFF
14724	31522	  001E1E   SBCI    R31,0xFF
14725	31523	  001E20   SBCI    R19,0xFF
14726	31524	  001E22   SUBI    R16,0x01
14727	31525	  001E24   SBCI    R17,0x00
14728	31526	  001E26   BRNE    __flashcpy
		__flashcpy:
14729	31528	  001E16   OUT     RAMPZ,R19
14730	31529	  001E18   ELPM      R18,Z
14731	31532	  001E1A   ST      X+,R18
14732	31534	  001E1C   SUBI    R30,0xFF
14733	31535	  001E1E   SBCI    R31,0xFF
14734	31536	  001E20   SBCI    R19,0xFF
14735	31537	  001E22   SUBI    R16,0x01
14736	31538	  001E24   SBCI    R17,0x00
14737	31539	  001E26   BRNE    __flashcpy
		__flashcpy:
14738	31541	  001E16   OUT     RAMPZ,R19
14739	31542	  001E18   ELPM      R18,Z
14740	31545	  001E1A   ST      X+,R18
14741	31547	  001E1C   SUBI    R30,0xFF
14742	31548	  001E1E   SBCI    R31,0xFF
14743	31549	  001E20   SBCI    R19,0xFF
14744	31550	  001E22   SUBI    R16,0x01
14745	31551	  001E24   SBCI    R17,0x00
14746	31552	  001E26   BRNE    __flashcpy
		__flashcpy:
14747	31554	  001E16   OUT     RAMPZ,R19
14748	31555	  001E18   ELPM      R18,Z
14749	31558	  001E1A   ST      X+,R18
14750	31560	  001E1C   SUBI    R30,0xFF
14751	31561	  001E1E   SBCI    R31,0xFF
14752	31562	  001E20   SBCI    R19,0xFF
14753	31563	  001E22   SUBI    R16,0x01
14754	31564	  001E24   SBCI    R17,0x00
14755	31565	  001E26   BRNE    __flashcpy
		__flashcpy:
14756	31567	  001E16   OUT     RAMPZ,R19
14757	31568	  001E18   ELPM      R18,Z
14758	31571	  001E1A   ST      X+,R18
14759	31573	  001E1C   SUBI    R30,0xFF
14760	31574	  001E1E   SBCI    R31,0xFF
14761	31575	  001E20   SBCI    R19,0xFF
14762	31576	  001E22   SUBI    R16,0x01
14763	31577	  001E24   SBCI    R17,0x00
14764	31578	  001E26   BRNE    __flashcpy
		__flashcpy:
14765	31580	  001E16   OUT     RAMPZ,R19
14766	31581	  001E18   ELPM      R18,Z
14767	31584	  001E1A   ST      X+,R18
14768	31586	  001E1C   SUBI    R30,0xFF
14769	31587	  001E1E   SBCI    R31,0xFF
14770	31588	  001E20   SBCI    R19,0xFF
14771	31589	  001E22   SUBI    R16,0x01
14772	31590	  001E24   SBCI    R17,0x00
14773	31591	  001E26   BRNE    __flashcpy
		__flashcpy:
14774	31593	  001E16   OUT     RAMPZ,R19
14775	31594	  001E18   ELPM      R18,Z
14776	31597	  001E1A   ST      X+,R18
14777	31599	  001E1C   SUBI    R30,0xFF
14778	31600	  001E1E   SBCI    R31,0xFF
14779	31601	  001E20   SBCI    R19,0xFF
14780	31602	  001E22   SUBI    R16,0x01
14781	31603	  001E24   SBCI    R17,0x00
14782	31604	  001E26   BRNE    __flashcpy
		__flashcpy:
14783	31606	  001E16   OUT     RAMPZ,R19
14784	31607	  001E18   ELPM      R18,Z
14785	31610	  001E1A   ST      X+,R18
14786	31612	  001E1C   SUBI    R30,0xFF
14787	31613	  001E1E   SBCI    R31,0xFF
14788	31614	  001E20   SBCI    R19,0xFF
14789	31615	  001E22   SUBI    R16,0x01
14790	31616	  001E24   SBCI    R17,0x00
14791	31617	  001E26   BRNE    __flashcpy
		__flashcpy:
14792	31619	  001E16   OUT     RAMPZ,R19
14793	31620	  001E18   ELPM      R18,Z
14794	31623	  001E1A   ST      X+,R18
14795	31625	  001E1C   SUBI    R30,0xFF
14796	31626	  001E1E   SBCI    R31,0xFF
14797	31627	  001E20   SBCI    R19,0xFF
14798	31628	  001E22   SUBI    R16,0x01
14799	31629	  001E24   SBCI    R17,0x00
14800	31630	  001E26   BRNE    __flashcpy
		__flashcpy:
14801	31632	  001E16   OUT     RAMPZ,R19
14802	31633	  001E18   ELPM      R18,Z
14803	31636	  001E1A   ST      X+,R18
14804	31638	  001E1C   SUBI    R30,0xFF
14805	31639	  001E1E   SBCI    R31,0xFF
14806	31640	  001E20   SBCI    R19,0xFF
14807	31641	  001E22   SUBI    R16,0x01
14808	31642	  001E24   SBCI    R17,0x00
14809	31643	  001E26   BRNE    __flashcpy
		__flashcpy:
14810	31645	  001E16   OUT     RAMPZ,R19
14811	31646	  001E18   ELPM      R18,Z
14812	31649	  001E1A   ST      X+,R18
14813	31651	  001E1C   SUBI    R30,0xFF
14814	31652	  001E1E   SBCI    R31,0xFF
14815	31653	  001E20   SBCI    R19,0xFF
14816	31654	  001E22   SUBI    R16,0x01
14817	31655	  001E24   SBCI    R17,0x00
14818	31656	  001E26   BRNE    __flashcpy
		__flashcpy:
14819	31658	  001E16   OUT     RAMPZ,R19
14820	31659	  001E18   ELPM      R18,Z
14821	31662	  001E1A   ST      X+,R18
14822	31664	  001E1C   SUBI    R30,0xFF
14823	31665	  001E1E   SBCI    R31,0xFF
14824	31666	  001E20   SBCI    R19,0xFF
14825	31667	  001E22   SUBI    R16,0x01
14826	31668	  001E24   SBCI    R17,0x00
14827	31669	  001E26   BRNE    __flashcpy
		__flashcpy:
14828	31671	  001E16   OUT     RAMPZ,R19
14829	31672	  001E18   ELPM      R18,Z
14830	31675	  001E1A   ST      X+,R18
14831	31677	  001E1C   SUBI    R30,0xFF
14832	31678	  001E1E   SBCI    R31,0xFF
14833	31679	  001E20   SBCI    R19,0xFF
14834	31680	  001E22   SUBI    R16,0x01
14835	31681	  001E24   SBCI    R17,0x00
14836	31682	  001E26   BRNE    __flashcpy
		__flashcpy:
14837	31684	  001E16   OUT     RAMPZ,R19
14838	31685	  001E18   ELPM      R18,Z
14839	31688	  001E1A   ST      X+,R18
14840	31690	  001E1C   SUBI    R30,0xFF
14841	31691	  001E1E   SBCI    R31,0xFF
14842	31692	  001E20   SBCI    R19,0xFF
14843	31693	  001E22   SUBI    R16,0x01
14844	31694	  001E24   SBCI    R17,0x00
14845	31695	  001E26   BRNE    __flashcpy
		__flashcpy:
14846	31697	  001E16   OUT     RAMPZ,R19
14847	31698	  001E18   ELPM      R18,Z
14848	31701	  001E1A   ST      X+,R18
14849	31703	  001E1C   SUBI    R30,0xFF
14850	31704	  001E1E   SBCI    R31,0xFF
14851	31705	  001E20   SBCI    R19,0xFF
14852	31706	  001E22   SUBI    R16,0x01
14853	31707	  001E24   SBCI    R17,0x00
14854	31708	  001E26   BRNE    __flashcpy
		__flashcpy:
14855	31710	  001E16   OUT     RAMPZ,R19
14856	31711	  001E18   ELPM      R18,Z
14857	31714	  001E1A   ST      X+,R18
14858	31716	  001E1C   SUBI    R30,0xFF
14859	31717	  001E1E   SBCI    R31,0xFF
14860	31718	  001E20   SBCI    R19,0xFF
14861	31719	  001E22   SUBI    R16,0x01
14862	31720	  001E24   SBCI    R17,0x00
14863	31721	  001E26   BRNE    __flashcpy
		__flashcpy:
14864	31723	  001E16   OUT     RAMPZ,R19
14865	31724	  001E18   ELPM      R18,Z
14866	31727	  001E1A   ST      X+,R18
14867	31729	  001E1C   SUBI    R30,0xFF
14868	31730	  001E1E   SBCI    R31,0xFF
14869	31731	  001E20   SBCI    R19,0xFF
14870	31732	  001E22   SUBI    R16,0x01
14871	31733	  001E24   SBCI    R17,0x00
14872	31734	  001E26   BRNE    __flashcpy
		__flashcpy:
14873	31736	  001E16   OUT     RAMPZ,R19
14874	31737	  001E18   ELPM      R18,Z
14875	31740	  001E1A   ST      X+,R18
14876	31742	  001E1C   SUBI    R30,0xFF
14877	31743	  001E1E   SBCI    R31,0xFF
14878	31744	  001E20   SBCI    R19,0xFF
14879	31745	  001E22   SUBI    R16,0x01
14880	31746	  001E24   SBCI    R17,0x00
14881	31747	  001E26   BRNE    __flashcpy
		__flashcpy:
14882	31749	  001E16   OUT     RAMPZ,R19
14883	31750	  001E18   ELPM      R18,Z
14884	31753	  001E1A   ST      X+,R18
14885	31755	  001E1C   SUBI    R30,0xFF
14886	31756	  001E1E   SBCI    R31,0xFF
14887	31757	  001E20   SBCI    R19,0xFF
14888	31758	  001E22   SUBI    R16,0x01
14889	31759	  001E24   SBCI    R17,0x00
14890	31760	  001E26   BRNE    __flashcpy
		__flashcpy:
14891	31762	  001E16   OUT     RAMPZ,R19
14892	31763	  001E18   ELPM      R18,Z
14893	31766	  001E1A   ST      X+,R18
14894	31768	  001E1C   SUBI    R30,0xFF
14895	31769	  001E1E   SBCI    R31,0xFF
14896	31770	  001E20   SBCI    R19,0xFF
14897	31771	  001E22   SUBI    R16,0x01
14898	31772	  001E24   SBCI    R17,0x00
14899	31773	  001E26   BRNE    __flashcpy
		__flashcpy:
14900	31775	  001E16   OUT     RAMPZ,R19
14901	31776	  001E18   ELPM      R18,Z
14902	31779	  001E1A   ST      X+,R18
14903	31781	  001E1C   SUBI    R30,0xFF
14904	31782	  001E1E   SBCI    R31,0xFF
14905	31783	  001E20   SBCI    R19,0xFF
14906	31784	  001E22   SUBI    R16,0x01
14907	31785	  001E24   SBCI    R17,0x00
14908	31786	  001E26   BRNE    __flashcpy
		__flashcpy:
14909	31788	  001E16   OUT     RAMPZ,R19
14910	31789	  001E18   ELPM      R18,Z
14911	31792	  001E1A   ST      X+,R18
14912	31794	  001E1C   SUBI    R30,0xFF
14913	31795	  001E1E   SBCI    R31,0xFF
14914	31796	  001E20   SBCI    R19,0xFF
14915	31797	  001E22   SUBI    R16,0x01
14916	31798	  001E24   SBCI    R17,0x00
14917	31799	  001E26   BRNE    __flashcpy
		__flashcpy:
14918	31801	  001E16   OUT     RAMPZ,R19
14919	31802	  001E18   ELPM      R18,Z
14920	31805	  001E1A   ST      X+,R18
14921	31807	  001E1C   SUBI    R30,0xFF
14922	31808	  001E1E   SBCI    R31,0xFF
14923	31809	  001E20   SBCI    R19,0xFF
14924	31810	  001E22   SUBI    R16,0x01
14925	31811	  001E24   SBCI    R17,0x00
14926	31812	  001E26   BRNE    __flashcpy
		__flashcpy:
14927	31814	  001E16   OUT     RAMPZ,R19
14928	31815	  001E18   ELPM      R18,Z
14929	31818	  001E1A   ST      X+,R18
14930	31820	  001E1C   SUBI    R30,0xFF
14931	31821	  001E1E   SBCI    R31,0xFF
14932	31822	  001E20   SBCI    R19,0xFF
14933	31823	  001E22   SUBI    R16,0x01
14934	31824	  001E24   SBCI    R17,0x00
14935	31825	  001E26   BRNE    __flashcpy
		__flashcpy:
14936	31827	  001E16   OUT     RAMPZ,R19
14937	31828	  001E18   ELPM      R18,Z
14938	31831	  001E1A   ST      X+,R18
14939	31833	  001E1C   SUBI    R30,0xFF
14940	31834	  001E1E   SBCI    R31,0xFF
14941	31835	  001E20   SBCI    R19,0xFF
14942	31836	  001E22   SUBI    R16,0x01
14943	31837	  001E24   SBCI    R17,0x00
14944	31838	  001E26   BRNE    __flashcpy
		__flashcpy:
14945	31840	  001E16   OUT     RAMPZ,R19
14946	31841	  001E18   ELPM      R18,Z
14947	31844	  001E1A   ST      X+,R18
14948	31846	  001E1C   SUBI    R30,0xFF
14949	31847	  001E1E   SBCI    R31,0xFF
14950	31848	  001E20   SBCI    R19,0xFF
14951	31849	  001E22   SUBI    R16,0x01
14952	31850	  001E24   SBCI    R17,0x00
14953	31851	  001E26   BRNE    __flashcpy
		__flashcpy:
14954	31853	  001E16   OUT     RAMPZ,R19
14955	31854	  001E18   ELPM      R18,Z
14956	31857	  001E1A   ST      X+,R18
14957	31859	  001E1C   SUBI    R30,0xFF
14958	31860	  001E1E   SBCI    R31,0xFF
14959	31861	  001E20   SBCI    R19,0xFF
14960	31862	  001E22   SUBI    R16,0x01
14961	31863	  001E24   SBCI    R17,0x00
14962	31864	  001E26   BRNE    __flashcpy
		__flashcpy:
14963	31866	  001E16   OUT     RAMPZ,R19
14964	31867	  001E18   ELPM      R18,Z
14965	31870	  001E1A   ST      X+,R18
14966	31872	  001E1C   SUBI    R30,0xFF
14967	31873	  001E1E   SBCI    R31,0xFF
14968	31874	  001E20   SBCI    R19,0xFF
14969	31875	  001E22   SUBI    R16,0x01
14970	31876	  001E24   SBCI    R17,0x00
14971	31877	  001E26   BRNE    __flashcpy
		__flashcpy:
14972	31879	  001E16   OUT     RAMPZ,R19
14973	31880	  001E18   ELPM      R18,Z
14974	31883	  001E1A   ST      X+,R18
14975	31885	  001E1C   SUBI    R30,0xFF
14976	31886	  001E1E   SBCI    R31,0xFF
14977	31887	  001E20   SBCI    R19,0xFF
14978	31888	  001E22   SUBI    R16,0x01
14979	31889	  001E24   SBCI    R17,0x00
14980	31890	  001E26   BRNE    __flashcpy
		__flashcpy:
14981	31892	  001E16   OUT     RAMPZ,R19
14982	31893	  001E18   ELPM      R18,Z
14983	31896	  001E1A   ST      X+,R18
14984	31898	  001E1C   SUBI    R30,0xFF
14985	31899	  001E1E   SBCI    R31,0xFF
14986	31900	  001E20   SBCI    R19,0xFF
14987	31901	  001E22   SUBI    R16,0x01
14988	31902	  001E24   SBCI    R17,0x00
14989	31903	  001E26   BRNE    __flashcpy
		__flashcpy:
14990	31905	  001E16   OUT     RAMPZ,R19
14991	31906	  001E18   ELPM      R18,Z
14992	31909	  001E1A   ST      X+,R18
14993	31911	  001E1C   SUBI    R30,0xFF
14994	31912	  001E1E   SBCI    R31,0xFF
14995	31913	  001E20   SBCI    R19,0xFF
14996	31914	  001E22   SUBI    R16,0x01
14997	31915	  001E24   SBCI    R17,0x00
14998	31916	  001E26   BRNE    __flashcpy
		__flashcpy:
14999	31918	  001E16   OUT     RAMPZ,R19
15000	31919	  001E18   ELPM      R18,Z
15001	31922	  001E1A   ST      X+,R18
15002	31924	  001E1C   SUBI    R30,0xFF
15003	31925	  001E1E   SBCI    R31,0xFF
15004	31926	  001E20   SBCI    R19,0xFF
15005	31927	  001E22   SUBI    R16,0x01
15006	31928	  001E24   SBCI    R17,0x00
15007	31929	  001E26   BRNE    __flashcpy
		__flashcpy:
15008	31931	  001E16   OUT     RAMPZ,R19
15009	31932	  001E18   ELPM      R18,Z
15010	31935	  001E1A   ST      X+,R18
15011	31937	  001E1C   SUBI    R30,0xFF
15012	31938	  001E1E   SBCI    R31,0xFF
15013	31939	  001E20   SBCI    R19,0xFF
15014	31940	  001E22   SUBI    R16,0x01
15015	31941	  001E24   SBCI    R17,0x00
15016	31942	  001E26   BRNE    __flashcpy
		__flashcpy:
15017	31944	  001E16   OUT     RAMPZ,R19
15018	31945	  001E18   ELPM      R18,Z
15019	31948	  001E1A   ST      X+,R18
15020	31950	  001E1C   SUBI    R30,0xFF
15021	31951	  001E1E   SBCI    R31,0xFF
15022	31952	  001E20   SBCI    R19,0xFF
15023	31953	  001E22   SUBI    R16,0x01
15024	31954	  001E24   SBCI    R17,0x00
15025	31955	  001E26   BRNE    __flashcpy
		__flashcpy:
15026	31957	  001E16   OUT     RAMPZ,R19
15027	31958	  001E18   ELPM      R18,Z
15028	31961	  001E1A   ST      X+,R18
15029	31963	  001E1C   SUBI    R30,0xFF
15030	31964	  001E1E   SBCI    R31,0xFF
15031	31965	  001E20   SBCI    R19,0xFF
15032	31966	  001E22   SUBI    R16,0x01
15033	31967	  001E24   SBCI    R17,0x00
15034	31968	  001E26   BRNE    __flashcpy
		__flashcpy:
15035	31970	  001E16   OUT     RAMPZ,R19
15036	31971	  001E18   ELPM      R18,Z
15037	31974	  001E1A   ST      X+,R18
15038	31976	  001E1C   SUBI    R30,0xFF
15039	31977	  001E1E   SBCI    R31,0xFF
15040	31978	  001E20   SBCI    R19,0xFF
15041	31979	  001E22   SUBI    R16,0x01
15042	31980	  001E24   SBCI    R17,0x00
15043	31981	  001E26   BRNE    __flashcpy
		__flashcpy:
15044	31983	  001E16   OUT     RAMPZ,R19
15045	31984	  001E18   ELPM      R18,Z
15046	31987	  001E1A   ST      X+,R18
15047	31989	  001E1C   SUBI    R30,0xFF
15048	31990	  001E1E   SBCI    R31,0xFF
15049	31991	  001E20   SBCI    R19,0xFF
15050	31992	  001E22   SUBI    R16,0x01
15051	31993	  001E24   SBCI    R17,0x00
15052	31994	  001E26   BRNE    __flashcpy
		__flashcpy:
15053	31996	  001E16   OUT     RAMPZ,R19
15054	31997	  001E18   ELPM      R18,Z
15055	32000	  001E1A   ST      X+,R18
15056	32002	  001E1C   SUBI    R30,0xFF
15057	32003	  001E1E   SBCI    R31,0xFF
15058	32004	  001E20   SBCI    R19,0xFF
15059	32005	  001E22   SUBI    R16,0x01
15060	32006	  001E24   SBCI    R17,0x00
15061	32007	  001E26   BRNE    __flashcpy
		__flashcpy:
15062	32009	  001E16   OUT     RAMPZ,R19
15063	32010	  001E18   ELPM      R18,Z
15064	32013	  001E1A   ST      X+,R18
15065	32015	  001E1C   SUBI    R30,0xFF
15066	32016	  001E1E   SBCI    R31,0xFF
15067	32017	  001E20   SBCI    R19,0xFF
15068	32018	  001E22   SUBI    R16,0x01
15069	32019	  001E24   SBCI    R17,0x00
15070	32020	  001E26   BRNE    __flashcpy
		__flashcpy:
15071	32022	  001E16   OUT     RAMPZ,R19
15072	32023	  001E18   ELPM      R18,Z
15073	32026	  001E1A   ST      X+,R18
15074	32028	  001E1C   SUBI    R30,0xFF
15075	32029	  001E1E   SBCI    R31,0xFF
15076	32030	  001E20   SBCI    R19,0xFF
15077	32031	  001E22   SUBI    R16,0x01
15078	32032	  001E24   SBCI    R17,0x00
15079	32033	  001E26   BRNE    __flashcpy
		__flashcpy:
15080	32035	  001E16   OUT     RAMPZ,R19
15081	32036	  001E18   ELPM      R18,Z
15082	32039	  001E1A   ST      X+,R18
15083	32041	  001E1C   SUBI    R30,0xFF
15084	32042	  001E1E   SBCI    R31,0xFF
15085	32043	  001E20   SBCI    R19,0xFF
15086	32044	  001E22   SUBI    R16,0x01
15087	32045	  001E24   SBCI    R17,0x00
15088	32046	  001E26   BRNE    __flashcpy
		__flashcpy:
15089	32048	  001E16   OUT     RAMPZ,R19
15090	32049	  001E18   ELPM      R18,Z
15091	32052	  001E1A   ST      X+,R18
15092	32054	  001E1C   SUBI    R30,0xFF
15093	32055	  001E1E   SBCI    R31,0xFF
15094	32056	  001E20   SBCI    R19,0xFF
15095	32057	  001E22   SUBI    R16,0x01
15096	32058	  001E24   SBCI    R17,0x00
15097	32059	  001E26   BRNE    __flashcpy
		__flashcpy:
15098	32061	  001E16   OUT     RAMPZ,R19
15099	32062	  001E18   ELPM      R18,Z
15100	32065	  001E1A   ST      X+,R18
15101	32067	  001E1C   SUBI    R30,0xFF
15102	32068	  001E1E   SBCI    R31,0xFF
15103	32069	  001E20   SBCI    R19,0xFF
15104	32070	  001E22   SUBI    R16,0x01
15105	32071	  001E24   SBCI    R17,0x00
15106	32072	  001E26   BRNE    __flashcpy
		__flashcpy:
15107	32074	  001E16   OUT     RAMPZ,R19
15108	32075	  001E18   ELPM      R18,Z
15109	32078	  001E1A   ST      X+,R18
15110	32080	  001E1C   SUBI    R30,0xFF
15111	32081	  001E1E   SBCI    R31,0xFF
15112	32082	  001E20   SBCI    R19,0xFF
15113	32083	  001E22   SUBI    R16,0x01
15114	32084	  001E24   SBCI    R17,0x00
15115	32085	  001E26   BRNE    __flashcpy
		__flashcpy:
15116	32087	  001E16   OUT     RAMPZ,R19
15117	32088	  001E18   ELPM      R18,Z
15118	32091	  001E1A   ST      X+,R18
15119	32093	  001E1C   SUBI    R30,0xFF
15120	32094	  001E1E   SBCI    R31,0xFF
15121	32095	  001E20   SBCI    R19,0xFF
15122	32096	  001E22   SUBI    R16,0x01
15123	32097	  001E24   SBCI    R17,0x00
15124	32098	  001E26   BRNE    __flashcpy
		__flashcpy:
15125	32100	  001E16   OUT     RAMPZ,R19
15126	32101	  001E18   ELPM      R18,Z
15127	32104	  001E1A   ST      X+,R18
15128	32106	  001E1C   SUBI    R30,0xFF
15129	32107	  001E1E   SBCI    R31,0xFF
15130	32108	  001E20   SBCI    R19,0xFF
15131	32109	  001E22   SUBI    R16,0x01
15132	32110	  001E24   SBCI    R17,0x00
15133	32111	  001E26   BRNE    __flashcpy
		__flashcpy:
15134	32113	  001E16   OUT     RAMPZ,R19
15135	32114	  001E18   ELPM      R18,Z
15136	32117	  001E1A   ST      X+,R18
15137	32119	  001E1C   SUBI    R30,0xFF
15138	32120	  001E1E   SBCI    R31,0xFF
15139	32121	  001E20   SBCI    R19,0xFF
15140	32122	  001E22   SUBI    R16,0x01
15141	32123	  001E24   SBCI    R17,0x00
15142	32124	  001E26   BRNE    __flashcpy
		__flashcpy:
15143	32126	  001E16   OUT     RAMPZ,R19
15144	32127	  001E18   ELPM      R18,Z
15145	32130	  001E1A   ST      X+,R18
15146	32132	  001E1C   SUBI    R30,0xFF
15147	32133	  001E1E   SBCI    R31,0xFF
15148	32134	  001E20   SBCI    R19,0xFF
15149	32135	  001E22   SUBI    R16,0x01
15150	32136	  001E24   SBCI    R17,0x00
15151	32137	  001E26   BRNE    __flashcpy
		__flashcpy:
15152	32139	  001E16   OUT     RAMPZ,R19
15153	32140	  001E18   ELPM      R18,Z
15154	32143	  001E1A   ST      X+,R18
15155	32145	  001E1C   SUBI    R30,0xFF
15156	32146	  001E1E   SBCI    R31,0xFF
15157	32147	  001E20   SBCI    R19,0xFF
15158	32148	  001E22   SUBI    R16,0x01
15159	32149	  001E24   SBCI    R17,0x00
15160	32150	  001E26   BRNE    __flashcpy
		__flashcpy:
15161	32152	  001E16   OUT     RAMPZ,R19
15162	32153	  001E18   ELPM      R18,Z
15163	32156	  001E1A   ST      X+,R18
15164	32158	  001E1C   SUBI    R30,0xFF
15165	32159	  001E1E   SBCI    R31,0xFF
15166	32160	  001E20   SBCI    R19,0xFF
15167	32161	  001E22   SUBI    R16,0x01
15168	32162	  001E24   SBCI    R17,0x00
15169	32163	  001E26   BRNE    __flashcpy
		__flashcpy:
15170	32165	  001E16   OUT     RAMPZ,R19
15171	32166	  001E18   ELPM      R18,Z
15172	32169	  001E1A   ST      X+,R18
15173	32171	  001E1C   SUBI    R30,0xFF
15174	32172	  001E1E   SBCI    R31,0xFF
15175	32173	  001E20   SBCI    R19,0xFF
15176	32174	  001E22   SUBI    R16,0x01
15177	32175	  001E24   SBCI    R17,0x00
15178	32176	  001E26   BRNE    __flashcpy
		__flashcpy:
15179	32178	  001E16   OUT     RAMPZ,R19
15180	32179	  001E18   ELPM      R18,Z
15181	32182	  001E1A   ST      X+,R18
15182	32184	  001E1C   SUBI    R30,0xFF
15183	32185	  001E1E   SBCI    R31,0xFF
15184	32186	  001E20   SBCI    R19,0xFF
15185	32187	  001E22   SUBI    R16,0x01
15186	32188	  001E24   SBCI    R17,0x00
15187	32189	  001E26   BRNE    __flashcpy
		__flashcpy:
15188	32191	  001E16   OUT     RAMPZ,R19
15189	32192	  001E18   ELPM      R18,Z
15190	32195	  001E1A   ST      X+,R18
15191	32197	  001E1C   SUBI    R30,0xFF
15192	32198	  001E1E   SBCI    R31,0xFF
15193	32199	  001E20   SBCI    R19,0xFF
15194	32200	  001E22   SUBI    R16,0x01
15195	32201	  001E24   SBCI    R17,0x00
15196	32202	  001E26   BRNE    __flashcpy
		__flashcpy:
15197	32204	  001E16   OUT     RAMPZ,R19
15198	32205	  001E18   ELPM      R18,Z
15199	32208	  001E1A   ST      X+,R18
15200	32210	  001E1C   SUBI    R30,0xFF
15201	32211	  001E1E   SBCI    R31,0xFF
15202	32212	  001E20   SBCI    R19,0xFF
15203	32213	  001E22   SUBI    R16,0x01
15204	32214	  001E24   SBCI    R17,0x00
15205	32215	  001E26   BRNE    __flashcpy
		__flashcpy:
15206	32217	  001E16   OUT     RAMPZ,R19
15207	32218	  001E18   ELPM      R18,Z
15208	32221	  001E1A   ST      X+,R18
15209	32223	  001E1C   SUBI    R30,0xFF
15210	32224	  001E1E   SBCI    R31,0xFF
15211	32225	  001E20   SBCI    R19,0xFF
15212	32226	  001E22   SUBI    R16,0x01
15213	32227	  001E24   SBCI    R17,0x00
15214	32228	  001E26   BRNE    __flashcpy
		__flashcpy:
15215	32230	  001E16   OUT     RAMPZ,R19
15216	32231	  001E18   ELPM      R18,Z
15217	32234	  001E1A   ST      X+,R18
15218	32236	  001E1C   SUBI    R30,0xFF
15219	32237	  001E1E   SBCI    R31,0xFF
15220	32238	  001E20   SBCI    R19,0xFF
15221	32239	  001E22   SUBI    R16,0x01
15222	32240	  001E24   SBCI    R17,0x00
15223	32241	  001E26   BRNE    __flashcpy
		__flashcpy:
15224	32243	  001E16   OUT     RAMPZ,R19
15225	32244	  001E18   ELPM      R18,Z
15226	32247	  001E1A   ST      X+,R18
15227	32249	  001E1C   SUBI    R30,0xFF
15228	32250	  001E1E   SBCI    R31,0xFF
15229	32251	  001E20   SBCI    R19,0xFF
15230	32252	  001E22   SUBI    R16,0x01
15231	32253	  001E24   SBCI    R17,0x00
15232	32254	  001E26   BRNE    __flashcpy
		__flashcpy:
15233	32256	  001E16   OUT     RAMPZ,R19
15234	32257	  001E18   ELPM      R18,Z
15235	32260	  001E1A   ST      X+,R18
15236	32262	  001E1C   SUBI    R30,0xFF
15237	32263	  001E1E   SBCI    R31,0xFF
15238	32264	  001E20   SBCI    R19,0xFF
15239	32265	  001E22   SUBI    R16,0x01
15240	32266	  001E24   SBCI    R17,0x00
15241	32267	  001E26   BRNE    __flashcpy
		__flashcpy:
15242	32269	  001E16   OUT     RAMPZ,R19
15243	32270	  001E18   ELPM      R18,Z
15244	32273	  001E1A   ST      X+,R18
15245	32275	  001E1C   SUBI    R30,0xFF
15246	32276	  001E1E   SBCI    R31,0xFF
15247	32277	  001E20   SBCI    R19,0xFF
15248	32278	  001E22   SUBI    R16,0x01
15249	32279	  001E24   SBCI    R17,0x00
15250	32280	  001E26   BRNE    __flashcpy
		__flashcpy:
15251	32282	  001E16   OUT     RAMPZ,R19
15252	32283	  001E18   ELPM      R18,Z
15253	32286	  001E1A   ST      X+,R18
15254	32288	  001E1C   SUBI    R30,0xFF
15255	32289	  001E1E   SBCI    R31,0xFF
15256	32290	  001E20   SBCI    R19,0xFF
15257	32291	  001E22   SUBI    R16,0x01
15258	32292	  001E24   SBCI    R17,0x00
15259	32293	  001E26   BRNE    __flashcpy
		__flashcpy:
15260	32295	  001E16   OUT     RAMPZ,R19
15261	32296	  001E18   ELPM      R18,Z
15262	32299	  001E1A   ST      X+,R18
15263	32301	  001E1C   SUBI    R30,0xFF
15264	32302	  001E1E   SBCI    R31,0xFF
15265	32303	  001E20   SBCI    R19,0xFF
15266	32304	  001E22   SUBI    R16,0x01
15267	32305	  001E24   SBCI    R17,0x00
15268	32306	  001E26   BRNE    __flashcpy
		__flashcpy:
15269	32308	  001E16   OUT     RAMPZ,R19
15270	32309	  001E18   ELPM      R18,Z
15271	32312	  001E1A   ST      X+,R18
15272	32314	  001E1C   SUBI    R30,0xFF
15273	32315	  001E1E   SBCI    R31,0xFF
15274	32316	  001E20   SBCI    R19,0xFF
15275	32317	  001E22   SUBI    R16,0x01
15276	32318	  001E24   SBCI    R17,0x00
15277	32319	  001E26   BRNE    __flashcpy
		__flashcpy:
15278	32321	  001E16   OUT     RAMPZ,R19
15279	32322	  001E18   ELPM      R18,Z
15280	32325	  001E1A   ST      X+,R18
15281	32327	  001E1C   SUBI    R30,0xFF
15282	32328	  001E1E   SBCI    R31,0xFF
15283	32329	  001E20   SBCI    R19,0xFF
15284	32330	  001E22   SUBI    R16,0x01
15285	32331	  001E24   SBCI    R17,0x00
15286	32332	  001E26   BRNE    __flashcpy
		__flashcpy:
15287	32334	  001E16   OUT     RAMPZ,R19
15288	32335	  001E18   ELPM      R18,Z
15289	32338	  001E1A   ST      X+,R18
15290	32340	  001E1C   SUBI    R30,0xFF
15291	32341	  001E1E   SBCI    R31,0xFF
15292	32342	  001E20   SBCI    R19,0xFF
15293	32343	  001E22   SUBI    R16,0x01
15294	32344	  001E24   SBCI    R17,0x00
15295	32345	  001E26   BRNE    __flashcpy
		__flashcpy:
15296	32347	  001E16   OUT     RAMPZ,R19
15297	32348	  001E18   ELPM      R18,Z
15298	32351	  001E1A   ST      X+,R18
15299	32353	  001E1C   SUBI    R30,0xFF
15300	32354	  001E1E   SBCI    R31,0xFF
15301	32355	  001E20   SBCI    R19,0xFF
15302	32356	  001E22   SUBI    R16,0x01
15303	32357	  001E24   SBCI    R17,0x00
15304	32358	  001E26   BRNE    __flashcpy
		__flashcpy:
15305	32360	  001E16   OUT     RAMPZ,R19
15306	32361	  001E18   ELPM      R18,Z
15307	32364	  001E1A   ST      X+,R18
15308	32366	  001E1C   SUBI    R30,0xFF
15309	32367	  001E1E   SBCI    R31,0xFF
15310	32368	  001E20   SBCI    R19,0xFF
15311	32369	  001E22   SUBI    R16,0x01
15312	32370	  001E24   SBCI    R17,0x00
15313	32371	  001E26   BRNE    __flashcpy
		__flashcpy:
15314	32373	  001E16   OUT     RAMPZ,R19
15315	32374	  001E18   ELPM      R18,Z
15316	32377	  001E1A   ST      X+,R18
15317	32379	  001E1C   SUBI    R30,0xFF
15318	32380	  001E1E   SBCI    R31,0xFF
15319	32381	  001E20   SBCI    R19,0xFF
15320	32382	  001E22   SUBI    R16,0x01
15321	32383	  001E24   SBCI    R17,0x00
15322	32384	  001E26   BRNE    __flashcpy
		__flashcpy:
15323	32386	  001E16   OUT     RAMPZ,R19
15324	32387	  001E18   ELPM      R18,Z
15325	32390	  001E1A   ST      X+,R18
15326	32392	  001E1C   SUBI    R30,0xFF
15327	32393	  001E1E   SBCI    R31,0xFF
15328	32394	  001E20   SBCI    R19,0xFF
15329	32395	  001E22   SUBI    R16,0x01
15330	32396	  001E24   SBCI    R17,0x00
15331	32397	  001E26   BRNE    __flashcpy
		__flashcpy:
15332	32399	  001E16   OUT     RAMPZ,R19
15333	32400	  001E18   ELPM      R18,Z
15334	32403	  001E1A   ST      X+,R18
15335	32405	  001E1C   SUBI    R30,0xFF
15336	32406	  001E1E   SBCI    R31,0xFF
15337	32407	  001E20   SBCI    R19,0xFF
15338	32408	  001E22   SUBI    R16,0x01
15339	32409	  001E24   SBCI    R17,0x00
15340	32410	  001E26   BRNE    __flashcpy
		__flashcpy:
15341	32412	  001E16   OUT     RAMPZ,R19
15342	32413	  001E18   ELPM      R18,Z
15343	32416	  001E1A   ST      X+,R18
15344	32418	  001E1C   SUBI    R30,0xFF
15345	32419	  001E1E   SBCI    R31,0xFF
15346	32420	  001E20   SBCI    R19,0xFF
15347	32421	  001E22   SUBI    R16,0x01
15348	32422	  001E24   SBCI    R17,0x00
15349	32423	  001E26   BRNE    __flashcpy
		__flashcpy:
15350	32425	  001E16   OUT     RAMPZ,R19
15351	32426	  001E18   ELPM      R18,Z
15352	32429	  001E1A   ST      X+,R18
15353	32431	  001E1C   SUBI    R30,0xFF
15354	32432	  001E1E   SBCI    R31,0xFF
15355	32433	  001E20   SBCI    R19,0xFF
15356	32434	  001E22   SUBI    R16,0x01
15357	32435	  001E24   SBCI    R17,0x00
15358	32436	  001E26   BRNE    __flashcpy
		__flashcpy:
15359	32438	  001E16   OUT     RAMPZ,R19
15360	32439	  001E18   ELPM      R18,Z
15361	32442	  001E1A   ST      X+,R18
15362	32444	  001E1C   SUBI    R30,0xFF
15363	32445	  001E1E   SBCI    R31,0xFF
15364	32446	  001E20   SBCI    R19,0xFF
15365	32447	  001E22   SUBI    R16,0x01
15366	32448	  001E24   SBCI    R17,0x00
15367	32449	  001E26   BRNE    __flashcpy
		__flashcpy:
15368	32451	  001E16   OUT     RAMPZ,R19
15369	32452	  001E18   ELPM      R18,Z
15370	32455	  001E1A   ST      X+,R18
15371	32457	  001E1C   SUBI    R30,0xFF
15372	32458	  001E1E   SBCI    R31,0xFF
15373	32459	  001E20   SBCI    R19,0xFF
15374	32460	  001E22   SUBI    R16,0x01
15375	32461	  001E24   SBCI    R17,0x00
15376	32462	  001E26   BRNE    __flashcpy
		__flashcpy:
15377	32464	  001E16   OUT     RAMPZ,R19
15378	32465	  001E18   ELPM      R18,Z
15379	32468	  001E1A   ST      X+,R18
15380	32470	  001E1C   SUBI    R30,0xFF
15381	32471	  001E1E   SBCI    R31,0xFF
15382	32472	  001E20   SBCI    R19,0xFF
15383	32473	  001E22   SUBI    R16,0x01
15384	32474	  001E24   SBCI    R17,0x00
15385	32475	  001E26   BRNE    __flashcpy
		__flashcpy:
15386	32477	  001E16   OUT     RAMPZ,R19
15387	32478	  001E18   ELPM      R18,Z
15388	32481	  001E1A   ST      X+,R18
15389	32483	  001E1C   SUBI    R30,0xFF
15390	32484	  001E1E   SBCI    R31,0xFF
15391	32485	  001E20   SBCI    R19,0xFF
15392	32486	  001E22   SUBI    R16,0x01
15393	32487	  001E24   SBCI    R17,0x00
15394	32488	  001E26   BRNE    __flashcpy
		__flashcpy:
15395	32490	  001E16   OUT     RAMPZ,R19
15396	32491	  001E18   ELPM      R18,Z
15397	32494	  001E1A   ST      X+,R18
15398	32496	  001E1C   SUBI    R30,0xFF
15399	32497	  001E1E   SBCI    R31,0xFF
15400	32498	  001E20   SBCI    R19,0xFF
15401	32499	  001E22   SUBI    R16,0x01
15402	32500	  001E24   SBCI    R17,0x00
15403	32501	  001E26   BRNE    __flashcpy
		__flashcpy:
15404	32503	  001E16   OUT     RAMPZ,R19
15405	32504	  001E18   ELPM      R18,Z
15406	32507	  001E1A   ST      X+,R18
15407	32509	  001E1C   SUBI    R30,0xFF
15408	32510	  001E1E   SBCI    R31,0xFF
15409	32511	  001E20   SBCI    R19,0xFF
15410	32512	  001E22   SUBI    R16,0x01
15411	32513	  001E24   SBCI    R17,0x00
15412	32514	  001E26   BRNE    __flashcpy
		__flashcpy:
15413	32516	  001E16   OUT     RAMPZ,R19
15414	32517	  001E18   ELPM      R18,Z
15415	32520	  001E1A   ST      X+,R18
15416	32522	  001E1C   SUBI    R30,0xFF
15417	32523	  001E1E   SBCI    R31,0xFF
15418	32524	  001E20   SBCI    R19,0xFF
15419	32525	  001E22   SUBI    R16,0x01
15420	32526	  001E24   SBCI    R17,0x00
15421	32527	  001E26   BRNE    __flashcpy
		__flashcpy:
15422	32529	  001E16   OUT     RAMPZ,R19
15423	32530	  001E18   ELPM      R18,Z
15424	32533	  001E1A   ST      X+,R18
15425	32535	  001E1C   SUBI    R30,0xFF
15426	32536	  001E1E   SBCI    R31,0xFF
15427	32537	  001E20   SBCI    R19,0xFF
15428	32538	  001E22   SUBI    R16,0x01
15429	32539	  001E24   SBCI    R17,0x00
15430	32540	  001E26   BRNE    __flashcpy
		__flashcpy:
15431	32542	  001E16   OUT     RAMPZ,R19
15432	32543	  001E18   ELPM      R18,Z
15433	32546	  001E1A   ST      X+,R18
15434	32548	  001E1C   SUBI    R30,0xFF
15435	32549	  001E1E   SBCI    R31,0xFF
15436	32550	  001E20   SBCI    R19,0xFF
15437	32551	  001E22   SUBI    R16,0x01
15438	32552	  001E24   SBCI    R17,0x00
15439	32553	  001E26   BRNE    __flashcpy
		__flashcpy:
15440	32555	  001E16   OUT     RAMPZ,R19
15441	32556	  001E18   ELPM      R18,Z
15442	32559	  001E1A   ST      X+,R18
15443	32561	  001E1C   SUBI    R30,0xFF
15444	32562	  001E1E   SBCI    R31,0xFF
15445	32563	  001E20   SBCI    R19,0xFF
15446	32564	  001E22   SUBI    R16,0x01
15447	32565	  001E24   SBCI    R17,0x00
15448	32566	  001E26   BRNE    __flashcpy
		__flashcpy:
15449	32568	  001E16   OUT     RAMPZ,R19
15450	32569	  001E18   ELPM      R18,Z
15451	32572	  001E1A   ST      X+,R18
15452	32574	  001E1C   SUBI    R30,0xFF
15453	32575	  001E1E   SBCI    R31,0xFF
15454	32576	  001E20   SBCI    R19,0xFF
15455	32577	  001E22   SUBI    R16,0x01
15456	32578	  001E24   SBCI    R17,0x00
15457	32579	  001E26   BRNE    __flashcpy
		__flashcpy:
15458	32581	  001E16   OUT     RAMPZ,R19
15459	32582	  001E18   ELPM      R18,Z
15460	32585	  001E1A   ST      X+,R18
15461	32587	  001E1C   SUBI    R30,0xFF
15462	32588	  001E1E   SBCI    R31,0xFF
15463	32589	  001E20   SBCI    R19,0xFF
15464	32590	  001E22   SUBI    R16,0x01
15465	32591	  001E24   SBCI    R17,0x00
15466	32592	  001E26   BRNE    __flashcpy
		__flashcpy:
15467	32594	  001E16   OUT     RAMPZ,R19
15468	32595	  001E18   ELPM      R18,Z
15469	32598	  001E1A   ST      X+,R18
15470	32600	  001E1C   SUBI    R30,0xFF
15471	32601	  001E1E   SBCI    R31,0xFF
15472	32602	  001E20   SBCI    R19,0xFF
15473	32603	  001E22   SUBI    R16,0x01
15474	32604	  001E24   SBCI    R17,0x00
15475	32605	  001E26   BRNE    __flashcpy
		__flashcpy:
15476	32607	  001E16   OUT     RAMPZ,R19
15477	32608	  001E18   ELPM      R18,Z
15478	32611	  001E1A   ST      X+,R18
15479	32613	  001E1C   SUBI    R30,0xFF
15480	32614	  001E1E   SBCI    R31,0xFF
15481	32615	  001E20   SBCI    R19,0xFF
15482	32616	  001E22   SUBI    R16,0x01
15483	32617	  001E24   SBCI    R17,0x00
15484	32618	  001E26   BRNE    __flashcpy
		__flashcpy:
15485	32620	  001E16   OUT     RAMPZ,R19
15486	32621	  001E18   ELPM      R18,Z
15487	32624	  001E1A   ST      X+,R18
15488	32626	  001E1C   SUBI    R30,0xFF
15489	32627	  001E1E   SBCI    R31,0xFF
15490	32628	  001E20   SBCI    R19,0xFF
15491	32629	  001E22   SUBI    R16,0x01
15492	32630	  001E24   SBCI    R17,0x00
15493	32631	  001E26   BRNE    __flashcpy
		__flashcpy:
15494	32633	  001E16   OUT     RAMPZ,R19
15495	32634	  001E18   ELPM      R18,Z
15496	32637	  001E1A   ST      X+,R18
15497	32639	  001E1C   SUBI    R30,0xFF
15498	32640	  001E1E   SBCI    R31,0xFF
15499	32641	  001E20   SBCI    R19,0xFF
15500	32642	  001E22   SUBI    R16,0x01
15501	32643	  001E24   SBCI    R17,0x00
15502	32644	  001E26   BRNE    __flashcpy
		__flashcpy:
15503	32646	  001E16   OUT     RAMPZ,R19
15504	32647	  001E18   ELPM      R18,Z
15505	32650	  001E1A   ST      X+,R18
15506	32652	  001E1C   SUBI    R30,0xFF
15507	32653	  001E1E   SBCI    R31,0xFF
15508	32654	  001E20   SBCI    R19,0xFF
15509	32655	  001E22   SUBI    R16,0x01
15510	32656	  001E24   SBCI    R17,0x00
15511	32657	  001E26   BRNE    __flashcpy
		__flashcpy:
15512	32659	  001E16   OUT     RAMPZ,R19
15513	32660	  001E18   ELPM      R18,Z
15514	32663	  001E1A   ST      X+,R18
15515	32665	  001E1C   SUBI    R30,0xFF
15516	32666	  001E1E   SBCI    R31,0xFF
15517	32667	  001E20   SBCI    R19,0xFF
15518	32668	  001E22   SUBI    R16,0x01
15519	32669	  001E24   SBCI    R17,0x00
15520	32670	  001E26   BRNE    __flashcpy
		__flashcpy:
15521	32672	  001E16   OUT     RAMPZ,R19
15522	32673	  001E18   ELPM      R18,Z
15523	32676	  001E1A   ST      X+,R18
15524	32678	  001E1C   SUBI    R30,0xFF
15525	32679	  001E1E   SBCI    R31,0xFF
15526	32680	  001E20   SBCI    R19,0xFF
15527	32681	  001E22   SUBI    R16,0x01
15528	32682	  001E24   SBCI    R17,0x00
15529	32683	  001E26   BRNE    __flashcpy
		__flashcpy:
15530	32685	  001E16   OUT     RAMPZ,R19
15531	32686	  001E18   ELPM      R18,Z
15532	32689	  001E1A   ST      X+,R18
15533	32691	  001E1C   SUBI    R30,0xFF
15534	32692	  001E1E   SBCI    R31,0xFF
15535	32693	  001E20   SBCI    R19,0xFF
15536	32694	  001E22   SUBI    R16,0x01
15537	32695	  001E24   SBCI    R17,0x00
15538	32696	  001E26   BRNE    __flashcpy
		__flashcpy:
15539	32698	  001E16   OUT     RAMPZ,R19
15540	32699	  001E18   ELPM      R18,Z
15541	32702	  001E1A   ST      X+,R18
15542	32704	  001E1C   SUBI    R30,0xFF
15543	32705	  001E1E   SBCI    R31,0xFF
15544	32706	  001E20   SBCI    R19,0xFF
15545	32707	  001E22   SUBI    R16,0x01
15546	32708	  001E24   SBCI    R17,0x00
15547	32709	  001E26   BRNE    __flashcpy
		__flashcpy:
15548	32711	  001E16   OUT     RAMPZ,R19
15549	32712	  001E18   ELPM      R18,Z
15550	32715	  001E1A   ST      X+,R18
15551	32717	  001E1C   SUBI    R30,0xFF
15552	32718	  001E1E   SBCI    R31,0xFF
15553	32719	  001E20   SBCI    R19,0xFF
15554	32720	  001E22   SUBI    R16,0x01
15555	32721	  001E24   SBCI    R17,0x00
15556	32722	  001E26   BRNE    __flashcpy
		__flashcpy:
15557	32724	  001E16   OUT     RAMPZ,R19
15558	32725	  001E18   ELPM      R18,Z
15559	32728	  001E1A   ST      X+,R18
15560	32730	  001E1C   SUBI    R30,0xFF
15561	32731	  001E1E   SBCI    R31,0xFF
15562	32732	  001E20   SBCI    R19,0xFF
15563	32733	  001E22   SUBI    R16,0x01
15564	32734	  001E24   SBCI    R17,0x00
15565	32735	  001E26   BRNE    __flashcpy
		__flashcpy:
15566	32737	  001E16   OUT     RAMPZ,R19
15567	32738	  001E18   ELPM      R18,Z
15568	32741	  001E1A   ST      X+,R18
15569	32743	  001E1C   SUBI    R30,0xFF
15570	32744	  001E1E   SBCI    R31,0xFF
15571	32745	  001E20   SBCI    R19,0xFF
15572	32746	  001E22   SUBI    R16,0x01
15573	32747	  001E24   SBCI    R17,0x00
15574	32748	  001E26   BRNE    __flashcpy
		__flashcpy:
15575	32750	  001E16   OUT     RAMPZ,R19
15576	32751	  001E18   ELPM      R18,Z
15577	32754	  001E1A   ST      X+,R18
15578	32756	  001E1C   SUBI    R30,0xFF
15579	32757	  001E1E   SBCI    R31,0xFF
15580	32758	  001E20   SBCI    R19,0xFF
15581	32759	  001E22   SUBI    R16,0x01
15582	32760	  001E24   SBCI    R17,0x00
15583	32761	  001E26   BRNE    __flashcpy
		__flashcpy:
15584	32763	  001E16   OUT     RAMPZ,R19
15585	32764	  001E18   ELPM      R18,Z
15586	32767	  001E1A   ST      X+,R18
15587	32769	  001E1C   SUBI    R30,0xFF
15588	32770	  001E1E   SBCI    R31,0xFF
15589	32771	  001E20   SBCI    R19,0xFF
15590	32772	  001E22   SUBI    R16,0x01
15591	32773	  001E24   SBCI    R17,0x00
15592	32774	  001E26   BRNE    __flashcpy
		__flashcpy:
15593	32776	  001E16   OUT     RAMPZ,R19
15594	32777	  001E18   ELPM      R18,Z
15595	32780	  001E1A   ST      X+,R18
15596	32782	  001E1C   SUBI    R30,0xFF
15597	32783	  001E1E   SBCI    R31,0xFF
15598	32784	  001E20   SBCI    R19,0xFF
15599	32785	  001E22   SUBI    R16,0x01
15600	32786	  001E24   SBCI    R17,0x00
15601	32787	  001E26   BRNE    __flashcpy
		__flashcpy:
15602	32789	  001E16   OUT     RAMPZ,R19
15603	32790	  001E18   ELPM      R18,Z
15604	32793	  001E1A   ST      X+,R18
15605	32795	  001E1C   SUBI    R30,0xFF
15606	32796	  001E1E   SBCI    R31,0xFF
15607	32797	  001E20   SBCI    R19,0xFF
15608	32798	  001E22   SUBI    R16,0x01
15609	32799	  001E24   SBCI    R17,0x00
15610	32800	  001E26   BRNE    __flashcpy
		__flashcpy:
15611	32802	  001E16   OUT     RAMPZ,R19
15612	32803	  001E18   ELPM      R18,Z
15613	32806	  001E1A   ST      X+,R18
15614	32808	  001E1C   SUBI    R30,0xFF
15615	32809	  001E1E   SBCI    R31,0xFF
15616	32810	  001E20   SBCI    R19,0xFF
15617	32811	  001E22   SUBI    R16,0x01
15618	32812	  001E24   SBCI    R17,0x00
15619	32813	  001E26   BRNE    __flashcpy
		__flashcpy:
15620	32815	  001E16   OUT     RAMPZ,R19
15621	32816	  001E18   ELPM      R18,Z
15622	32819	  001E1A   ST      X+,R18
15623	32821	  001E1C   SUBI    R30,0xFF
15624	32822	  001E1E   SBCI    R31,0xFF
15625	32823	  001E20   SBCI    R19,0xFF
15626	32824	  001E22   SUBI    R16,0x01
15627	32825	  001E24   SBCI    R17,0x00
15628	32826	  001E26   BRNE    __flashcpy
		__flashcpy:
15629	32828	  001E16   OUT     RAMPZ,R19
15630	32829	  001E18   ELPM      R18,Z
15631	32832	  001E1A   ST      X+,R18
15632	32834	  001E1C   SUBI    R30,0xFF
15633	32835	  001E1E   SBCI    R31,0xFF
15634	32836	  001E20   SBCI    R19,0xFF
15635	32837	  001E22   SUBI    R16,0x01
15636	32838	  001E24   SBCI    R17,0x00
15637	32839	  001E26   BRNE    __flashcpy
		__flashcpy:
15638	32841	  001E16   OUT     RAMPZ,R19
15639	32842	  001E18   ELPM      R18,Z
15640	32845	  001E1A   ST      X+,R18
15641	32847	  001E1C   SUBI    R30,0xFF
15642	32848	  001E1E   SBCI    R31,0xFF
15643	32849	  001E20   SBCI    R19,0xFF
15644	32850	  001E22   SUBI    R16,0x01
15645	32851	  001E24   SBCI    R17,0x00
15646	32852	  001E26   BRNE    __flashcpy
		__flashcpy:
15647	32854	  001E16   OUT     RAMPZ,R19
15648	32855	  001E18   ELPM      R18,Z
15649	32858	  001E1A   ST      X+,R18
15650	32860	  001E1C   SUBI    R30,0xFF
15651	32861	  001E1E   SBCI    R31,0xFF
15652	32862	  001E20   SBCI    R19,0xFF
15653	32863	  001E22   SUBI    R16,0x01
15654	32864	  001E24   SBCI    R17,0x00
15655	32865	  001E26   BRNE    __flashcpy
15656	32866	  001E28   RET
15657	32870	  001E68   RJMP    0x1E6C
15658	32872	  001E6C   SUBI    R20,0xF9
15659	32873	  001E6E   SBCI    R21,0xFF
15660	32874	  001E70   SBCI    R22,0xFF
15661	32875	  001E72   LDI     R17,0x31
15662	32876	  001E74   LDI     R18,0x00
15663	32877	  001E76   CPI     R20,0x37
15664	32878	  001E78   CPC     R21,R17
15665	32879	  001E7A   CPC     R22,R18
15666	32880	  001E7C   BRCS    0x1E30
15667	32881	  001E7E   RET
		?cstartup_call_main:
15668	32885	  0015EE   CALL    main
		main:
15669	32889	  00039C   ST      -Y,R25
15670	32891	  00039E   ST      -Y,R24
15671	32893	  0003A0   SBIW    R28,40
